ARM GAS  /var/folders/pt/gxfsd_x53tx3h6kb8dkzftl80000gr/T//ccixfiA9.s 			page 1


   1              		.syntax unified
   2              		.cpu cortex-m3
   3              		.fpu softvfp
   4              		.eabi_attribute 20, 1
   5              		.eabi_attribute 21, 1
   6              		.eabi_attribute 23, 3
   7              		.eabi_attribute 24, 1
   8              		.eabi_attribute 25, 1
   9              		.eabi_attribute 26, 1
  10              		.eabi_attribute 30, 2
  11              		.eabi_attribute 34, 1
  12              		.eabi_attribute 18, 4
  13              		.thumb
  14              		.file	"chprintf.c"
  15              		.text
  16              	.Ltext0:
  17              		.cfi_sections	.debug_frame
  18              		.section	.text.long_to_string_with_divisor.constprop.0,"ax",%progbits
  19              		.align	2
  20              		.p2align 4,,15
  21              		.thumb
  22              		.thumb_func
  23              		.type	long_to_string_with_divisor.constprop.0, %function
  24              	long_to_string_with_divisor.constprop.0:
  25              	.LFB12:
  26              		.file 1 "convex/ChibiOS_2.6.2/os/various/chprintf.c"
  27              		.loc 1 37 0
  28              		.cfi_startproc
  29              		@ args = 0, pretend = 0, frame = 0
  30              		@ frame_needed = 0, uses_anonymous_args = 0
  31              		@ link register save eliminated.
  32              	.LVL0:
  33 0000 F0B4     		push	{r4, r5, r6, r7}
  34              	.LCFI0:
  35              		.cfi_def_cfa_offset 16
  36              		.cfi_offset 4, -16
  37              		.cfi_offset 5, -12
  38              		.cfi_offset 6, -8
  39              		.cfi_offset 7, -4
  40              		.loc 1 52 0
  41 0002 00F10B0C 		add	ip, r0, #11
  42              	.LVL1:
  43              		.loc 1 37 0
  44 0006 00F10A05 		add	r5, r0, #10
  45 000a 0C46     		mov	r4, r1
  46              	.LVL2:
  47              	.L3:
  48              		.loc 1 54 0
  49 000c B1FBF2F6 		udiv	r6, r1, r2
  50 0010 02FB1611 		mls	r1, r2, r6, r1
  51              	.LVL3:
  52              		.loc 1 55 0
  53 0014 01F13003 		add	r3, r1, #48
  54              	.LVL4:
  55              		.loc 1 56 0
  56 0018 392B     		cmp	r3, #57
  57              		.loc 1 57 0
ARM GAS  /var/folders/pt/gxfsd_x53tx3h6kb8dkzftl80000gr/T//ccixfiA9.s 			page 2


  58 001a C8BF     		it	gt
  59 001c 01F13703 		addgt	r3, r1, #55
  60              	.LVL5:
  61              		.loc 1 58 0
  62 0020 DBB2     		uxtb	r3, r3
  63              	.LVL6:
  64              		.loc 1 60 0
  65 0022 B4FBF2F4 		udiv	r4, r4, r2
  66              	.LVL7:
  67              		.loc 1 58 0
  68 0026 2F46     		mov	r7, r5
  69              	.LVL8:
  70              		.loc 1 59 0
  71 0028 3146     		mov	r1, r6
  72              	.LVL9:
  73              		.loc 1 58 0
  74 002a 05F80139 		strb	r3, [r5], #-1
  75              	.LVL10:
  76              		.loc 1 60 0
  77 002e 002C     		cmp	r4, #0
  78 0030 ECD1     		bne	.L3
  79              	.LVL11:
  80              		.loc 1 62 0
  81 0032 C7EB0C01 		rsb	r1, r7, ip
  82              	.LVL12:
  83 0036 3A46     		mov	r2, r7
  84              	.LVL13:
  85              		.loc 1 37 0
  86 0038 4118     		adds	r1, r0, r1
  87              	.LVL14:
  88 003a 01E0     		b	.L5
  89              	.LVL15:
  90              	.L9:
  91 003c 12F8013F 		ldrb	r3, [r2, #1]!	@ zero_extendqisi2
  92              	.L5:
  93              		.loc 1 64 0
  94 0040 00F8013B 		strb	r3, [r0], #1
  95              	.LVL16:
  96              		.loc 1 65 0
  97 0044 8842     		cmp	r0, r1
  98 0046 F9D1     		bne	.L9
  99              		.loc 1 68 0
 100 0048 F0BC     		pop	{r4, r5, r6, r7}
 101 004a 7047     		bx	lr
 102              		.cfi_endproc
 103              	.LFE12:
 104              		.size	long_to_string_with_divisor.constprop.0, .-long_to_string_with_divisor.constprop.0
 105 004c AFF30080 		.section	.text.chvprintf,"ax",%progbits
 106              		.align	2
 107              		.p2align 4,,15
 108              		.global	chvprintf
 109              		.thumb
 110              		.thumb_func
 111              		.type	chvprintf, %function
 112              	chvprintf:
 113              	.LFB10:
 114              		.loc 1 112 0
ARM GAS  /var/folders/pt/gxfsd_x53tx3h6kb8dkzftl80000gr/T//ccixfiA9.s 			page 3


 115              		.cfi_startproc
 116              		@ args = 0, pretend = 0, frame = 32
 117              		@ frame_needed = 0, uses_anonymous_args = 0
 118              	.LVL17:
 119 0000 2DE9F04F 		push	{r4, r5, r6, r7, r8, r9, sl, fp, lr}
 120              	.LCFI1:
 121              		.cfi_def_cfa_offset 36
 122              		.cfi_offset 4, -36
 123              		.cfi_offset 5, -32
 124              		.cfi_offset 6, -28
 125              		.cfi_offset 7, -24
 126              		.cfi_offset 8, -20
 127              		.cfi_offset 9, -16
 128              		.cfi_offset 10, -12
 129              		.cfi_offset 11, -8
 130              		.cfi_offset 14, -4
 131 0004 89B0     		sub	sp, sp, #36
 132              	.LCFI2:
 133              		.cfi_def_cfa_offset 72
 134              		.loc 1 132 0
 135 0006 05AB     		add	r3, sp, #20
 136              		.loc 1 236 0
 137 0008 0DF1150C 		add	ip, sp, #21
 138              		.loc 1 132 0
 139 000c 0293     		str	r3, [sp, #8]
 140 000e C3EB0C03 		rsb	r3, r3, ip
 141              		.loc 1 236 0
 142 0012 CDF804C0 		str	ip, [sp, #4]
 143              		.loc 1 112 0
 144 0016 0646     		mov	r6, r0
 145 0018 0C46     		mov	r4, r1
 146 001a 1746     		mov	r7, r2
 147 001c 0393     		str	r3, [sp, #12]
 148              	.LVL18:
 149              	.L69:
 150              		.loc 1 125 0
 151 001e 2546     		mov	r5, r4
 152 0020 15F8011B 		ldrb	r1, [r5], #1	@ zero_extendqisi2
 153              	.LVL19:
 154              		.loc 1 126 0
 155 0024 59B1     		cbz	r1, .L10
 156              	.LVL20:
 157              	.L74:
 158              		.loc 1 128 0
 159 0026 2529     		cmp	r1, #37
 160 0028 0CD0     		beq	.L13
 161              		.loc 1 129 0
 162 002a 3368     		ldr	r3, [r6, #0]
 163              		.loc 1 125 0
 164 002c 2C46     		mov	r4, r5
 165              		.loc 1 129 0
 166 002e 3046     		mov	r0, r6
 167 0030 9B68     		ldr	r3, [r3, #8]
 168              		.loc 1 125 0
 169 0032 2546     		mov	r5, r4
 170              	.LVL21:
 171              		.loc 1 129 0
ARM GAS  /var/folders/pt/gxfsd_x53tx3h6kb8dkzftl80000gr/T//ccixfiA9.s 			page 4


 172 0034 9847     		blx	r3
 173              	.LVL22:
 174              		.loc 1 125 0
 175 0036 15F8011B 		ldrb	r1, [r5], #1	@ zero_extendqisi2
 176              	.LVL23:
 177              		.loc 1 126 0
 178 003a 0029     		cmp	r1, #0
 179 003c F3D1     		bne	.L74
 180              	.LVL24:
 181              	.L10:
 182              		.loc 1 261 0
 183 003e 09B0     		add	sp, sp, #36
 184 0040 BDE8F08F 		pop	{r4, r5, r6, r7, r8, r9, sl, fp, pc}
 185              	.L13:
 186              	.LVL25:
 187              		.loc 1 135 0
 188 0044 6378     		ldrb	r3, [r4, #1]	@ zero_extendqisi2
 189 0046 2D2B     		cmp	r3, #45
 190              		.loc 1 134 0
 191 0048 18BF     		it	ne
 192 004a 4FF00009 		movne	r9, #0
 193              		.loc 1 135 0
 194 004e 00F0EA80 		beq	.L75
 195              	.LVL26:
 196              	.L15:
 197              		.loc 1 140 0
 198 0052 2E2B     		cmp	r3, #46
 199 0054 18BF     		it	ne
 200 0056 302B     		cmpne	r3, #48
 201              		.loc 1 139 0
 202 0058 11BF     		iteee	ne
 203 005a 4FF02008 		movne	r8, #32
 204 005e 6B78     		ldrbeq	r3, [r5, #1]	@ zero_extendqisi2
 205              		.loc 1 142 0
 206 0060 4FF03008 		moveq	r8, #48
 207              		.loc 1 141 0
 208 0064 0135     		addeq	r5, r5, #1
 209              	.LVL27:
 210              		.loc 1 142 0
 211 0066 2C46     		mov	r4, r5
 212              		.loc 1 144 0
 213 0068 0025     		movs	r5, #0
 214              	.LVL28:
 215 006a 06E0     		b	.L19
 216              	.LVL29:
 217              	.L76:
 218              		.loc 1 150 0
 219 006c 3A78     		ldrb	r2, [r7, #0]	@ zero_extendqisi2
 220              	.LVL30:
 221 006e 0437     		adds	r7, r7, #4
 222              	.LVL31:
 223              	.L17:
 224              		.loc 1 153 0
 225 0070 05EB8505 		add	r5, r5, r5, lsl #2
 226              	.LVL32:
 227 0074 2378     		ldrb	r3, [r4, #0]	@ zero_extendqisi2
 228 0076 02EB4505 		add	r5, r2, r5, lsl #1
ARM GAS  /var/folders/pt/gxfsd_x53tx3h6kb8dkzftl80000gr/T//ccixfiA9.s 			page 5


 229              	.LVL33:
 230              	.L19:
 231              		.loc 1 147 0
 232 007a A3F13002 		sub	r2, r3, #48
 233              	.LVL34:
 234 007e D2B2     		uxtb	r2, r2
 235              		.loc 1 146 0
 236 0080 0134     		adds	r4, r4, #1
 237              	.LVL35:
 238              		.loc 1 147 0
 239 0082 092A     		cmp	r2, #9
 240 0084 F4D9     		bls	.L17
 241              	.LVL36:
 242              		.loc 1 149 0
 243 0086 2A2B     		cmp	r3, #42
 244 0088 F0D0     		beq	.L76
 245              	.LVL37:
 246              		.loc 1 155 0
 247 008a 0021     		movs	r1, #0
 248              		.loc 1 156 0
 249 008c 2E2B     		cmp	r3, #46
 250 008e 00F0B680 		beq	.L77
 251              	.LVL38:
 252              	.L20:
 253              		.loc 1 170 0
 254 0092 03F0DF02 		and	r2, r3, #223
 255 0096 4C2A     		cmp	r2, #76
 256 0098 03D1     		bne	.L24
 257              	.LVL39:
 258              		.loc 1 172 0
 259 009a 2278     		ldrb	r2, [r4, #0]	@ zero_extendqisi2
 260 009c 0AB1     		cbz	r2, .L24
 261              	.LVL40:
 262              		.loc 1 173 0
 263 009e 0134     		adds	r4, r4, #1
 264              	.LVL41:
 265 00a0 1346     		mov	r3, r2
 266              	.LVL42:
 267              	.L24:
 268              		.loc 1 179 0
 269 00a2 A3F14402 		sub	r2, r3, #68
 270 00a6 342A     		cmp	r2, #52
 271 00a8 00F2A280 		bhi	.L25
 272 00ac DFE802F0 		tbb	[pc, r2]
 273              	.L32:
 274 00b0 91       		.byte	(.L26-.L32)/2
 275 00b1 A0       		.byte	(.L25-.L32)/2
 276 00b2 A0       		.byte	(.L25-.L32)/2
 277 00b3 A0       		.byte	(.L25-.L32)/2
 278 00b4 A0       		.byte	(.L25-.L32)/2
 279 00b5 91       		.byte	(.L26-.L32)/2
 280 00b6 A0       		.byte	(.L25-.L32)/2
 281 00b7 A0       		.byte	(.L25-.L32)/2
 282 00b8 A0       		.byte	(.L25-.L32)/2
 283 00b9 A0       		.byte	(.L25-.L32)/2
 284 00ba A0       		.byte	(.L25-.L32)/2
 285 00bb 8F       		.byte	(.L27-.L32)/2
ARM GAS  /var/folders/pt/gxfsd_x53tx3h6kb8dkzftl80000gr/T//ccixfiA9.s 			page 6


 286 00bc A0       		.byte	(.L25-.L32)/2
 287 00bd A0       		.byte	(.L25-.L32)/2
 288 00be A0       		.byte	(.L25-.L32)/2
 289 00bf A0       		.byte	(.L25-.L32)/2
 290 00c0 A0       		.byte	(.L25-.L32)/2
 291 00c1 8D       		.byte	(.L55-.L32)/2
 292 00c2 A0       		.byte	(.L25-.L32)/2
 293 00c3 A0       		.byte	(.L25-.L32)/2
 294 00c4 80       		.byte	(.L29-.L32)/2
 295 00c5 A0       		.byte	(.L25-.L32)/2
 296 00c6 A0       		.byte	(.L25-.L32)/2
 297 00c7 A0       		.byte	(.L25-.L32)/2
 298 00c8 A0       		.byte	(.L25-.L32)/2
 299 00c9 A0       		.byte	(.L25-.L32)/2
 300 00ca A0       		.byte	(.L25-.L32)/2
 301 00cb A0       		.byte	(.L25-.L32)/2
 302 00cc A0       		.byte	(.L25-.L32)/2
 303 00cd A0       		.byte	(.L25-.L32)/2
 304 00ce A0       		.byte	(.L25-.L32)/2
 305 00cf 60       		.byte	(.L30-.L32)/2
 306 00d0 91       		.byte	(.L26-.L32)/2
 307 00d1 A0       		.byte	(.L25-.L32)/2
 308 00d2 A0       		.byte	(.L25-.L32)/2
 309 00d3 A0       		.byte	(.L25-.L32)/2
 310 00d4 A0       		.byte	(.L25-.L32)/2
 311 00d5 91       		.byte	(.L26-.L32)/2
 312 00d6 A0       		.byte	(.L25-.L32)/2
 313 00d7 A0       		.byte	(.L25-.L32)/2
 314 00d8 A0       		.byte	(.L25-.L32)/2
 315 00d9 A0       		.byte	(.L25-.L32)/2
 316 00da A0       		.byte	(.L25-.L32)/2
 317 00db 8F       		.byte	(.L27-.L32)/2
 318 00dc A0       		.byte	(.L25-.L32)/2
 319 00dd A0       		.byte	(.L25-.L32)/2
 320 00de A0       		.byte	(.L25-.L32)/2
 321 00df 1B       		.byte	(.L31-.L32)/2
 322 00e0 A0       		.byte	(.L25-.L32)/2
 323 00e1 8D       		.byte	(.L55-.L32)/2
 324 00e2 A0       		.byte	(.L25-.L32)/2
 325 00e3 A0       		.byte	(.L25-.L32)/2
 326 00e4 80       		.byte	(.L29-.L32)/2
 327 00e5 00       		.align	1
 328              	.L31:
 329              	.LVL43:
 330              		.loc 1 186 0
 331 00e6 D7F800A0 		ldr	sl, [r7, #0]
 332              		.loc 1 187 0
 333 00ea 40F20002 		movw	r2, #:lower16:.LC0
 334 00ee C0F20002 		movt	r2, #:upper16:.LC0
 335 00f2 BAF1000F 		cmp	sl, #0
 336 00f6 08BF     		it	eq
 337 00f8 9246     		moveq	sl, r2
 338              		.loc 1 190 0
 339 00fa 9AF80030 		ldrb	r3, [sl, #0]	@ zero_extendqisi2
 340              	.LVL44:
 341              		.loc 1 189 0
 342 00fe 47F6FF72 		movw	r2, #32767
ARM GAS  /var/folders/pt/gxfsd_x53tx3h6kb8dkzftl80000gr/T//ccixfiA9.s 			page 7


 343              		.loc 1 186 0
 344 0102 0437     		adds	r7, r7, #4
 345              	.LVL45:
 346              		.loc 1 189 0
 347 0104 0029     		cmp	r1, #0
 348 0106 08BF     		it	eq
 349 0108 1146     		moveq	r1, r2
 350              	.LVL46:
 351              		.loc 1 190 0
 352 010a 002B     		cmp	r3, #0
 353 010c 00F0A880 		beq	.L58
 354              	.LVL47:
 355 0110 5346     		mov	r3, sl
 356              		.loc 1 112 0
 357 0112 5144     		add	r1, sl, r1
 358              	.LVL48:
 359 0114 02E0     		b	.L37
 360              	.LVL49:
 361              	.L36:
 362              		.loc 1 190 0 discriminator 2
 363 0116 8B45     		cmp	fp, r1
 364 0118 00F09680 		beq	.L78
 365              	.L37:
 366              		.loc 1 190 0 is_stmt 0 discriminator 1
 367 011c 5A78     		ldrb	r2, [r3, #1]	@ zero_extendqisi2
 368              		.loc 1 112 0 is_stmt 1 discriminator 1
 369 011e 03F1010B 		add	fp, r3, #1
 370              	.LVL50:
 371 0122 5B46     		mov	r3, fp
 372              		.loc 1 190 0 discriminator 1
 373 0124 002A     		cmp	r2, #0
 374 0126 F6D1     		bne	.L36
 375 0128 CAEB0B0B 		rsb	fp, sl, fp
 376              	.LVL51:
 377              		.loc 1 240 0
 378 012c CBEB0505 		rsb	r5, fp, r5
 379              	.LVL52:
 380              		.loc 1 185 0
 381 0130 4FF02008 		mov	r8, #32
 382              	.LVL53:
 383 0134 25EAE575 		bic	r5, r5, r5, asr #31
 384              	.LVL54:
 385              		.loc 1 242 0
 386 0138 B9F1000F 		cmp	r9, #0
 387 013c 29D0     		beq	.L79
 388              	.LVL55:
 389              	.L43:
 390              		.loc 1 253 0 discriminator 1
 391 013e BBF1000F 		cmp	fp, #0
 392              		.loc 1 112 0 discriminator 1
 393 0142 C8BF     		it	gt
 394 0144 0AEB0B09 		addgt	r9, sl, fp
 395              	.LVL56:
 396              		.loc 1 253 0 discriminator 1
 397 0148 07DD     		ble	.L49
 398              	.LVL57:
 399              	.L48:
ARM GAS  /var/folders/pt/gxfsd_x53tx3h6kb8dkzftl80000gr/T//ccixfiA9.s 			page 8


 400              		.loc 1 254 0
 401 014a 3368     		ldr	r3, [r6, #0]
 402 014c 1AF8011B 		ldrb	r1, [sl], #1	@ zero_extendqisi2
 403              	.LVL58:
 404 0150 9B68     		ldr	r3, [r3, #8]
 405 0152 3046     		mov	r0, r6
 406 0154 9847     		blx	r3
 407              	.LVL59:
 408              		.loc 1 253 0
 409 0156 CA45     		cmp	sl, r9
 410 0158 F7D1     		bne	.L48
 411              	.L49:
 412              	.LVL60:
 413              		.loc 1 256 0
 414 015a 002D     		cmp	r5, #0
 415 015c 3FF45FAF 		beq	.L69
 416              	.L62:
 417              		.loc 1 257 0
 418 0160 3368     		ldr	r3, [r6, #0]
 419 0162 3046     		mov	r0, r6
 420 0164 9B68     		ldr	r3, [r3, #8]
 421 0166 4146     		mov	r1, r8
 422 0168 9847     		blx	r3
 423              	.LVL61:
 424              		.loc 1 256 0
 425 016a 013D     		subs	r5, r5, #1
 426              	.LVL62:
 427 016c F8D1     		bne	.L62
 428 016e 56E7     		b	.L69
 429              	.LVL63:
 430              	.L30:
 431              		.loc 1 182 0
 432 0170 3B68     		ldr	r3, [r7, #0]
 433              	.LVL64:
 434 0172 DDF80CB0 		ldr	fp, [sp, #12]
 435 0176 8DF81430 		strb	r3, [sp, #20]
 436              	.LVL65:
 437 017a 0437     		adds	r7, r7, #4
 438              	.LVL66:
 439              		.loc 1 181 0
 440 017c 4FF02008 		mov	r8, #32
 441              		.loc 1 133 0
 442 0180 0DF1140A 		add	sl, sp, #20
 443              	.LVL67:
 444              	.L33:
 445              		.loc 1 240 0
 446 0184 CBEB0505 		rsb	r5, fp, r5
 447              	.LVL68:
 448 0188 25EAE575 		bic	r5, r5, r5, asr #31
 449              	.LVL69:
 450              		.loc 1 242 0
 451 018c B9F1000F 		cmp	r9, #0
 452 0190 D5D1     		bne	.L43
 453              	.LVL70:
 454              	.L79:
 455              		.loc 1 243 0
 456 0192 6D42     		negs	r5, r5
ARM GAS  /var/folders/pt/gxfsd_x53tx3h6kb8dkzftl80000gr/T//ccixfiA9.s 			page 9


 457              	.LVL71:
 458              		.loc 1 244 0
 459 0194 002D     		cmp	r5, #0
 460 0196 D2D0     		beq	.L43
 461              		.loc 1 245 0
 462 0198 9AF80010 		ldrb	r1, [sl, #0]	@ zero_extendqisi2
 463 019c 2D29     		cmp	r1, #45
 464 019e 47D0     		beq	.L80
 465              	.LVL72:
 466              	.L63:
 467              		.loc 1 250 0 discriminator 1
 468 01a0 3368     		ldr	r3, [r6, #0]
 469 01a2 3046     		mov	r0, r6
 470 01a4 9B68     		ldr	r3, [r3, #8]
 471 01a6 4146     		mov	r1, r8
 472 01a8 9847     		blx	r3
 473              	.LVL73:
 474              		.loc 1 251 0 discriminator 1
 475 01aa 0135     		adds	r5, r5, #1
 476              	.LVL74:
 477 01ac F8D1     		bne	.L63
 478 01ae C6E7     		b	.L43
 479              	.LVL75:
 480              	.L29:
 481              		.loc 1 179 0
 482 01b0 1022     		movs	r2, #16
 483              	.LVL76:
 484              	.L28:
 485              		.loc 1 230 0
 486 01b2 3968     		ldr	r1, [r7, #0]
 487              	.LVL77:
 488              	.LBB6:
 489              	.LBB7:
 490              		.loc 1 72 0
 491 01b4 05A8     		add	r0, sp, #20
 492 01b6 FFF7FEFF 		bl	long_to_string_with_divisor.constprop.0
 493              	.LVL78:
 494 01ba DDF808C0 		ldr	ip, [sp, #8]
 495              	.LBE7:
 496              	.LBE6:
 497              		.loc 1 230 0
 498 01be 0437     		adds	r7, r7, #4
 499              	.LVL79:
 500              		.loc 1 133 0
 501 01c0 0DF1140A 		add	sl, sp, #20
 502 01c4 CCEB000B 		rsb	fp, ip, r0
 503              		.loc 1 234 0
 504 01c8 DCE7     		b	.L33
 505              	.LVL80:
 506              	.L55:
 507              		.loc 1 179 0
 508 01ca 0A22     		movs	r2, #10
 509 01cc F1E7     		b	.L28
 510              	.L27:
 511              	.LVL81:
 512 01ce 0822     		movs	r2, #8
 513 01d0 EFE7     		b	.L28
ARM GAS  /var/folders/pt/gxfsd_x53tx3h6kb8dkzftl80000gr/T//ccixfiA9.s 			page 10


 514              	.LVL82:
 515              	.L26:
 516              		.loc 1 198 0
 517 01d2 3968     		ldr	r1, [r7, #0]
 518              	.LVL83:
 519 01d4 0437     		adds	r7, r7, #4
 520              	.LVL84:
 521              		.loc 1 201 0
 522 01d6 0029     		cmp	r1, #0
 523              		.loc 1 132 0
 524 01d8 A8BF     		it	ge
 525 01da 05A8     		addge	r0, sp, #20
 526              		.loc 1 201 0
 527 01dc 39DB     		blt	.L81
 528              	.LVL85:
 529              	.L40:
 530              	.LBB8:
 531              	.LBB9:
 532              		.loc 1 72 0
 533 01de 0A22     		movs	r2, #10
 534              	.LVL86:
 535 01e0 FFF7FEFF 		bl	long_to_string_with_divisor.constprop.0
 536              	.LVL87:
 537 01e4 029B     		ldr	r3, [sp, #8]
 538              	.LBE9:
 539              	.LBE8:
 540              		.loc 1 133 0
 541 01e6 0DF1140A 		add	sl, sp, #20
 542 01ea C3EB000B 		rsb	fp, r3, r0
 543              		.loc 1 206 0
 544 01ee C9E7     		b	.L33
 545              	.LVL88:
 546              	.L25:
 547              		.loc 1 236 0
 548 01f0 8DF81430 		strb	r3, [sp, #20]
 549              	.LVL89:
 550 01f4 DDF80CB0 		ldr	fp, [sp, #12]
 551              		.loc 1 133 0
 552 01f8 0DF1140A 		add	sl, sp, #20
 553              		.loc 1 237 0
 554 01fc C2E7     		b	.L33
 555              	.LVL90:
 556              	.L77:
 557 01fe 2046     		mov	r0, r4
 558              		.loc 1 156 0
 559 0200 0021     		movs	r1, #0
 560 0202 03E0     		b	.L22
 561              	.LVL91:
 562              	.L82:
 563              		.loc 1 162 0
 564 0204 3A78     		ldrb	r2, [r7, #0]	@ zero_extendqisi2
 565              	.LVL92:
 566 0206 0437     		adds	r7, r7, #4
 567              	.LVL93:
 568              	.L21:
 569              		.loc 1 166 0
 570 0208 02EB4C01 		add	r1, r2, ip, lsl #1
ARM GAS  /var/folders/pt/gxfsd_x53tx3h6kb8dkzftl80000gr/T//ccixfiA9.s 			page 11


 571              	.LVL94:
 572              	.L22:
 573              		.loc 1 158 0
 574 020c 10F8013B 		ldrb	r3, [r0], #1	@ zero_extendqisi2
 575              	.LVL95:
 576              		.loc 1 165 0
 577 0210 01EB810C 		add	ip, r1, r1, lsl #2
 578              		.loc 1 159 0
 579 0214 A3F13002 		sub	r2, r3, #48
 580 0218 D2B2     		uxtb	r2, r2
 581 021a 092A     		cmp	r2, #9
 582              		.loc 1 158 0
 583 021c 0446     		mov	r4, r0
 584              	.LVL96:
 585              		.loc 1 159 0
 586 021e F3D9     		bls	.L21
 587              		.loc 1 161 0
 588 0220 2A2B     		cmp	r3, #42
 589 0222 EFD0     		beq	.L82
 590 0224 35E7     		b	.L20
 591              	.LVL97:
 592              	.L75:
 593              		.loc 1 136 0
 594 0226 A51C     		adds	r5, r4, #2
 595              	.LVL98:
 596 0228 A378     		ldrb	r3, [r4, #2]	@ zero_extendqisi2
 597              		.loc 1 137 0
 598 022a 4FF00109 		mov	r9, #1
 599 022e 10E7     		b	.L15
 600              	.LVL99:
 601              	.L80:
 602              		.loc 1 245 0 discriminator 1
 603 0230 B8F1300F 		cmp	r8, #48
 604 0234 B4D1     		bne	.L63
 605              		.loc 1 246 0
 606 0236 3368     		ldr	r3, [r6, #0]
 607 0238 3046     		mov	r0, r6
 608 023a 9B68     		ldr	r3, [r3, #8]
 609 023c 9847     		blx	r3
 610              	.LVL100:
 611 023e 0AF1010A 		add	sl, sl, #1
 612              	.LVL101:
 613              		.loc 1 247 0
 614 0242 0BF1FF3B 		add	fp, fp, #-1
 615              	.LVL102:
 616 0246 ABE7     		b	.L63
 617              	.LVL103:
 618              	.L78:
 619 0248 CAEB0B0B 		rsb	fp, sl, fp
 620              		.loc 1 185 0
 621 024c 4FF02008 		mov	r8, #32
 622 0250 98E7     		b	.L33
 623              	.LVL104:
 624              	.L81:
 625              		.loc 1 202 0
 626 0252 2D23     		movs	r3, #45
 627              	.LVL105:
ARM GAS  /var/folders/pt/gxfsd_x53tx3h6kb8dkzftl80000gr/T//ccixfiA9.s 			page 12


 628 0254 8DF81430 		strb	r3, [sp, #20]
 629              	.LVL106:
 630              		.loc 1 203 0
 631 0258 4942     		negs	r1, r1
 632              	.LVL107:
 633              		.loc 1 202 0
 634 025a 0DF11500 		add	r0, sp, #21
 635 025e BEE7     		b	.L40
 636              	.LVL108:
 637              	.L58:
 638              		.loc 1 190 0
 639 0260 9B46     		mov	fp, r3
 640              		.loc 1 185 0
 641 0262 4FF02008 		mov	r8, #32
 642 0266 8DE7     		b	.L33
 643              		.cfi_endproc
 644              	.LFE10:
 645              		.size	chvprintf, .-chvprintf
 646 0268 AFF30080 		.section	.text.chsnprintf,"ax",%progbits
 646      AFF30080 
 647              		.align	2
 648              		.p2align 4,,15
 649              		.global	chsnprintf
 650              		.thumb
 651              		.thumb_func
 652              		.type	chsnprintf, %function
 653              	chsnprintf:
 654              	.LFB11:
 655              		.loc 1 288 0
 656              		.cfi_startproc
 657              		@ args = 4, pretend = 8, frame = 24
 658              		@ frame_needed = 0, uses_anonymous_args = 1
 659              	.LVL109:
 660 0000 0CB4     		push	{r2, r3}
 661              	.LCFI3:
 662              		.cfi_def_cfa_offset 8
 663              		.cfi_offset 2, -8
 664              		.cfi_offset 3, -4
 665 0002 70B5     		push	{r4, r5, r6, lr}
 666              	.LCFI4:
 667              		.cfi_def_cfa_offset 24
 668              		.cfi_offset 4, -24
 669              		.cfi_offset 5, -20
 670              		.cfi_offset 6, -16
 671              		.cfi_offset 14, -12
 672 0004 86B0     		sub	sp, sp, #24
 673              	.LCFI5:
 674              		.cfi_def_cfa_offset 48
 675              		.loc 1 288 0
 676 0006 0AAC     		add	r4, sp, #40
 677 0008 54F8045B 		ldr	r5, [r4], #4
 678 000c 0646     		mov	r6, r0
 679              		.loc 1 294 0
 680 000e 0023     		movs	r3, #0
 681              		.loc 1 288 0
 682 0010 0A46     		mov	r2, r1
 683              		.loc 1 294 0
ARM GAS  /var/folders/pt/gxfsd_x53tx3h6kb8dkzftl80000gr/T//ccixfiA9.s 			page 13


 684 0012 01A8     		add	r0, sp, #4
 685              	.LVL110:
 686 0014 3146     		mov	r1, r6
 687              	.LVL111:
 688 0016 FFF7FEFF 		bl	msObjectInit
 689              	.LVL112:
 690              		.loc 1 299 0
 691 001a 01A8     		add	r0, sp, #4
 692              	.LVL113:
 693 001c 2946     		mov	r1, r5
 694 001e 2246     		mov	r2, r4
 695              		.loc 1 298 0
 696 0020 0094     		str	r4, [sp, #0]
 697              		.loc 1 299 0
 698 0022 FFF7FEFF 		bl	chvprintf
 699              	.LVL114:
 700              		.loc 1 303 0
 701 0026 019B     		ldr	r3, [sp, #4]
 702 0028 01A8     		add	r0, sp, #4
 703              	.LVL115:
 704 002a 9B68     		ldr	r3, [r3, #8]
 705 002c 0021     		movs	r1, #0
 706 002e 9847     		blx	r3
 707              	.LVL116:
 708              		.loc 1 304 0
 709 0030 0498     		ldr	r0, [sp, #16]
 710              		.loc 1 305 0
 711 0032 0138     		subs	r0, r0, #1
 712 0034 06B0     		add	sp, sp, #24
 713 0036 BDE87040 		pop	{r4, r5, r6, lr}
 714 003a 02B0     		add	sp, sp, #8
 715 003c 7047     		bx	lr
 716              		.cfi_endproc
 717              	.LFE11:
 718              		.size	chsnprintf, .-chsnprintf
 719              		.section	.rodata.str1.4,"aMS",%progbits,1
 720              		.align	2
 721              	.LC0:
 722 0000 286E756C 		.ascii	"(null)\000"
 722      6C2900
 723 0007 00       		.text
 724              	.Letext0:
 725              		.file 2 "/Users/programmer/ConVEX/yagarto-4.7.2/bin/../lib/gcc/arm-none-eabi/4.7.2/include/stddef.
 726              		.file 3 "/Users/programmer/ConVEX/yagarto-4.7.2/bin/../lib/gcc/arm-none-eabi/4.7.2/../../../../arm
 727              		.file 4 "convex/ChibiOS_2.6.2/os/ports/GCC/ARMCMx/chtypes.h"
 728              		.file 5 "convex/ChibiOS_2.6.2/os/kernel/include/chstreams.h"
 729              		.file 6 "/Users/programmer/ConVEX/yagarto-4.7.2/bin/../lib/gcc/arm-none-eabi/4.7.2/include/stdarg.
 730              		.file 7 "<built-in>"
 731              		.file 8 "convex/ChibiOS_2.6.2/os/various/memstreams.h"