ARM GAS  /var/folders/pt/gxfsd_x53tx3h6kb8dkzftl80000gr/T//cc2dqnrC.s 			page 1


   1              		.syntax unified
   2              		.cpu cortex-m3
   3              		.fpu softvfp
   4              		.eabi_attribute 20, 1
   5              		.eabi_attribute 21, 1
   6              		.eabi_attribute 23, 3
   7              		.eabi_attribute 24, 1
   8              		.eabi_attribute 25, 1
   9              		.eabi_attribute 26, 1
  10              		.eabi_attribute 30, 2
  11              		.eabi_attribute 34, 1
  12              		.eabi_attribute 18, 4
  13              		.thumb
  14              		.file	"ext_lld_isr.c"
  15              		.text
  16              	.Ltext0:
  17              		.cfi_sections	.debug_frame
  18              		.section	.text.Vector58,"ax",%progbits
  19              		.align	2
  20              		.p2align 4,,15
  21              		.global	Vector58
  22              		.thumb
  23              		.thumb_func
  24              		.type	Vector58, %function
  25              	Vector58:
  26              	.LFB63:
  27              		.file 1 "convex/ChibiOS_2.6.2/os/hal/platforms/STM32F1xx/ext_lld_isr.c"
  28              		.loc 1 57 0
  29              		.cfi_startproc
  30              		@ args = 0, pretend = 0, frame = 0
  31              		@ frame_needed = 0, uses_anonymous_args = 0
  32              		.loc 1 62 0
  33 0000 40F20000 		movw	r0, #:lower16:EXTD1
  34 0004 C0F20000 		movt	r0, #:upper16:EXTD1
  35              		.loc 1 57 0
  36 0008 08B5     		push	{r3, lr}
  37              	.LCFI0:
  38              		.cfi_def_cfa_offset 8
  39              		.cfi_offset 3, -8
  40              		.cfi_offset 14, -4
  41              		.loc 1 62 0
  42 000a 4268     		ldr	r2, [r0, #4]
  43              		.loc 1 61 0
  44 000c 4FF48063 		mov	r3, #1024
  45 0010 0121     		movs	r1, #1
  46 0012 C4F20103 		movt	r3, 16385
  47 0016 5961     		str	r1, [r3, #20]
  48              		.loc 1 62 0
  49 0018 5368     		ldr	r3, [r2, #4]
  50 001a 0021     		movs	r1, #0
  51 001c 9847     		blx	r3
  52              	.LVL0:
  53              		.loc 1 65 0
  54 001e BDE80840 		pop	{r3, lr}
  55              		.loc 1 64 0
  56 0022 FFF7FEBF 		b	_port_irq_epilogue
  57              	.LVL1:
ARM GAS  /var/folders/pt/gxfsd_x53tx3h6kb8dkzftl80000gr/T//cc2dqnrC.s 			page 2


  58              		.cfi_endproc
  59              	.LFE63:
  60              		.size	Vector58, .-Vector58
  61 0026 00BFAFF3 		.section	.text.Vector5C,"ax",%progbits
  61      0080AFF3 
  61      0080
  62              		.align	2
  63              		.p2align 4,,15
  64              		.global	Vector5C
  65              		.thumb
  66              		.thumb_func
  67              		.type	Vector5C, %function
  68              	Vector5C:
  69              	.LFB64:
  70              		.loc 1 72 0
  71              		.cfi_startproc
  72              		@ args = 0, pretend = 0, frame = 0
  73              		@ frame_needed = 0, uses_anonymous_args = 0
  74              		.loc 1 77 0
  75 0000 40F20000 		movw	r0, #:lower16:EXTD1
  76 0004 C0F20000 		movt	r0, #:upper16:EXTD1
  77              		.loc 1 72 0
  78 0008 08B5     		push	{r3, lr}
  79              	.LCFI1:
  80              		.cfi_def_cfa_offset 8
  81              		.cfi_offset 3, -8
  82              		.cfi_offset 14, -4
  83              		.loc 1 77 0
  84 000a 4268     		ldr	r2, [r0, #4]
  85              		.loc 1 76 0
  86 000c 4FF48063 		mov	r3, #1024
  87 0010 0221     		movs	r1, #2
  88 0012 C4F20103 		movt	r3, 16385
  89 0016 5961     		str	r1, [r3, #20]
  90              		.loc 1 77 0
  91 0018 D368     		ldr	r3, [r2, #12]
  92 001a 0121     		movs	r1, #1
  93 001c 9847     		blx	r3
  94              	.LVL2:
  95              		.loc 1 80 0
  96 001e BDE80840 		pop	{r3, lr}
  97              		.loc 1 79 0
  98 0022 FFF7FEBF 		b	_port_irq_epilogue
  99              	.LVL3:
 100              		.cfi_endproc
 101              	.LFE64:
 102              		.size	Vector5C, .-Vector5C
 103 0026 00BFAFF3 		.section	.text.Vector60,"ax",%progbits
 103      0080AFF3 
 103      0080
 104              		.align	2
 105              		.p2align 4,,15
 106              		.global	Vector60
 107              		.thumb
 108              		.thumb_func
 109              		.type	Vector60, %function
 110              	Vector60:
ARM GAS  /var/folders/pt/gxfsd_x53tx3h6kb8dkzftl80000gr/T//cc2dqnrC.s 			page 3


 111              	.LFB65:
 112              		.loc 1 87 0
 113              		.cfi_startproc
 114              		@ args = 0, pretend = 0, frame = 0
 115              		@ frame_needed = 0, uses_anonymous_args = 0
 116              		.loc 1 92 0
 117 0000 40F20000 		movw	r0, #:lower16:EXTD1
 118 0004 C0F20000 		movt	r0, #:upper16:EXTD1
 119              		.loc 1 87 0
 120 0008 08B5     		push	{r3, lr}
 121              	.LCFI2:
 122              		.cfi_def_cfa_offset 8
 123              		.cfi_offset 3, -8
 124              		.cfi_offset 14, -4
 125              		.loc 1 92 0
 126 000a 4268     		ldr	r2, [r0, #4]
 127              		.loc 1 91 0
 128 000c 4FF48063 		mov	r3, #1024
 129 0010 0421     		movs	r1, #4
 130 0012 C4F20103 		movt	r3, 16385
 131 0016 5961     		str	r1, [r3, #20]
 132              		.loc 1 92 0
 133 0018 5369     		ldr	r3, [r2, #20]
 134 001a 0221     		movs	r1, #2
 135 001c 9847     		blx	r3
 136              	.LVL4:
 137              		.loc 1 95 0
 138 001e BDE80840 		pop	{r3, lr}
 139              		.loc 1 94 0
 140 0022 FFF7FEBF 		b	_port_irq_epilogue
 141              	.LVL5:
 142              		.cfi_endproc
 143              	.LFE65:
 144              		.size	Vector60, .-Vector60
 145 0026 00BFAFF3 		.section	.text.Vector64,"ax",%progbits
 145      0080AFF3 
 145      0080
 146              		.align	2
 147              		.p2align 4,,15
 148              		.global	Vector64
 149              		.thumb
 150              		.thumb_func
 151              		.type	Vector64, %function
 152              	Vector64:
 153              	.LFB66:
 154              		.loc 1 102 0
 155              		.cfi_startproc
 156              		@ args = 0, pretend = 0, frame = 0
 157              		@ frame_needed = 0, uses_anonymous_args = 0
 158              		.loc 1 107 0
 159 0000 40F20000 		movw	r0, #:lower16:EXTD1
 160 0004 C0F20000 		movt	r0, #:upper16:EXTD1
 161              		.loc 1 102 0
 162 0008 08B5     		push	{r3, lr}
 163              	.LCFI3:
 164              		.cfi_def_cfa_offset 8
 165              		.cfi_offset 3, -8
ARM GAS  /var/folders/pt/gxfsd_x53tx3h6kb8dkzftl80000gr/T//cc2dqnrC.s 			page 4


 166              		.cfi_offset 14, -4
 167              		.loc 1 107 0
 168 000a 4268     		ldr	r2, [r0, #4]
 169              		.loc 1 106 0
 170 000c 4FF48063 		mov	r3, #1024
 171 0010 0821     		movs	r1, #8
 172 0012 C4F20103 		movt	r3, 16385
 173 0016 5961     		str	r1, [r3, #20]
 174              		.loc 1 107 0
 175 0018 D369     		ldr	r3, [r2, #28]
 176 001a 0321     		movs	r1, #3
 177 001c 9847     		blx	r3
 178              	.LVL6:
 179              		.loc 1 110 0
 180 001e BDE80840 		pop	{r3, lr}
 181              		.loc 1 109 0
 182 0022 FFF7FEBF 		b	_port_irq_epilogue
 183              	.LVL7:
 184              		.cfi_endproc
 185              	.LFE66:
 186              		.size	Vector64, .-Vector64
 187 0026 00BFAFF3 		.section	.text.Vector68,"ax",%progbits
 187      0080AFF3 
 187      0080
 188              		.align	2
 189              		.p2align 4,,15
 190              		.global	Vector68
 191              		.thumb
 192              		.thumb_func
 193              		.type	Vector68, %function
 194              	Vector68:
 195              	.LFB67:
 196              		.loc 1 117 0
 197              		.cfi_startproc
 198              		@ args = 0, pretend = 0, frame = 0
 199              		@ frame_needed = 0, uses_anonymous_args = 0
 200              		.loc 1 122 0
 201 0000 40F20000 		movw	r0, #:lower16:EXTD1
 202 0004 C0F20000 		movt	r0, #:upper16:EXTD1
 203              		.loc 1 117 0
 204 0008 08B5     		push	{r3, lr}
 205              	.LCFI4:
 206              		.cfi_def_cfa_offset 8
 207              		.cfi_offset 3, -8
 208              		.cfi_offset 14, -4
 209              		.loc 1 122 0
 210 000a 4268     		ldr	r2, [r0, #4]
 211              		.loc 1 121 0
 212 000c 4FF48063 		mov	r3, #1024
 213 0010 1021     		movs	r1, #16
 214 0012 C4F20103 		movt	r3, 16385
 215 0016 5961     		str	r1, [r3, #20]
 216              		.loc 1 122 0
 217 0018 536A     		ldr	r3, [r2, #36]
 218 001a 0421     		movs	r1, #4
 219 001c 9847     		blx	r3
 220              	.LVL8:
ARM GAS  /var/folders/pt/gxfsd_x53tx3h6kb8dkzftl80000gr/T//cc2dqnrC.s 			page 5


 221              		.loc 1 125 0
 222 001e BDE80840 		pop	{r3, lr}
 223              		.loc 1 124 0
 224 0022 FFF7FEBF 		b	_port_irq_epilogue
 225              	.LVL9:
 226              		.cfi_endproc
 227              	.LFE67:
 228              		.size	Vector68, .-Vector68
 229 0026 00BFAFF3 		.section	.text.Vector9C,"ax",%progbits
 229      0080AFF3 
 229      0080
 230              		.align	2
 231              		.p2align 4,,15
 232              		.global	Vector9C
 233              		.thumb
 234              		.thumb_func
 235              		.type	Vector9C, %function
 236              	Vector9C:
 237              	.LFB68:
 238              		.loc 1 132 0
 239              		.cfi_startproc
 240              		@ args = 0, pretend = 0, frame = 0
 241              		@ frame_needed = 0, uses_anonymous_args = 0
 242              		.loc 1 137 0
 243 0000 4FF48063 		mov	r3, #1024
 244 0004 C4F20103 		movt	r3, 16385
 245              		.loc 1 132 0
 246 0008 10B5     		push	{r4, lr}
 247              	.LCFI5:
 248              		.cfi_def_cfa_offset 8
 249              		.cfi_offset 4, -8
 250              		.cfi_offset 14, -4
 251              		.loc 1 137 0
 252 000a 5C69     		ldr	r4, [r3, #20]
 253 000c 04F47872 		and	r2, r4, #992
 254              	.LVL10:
 255              		.loc 1 138 0
 256 0010 5A61     		str	r2, [r3, #20]
 257              		.loc 1 139 0
 258 0012 A306     		lsls	r3, r4, #26
 259 0014 22D4     		bmi	.L28
 260              	.LVL11:
 261              	.L7:
 262              		.loc 1 141 0
 263 0016 6006     		lsls	r0, r4, #25
 264 0018 1AD4     		bmi	.L29
 265              	.L8:
 266              		.loc 1 143 0
 267 001a 2106     		lsls	r1, r4, #24
 268 001c 12D4     		bmi	.L30
 269              	.L9:
 270              		.loc 1 145 0
 271 001e E205     		lsls	r2, r4, #23
 272 0020 0AD4     		bmi	.L31
 273              	.L10:
 274              		.loc 1 147 0
 275 0022 A305     		lsls	r3, r4, #22
ARM GAS  /var/folders/pt/gxfsd_x53tx3h6kb8dkzftl80000gr/T//cc2dqnrC.s 			page 6


 276 0024 04D5     		bpl	.L11
 277              		.loc 1 148 0
 278 0026 1048     		ldr	r0, .L32
 279 0028 0921     		movs	r1, #9
 280 002a 4368     		ldr	r3, [r0, #4]
 281 002c DB6C     		ldr	r3, [r3, #76]
 282 002e 9847     		blx	r3
 283              	.LVL12:
 284              	.L11:
 285              		.loc 1 151 0
 286 0030 BDE81040 		pop	{r4, lr}
 287              		.loc 1 150 0
 288 0034 FFF7FEBF 		b	_port_irq_epilogue
 289              	.LVL13:
 290              	.L31:
 291              		.loc 1 146 0
 292 0038 0B48     		ldr	r0, .L32
 293 003a 0821     		movs	r1, #8
 294 003c 4368     		ldr	r3, [r0, #4]
 295 003e 5B6C     		ldr	r3, [r3, #68]
 296 0040 9847     		blx	r3
 297              	.LVL14:
 298 0042 EEE7     		b	.L10
 299              	.L30:
 300              		.loc 1 144 0
 301 0044 0848     		ldr	r0, .L32
 302 0046 0721     		movs	r1, #7
 303 0048 4368     		ldr	r3, [r0, #4]
 304 004a DB6B     		ldr	r3, [r3, #60]
 305 004c 9847     		blx	r3
 306              	.LVL15:
 307 004e E6E7     		b	.L9
 308              	.L29:
 309              		.loc 1 142 0
 310 0050 0548     		ldr	r0, .L32
 311 0052 0621     		movs	r1, #6
 312 0054 4368     		ldr	r3, [r0, #4]
 313 0056 5B6B     		ldr	r3, [r3, #52]
 314 0058 9847     		blx	r3
 315              	.LVL16:
 316 005a DEE7     		b	.L8
 317              	.LVL17:
 318              	.L28:
 319              		.loc 1 140 0
 320 005c 0248     		ldr	r0, .L32
 321 005e 0521     		movs	r1, #5
 322 0060 4368     		ldr	r3, [r0, #4]
 323 0062 DB6A     		ldr	r3, [r3, #44]
 324 0064 9847     		blx	r3
 325              	.LVL18:
 326 0066 D6E7     		b	.L7
 327              	.L33:
 328              		.align	2
 329              	.L32:
 330 0068 00000000 		.word	EXTD1
 331              		.cfi_endproc
 332              	.LFE68:
ARM GAS  /var/folders/pt/gxfsd_x53tx3h6kb8dkzftl80000gr/T//cc2dqnrC.s 			page 7


 333              		.size	Vector9C, .-Vector9C
 334 006c AFF30080 		.section	.text.VectorE0,"ax",%progbits
 335              		.align	2
 336              		.p2align 4,,15
 337              		.global	VectorE0
 338              		.thumb
 339              		.thumb_func
 340              		.type	VectorE0, %function
 341              	VectorE0:
 342              	.LFB69:
 343              		.loc 1 158 0
 344              		.cfi_startproc
 345              		@ args = 0, pretend = 0, frame = 0
 346              		@ frame_needed = 0, uses_anonymous_args = 0
 347              		.loc 1 163 0
 348 0000 4FF48063 		mov	r3, #1024
 349 0004 C4F20103 		movt	r3, 16385
 350              		.loc 1 158 0
 351 0008 10B5     		push	{r4, lr}
 352              	.LCFI6:
 353              		.cfi_def_cfa_offset 8
 354              		.cfi_offset 4, -8
 355              		.cfi_offset 14, -4
 356              		.loc 1 163 0
 357 000a 5C69     		ldr	r4, [r3, #20]
 358 000c 04F47C42 		and	r2, r4, #64512
 359              	.LVL19:
 360              		.loc 1 166 0
 361 0010 6105     		lsls	r1, r4, #21
 362              		.loc 1 165 0
 363 0012 5A61     		str	r2, [r3, #20]
 364              		.loc 1 166 0
 365 0014 2AD4     		bmi	.L59
 366              	.LVL20:
 367              	.L35:
 368              		.loc 1 168 0
 369 0016 2205     		lsls	r2, r4, #20
 370 0018 22D4     		bmi	.L60
 371              	.L36:
 372              		.loc 1 170 0
 373 001a E304     		lsls	r3, r4, #19
 374 001c 1AD4     		bmi	.L61
 375              	.L37:
 376              		.loc 1 172 0
 377 001e A004     		lsls	r0, r4, #18
 378 0020 12D4     		bmi	.L62
 379              	.L38:
 380              		.loc 1 174 0
 381 0022 6104     		lsls	r1, r4, #17
 382 0024 0AD4     		bmi	.L63
 383              	.L39:
 384              		.loc 1 176 0
 385 0026 2204     		lsls	r2, r4, #16
 386 0028 04D5     		bpl	.L40
 387              		.loc 1 177 0
 388 002a 1348     		ldr	r0, .L64
 389 002c 0F21     		movs	r1, #15
ARM GAS  /var/folders/pt/gxfsd_x53tx3h6kb8dkzftl80000gr/T//cc2dqnrC.s 			page 8


 390 002e 4368     		ldr	r3, [r0, #4]
 391 0030 DB6F     		ldr	r3, [r3, #124]
 392 0032 9847     		blx	r3
 393              	.LVL21:
 394              	.L40:
 395              		.loc 1 180 0
 396 0034 BDE81040 		pop	{r4, lr}
 397              		.loc 1 179 0
 398 0038 FFF7FEBF 		b	_port_irq_epilogue
 399              	.LVL22:
 400              	.L63:
 401              		.loc 1 175 0
 402 003c 0E48     		ldr	r0, .L64
 403 003e 0E21     		movs	r1, #14
 404 0040 4368     		ldr	r3, [r0, #4]
 405 0042 5B6F     		ldr	r3, [r3, #116]
 406 0044 9847     		blx	r3
 407              	.LVL23:
 408 0046 EEE7     		b	.L39
 409              	.L62:
 410              		.loc 1 173 0
 411 0048 0B48     		ldr	r0, .L64
 412 004a 0D21     		movs	r1, #13
 413 004c 4368     		ldr	r3, [r0, #4]
 414 004e DB6E     		ldr	r3, [r3, #108]
 415 0050 9847     		blx	r3
 416              	.LVL24:
 417 0052 E6E7     		b	.L38
 418              	.L61:
 419              		.loc 1 171 0
 420 0054 0848     		ldr	r0, .L64
 421 0056 0C21     		movs	r1, #12
 422 0058 4368     		ldr	r3, [r0, #4]
 423 005a 5B6E     		ldr	r3, [r3, #100]
 424 005c 9847     		blx	r3
 425              	.LVL25:
 426 005e DEE7     		b	.L37
 427              	.L60:
 428              		.loc 1 169 0
 429 0060 0548     		ldr	r0, .L64
 430 0062 0B21     		movs	r1, #11
 431 0064 4368     		ldr	r3, [r0, #4]
 432 0066 DB6D     		ldr	r3, [r3, #92]
 433 0068 9847     		blx	r3
 434              	.LVL26:
 435 006a D6E7     		b	.L36
 436              	.LVL27:
 437              	.L59:
 438              		.loc 1 167 0
 439 006c 0248     		ldr	r0, .L64
 440 006e 0A21     		movs	r1, #10
 441 0070 4368     		ldr	r3, [r0, #4]
 442 0072 5B6D     		ldr	r3, [r3, #84]
 443 0074 9847     		blx	r3
 444              	.LVL28:
 445 0076 CEE7     		b	.L35
 446              	.L65:
ARM GAS  /var/folders/pt/gxfsd_x53tx3h6kb8dkzftl80000gr/T//cc2dqnrC.s 			page 9


 447              		.align	2
 448              	.L64:
 449 0078 00000000 		.word	EXTD1
 450              		.cfi_endproc
 451              	.LFE69:
 452              		.size	VectorE0, .-VectorE0
 453 007c AFF30080 		.section	.text.Vector44,"ax",%progbits
 454              		.align	2
 455              		.p2align 4,,15
 456              		.global	Vector44
 457              		.thumb
 458              		.thumb_func
 459              		.type	Vector44, %function
 460              	Vector44:
 461              	.LFB70:
 462              		.loc 1 187 0
 463              		.cfi_startproc
 464              		@ args = 0, pretend = 0, frame = 0
 465              		@ frame_needed = 0, uses_anonymous_args = 0
 466              		.loc 1 192 0
 467 0000 40F20000 		movw	r0, #:lower16:EXTD1
 468 0004 C0F20000 		movt	r0, #:upper16:EXTD1
 469              		.loc 1 187 0
 470 0008 08B5     		push	{r3, lr}
 471              	.LCFI7:
 472              		.cfi_def_cfa_offset 8
 473              		.cfi_offset 3, -8
 474              		.cfi_offset 14, -4
 475              		.loc 1 192 0
 476 000a 4268     		ldr	r2, [r0, #4]
 477              		.loc 1 191 0
 478 000c 4FF48063 		mov	r3, #1024
 479 0010 C4F20103 		movt	r3, 16385
 480 0014 4FF48031 		mov	r1, #65536
 481 0018 5961     		str	r1, [r3, #20]
 482              		.loc 1 192 0
 483 001a D2F88430 		ldr	r3, [r2, #132]
 484 001e 1021     		movs	r1, #16
 485 0020 9847     		blx	r3
 486              	.LVL29:
 487              		.loc 1 195 0
 488 0022 BDE80840 		pop	{r3, lr}
 489              		.loc 1 194 0
 490 0026 FFF7FEBF 		b	_port_irq_epilogue
 491              	.LVL30:
 492              		.cfi_endproc
 493              	.LFE70:
 494              		.size	Vector44, .-Vector44
 495 002a 00BFAFF3 		.section	.text.VectorE4,"ax",%progbits
 495      0080
 496              		.align	2
 497              		.p2align 4,,15
 498              		.global	VectorE4
 499              		.thumb
 500              		.thumb_func
 501              		.type	VectorE4, %function
 502              	VectorE4:
ARM GAS  /var/folders/pt/gxfsd_x53tx3h6kb8dkzftl80000gr/T//cc2dqnrC.s 			page 10


 503              	.LFB71:
 504              		.loc 1 202 0
 505              		.cfi_startproc
 506              		@ args = 0, pretend = 0, frame = 0
 507              		@ frame_needed = 0, uses_anonymous_args = 0
 508              		.loc 1 207 0
 509 0000 40F20000 		movw	r0, #:lower16:EXTD1
 510 0004 C0F20000 		movt	r0, #:upper16:EXTD1
 511              		.loc 1 202 0
 512 0008 08B5     		push	{r3, lr}
 513              	.LCFI8:
 514              		.cfi_def_cfa_offset 8
 515              		.cfi_offset 3, -8
 516              		.cfi_offset 14, -4
 517              		.loc 1 207 0
 518 000a 4268     		ldr	r2, [r0, #4]
 519              		.loc 1 206 0
 520 000c 4FF48063 		mov	r3, #1024
 521 0010 C4F20103 		movt	r3, 16385
 522 0014 4FF40031 		mov	r1, #131072
 523 0018 5961     		str	r1, [r3, #20]
 524              		.loc 1 207 0
 525 001a D2F88C30 		ldr	r3, [r2, #140]
 526 001e 1121     		movs	r1, #17
 527 0020 9847     		blx	r3
 528              	.LVL31:
 529              		.loc 1 210 0
 530 0022 BDE80840 		pop	{r3, lr}
 531              		.loc 1 209 0
 532 0026 FFF7FEBF 		b	_port_irq_epilogue
 533              	.LVL32:
 534              		.cfi_endproc
 535              	.LFE71:
 536              		.size	VectorE4, .-VectorE4
 537 002a 00BFAFF3 		.section	.text.VectorE8,"ax",%progbits
 537      0080
 538              		.align	2
 539              		.p2align 4,,15
 540              		.global	VectorE8
 541              		.thumb
 542              		.thumb_func
 543              		.type	VectorE8, %function
 544              	VectorE8:
 545              	.LFB72:
 546              		.loc 1 251 0
 547              		.cfi_startproc
 548              		@ args = 0, pretend = 0, frame = 0
 549              		@ frame_needed = 0, uses_anonymous_args = 0
 550              		.loc 1 256 0
 551 0000 40F20000 		movw	r0, #:lower16:EXTD1
 552 0004 C0F20000 		movt	r0, #:upper16:EXTD1
 553              		.loc 1 251 0
 554 0008 08B5     		push	{r3, lr}
 555              	.LCFI9:
 556              		.cfi_def_cfa_offset 8
 557              		.cfi_offset 3, -8
 558              		.cfi_offset 14, -4
ARM GAS  /var/folders/pt/gxfsd_x53tx3h6kb8dkzftl80000gr/T//cc2dqnrC.s 			page 11


 559              		.loc 1 256 0
 560 000a 4268     		ldr	r2, [r0, #4]
 561              		.loc 1 255 0
 562 000c 4FF48063 		mov	r3, #1024
 563 0010 C4F20103 		movt	r3, 16385
 564 0014 4FF48021 		mov	r1, #262144
 565 0018 5961     		str	r1, [r3, #20]
 566              		.loc 1 256 0
 567 001a D2F89430 		ldr	r3, [r2, #148]
 568 001e 1221     		movs	r1, #18
 569 0020 9847     		blx	r3
 570              	.LVL33:
 571              		.loc 1 259 0
 572 0022 BDE80840 		pop	{r3, lr}
 573              		.loc 1 258 0
 574 0026 FFF7FEBF 		b	_port_irq_epilogue
 575              	.LVL34:
 576              		.cfi_endproc
 577              	.LFE72:
 578              		.size	VectorE8, .-VectorE8
 579 002a 00BFAFF3 		.section	.text.ext_lld_exti_irq_enable,"ax",%progbits
 579      0080
 580              		.align	2
 581              		.p2align 4,,15
 582              		.global	ext_lld_exti_irq_enable
 583              		.thumb
 584              		.thumb_func
 585              		.type	ext_lld_exti_irq_enable, %function
 586              	ext_lld_exti_irq_enable:
 587              	.LFB73:
 588              		.loc 1 271 0
 589              		.cfi_startproc
 590              		@ args = 0, pretend = 0, frame = 0
 591              		@ frame_needed = 0, uses_anonymous_args = 0
 592 0000 08B5     		push	{r3, lr}
 593              	.LCFI10:
 594              		.cfi_def_cfa_offset 8
 595              		.cfi_offset 3, -8
 596              		.cfi_offset 14, -4
 597              		.loc 1 273 0
 598 0002 0620     		movs	r0, #6
 599 0004 6021     		movs	r1, #96
 600 0006 FFF7FEFF 		bl	nvicEnableVector
 601              	.LVL35:
 602              		.loc 1 275 0
 603 000a 0720     		movs	r0, #7
 604 000c 6021     		movs	r1, #96
 605 000e FFF7FEFF 		bl	nvicEnableVector
 606              	.LVL36:
 607              		.loc 1 277 0
 608 0012 0820     		movs	r0, #8
 609 0014 6021     		movs	r1, #96
 610 0016 FFF7FEFF 		bl	nvicEnableVector
 611              	.LVL37:
 612              		.loc 1 279 0
 613 001a 0920     		movs	r0, #9
 614 001c 6021     		movs	r1, #96
ARM GAS  /var/folders/pt/gxfsd_x53tx3h6kb8dkzftl80000gr/T//cc2dqnrC.s 			page 12


 615 001e FFF7FEFF 		bl	nvicEnableVector
 616              	.LVL38:
 617              		.loc 1 281 0
 618 0022 0A20     		movs	r0, #10
 619 0024 6021     		movs	r1, #96
 620 0026 FFF7FEFF 		bl	nvicEnableVector
 621              	.LVL39:
 622              		.loc 1 283 0
 623 002a 1720     		movs	r0, #23
 624 002c 6021     		movs	r1, #96
 625 002e FFF7FEFF 		bl	nvicEnableVector
 626              	.LVL40:
 627              		.loc 1 285 0
 628 0032 2820     		movs	r0, #40
 629 0034 6021     		movs	r1, #96
 630 0036 FFF7FEFF 		bl	nvicEnableVector
 631              	.LVL41:
 632              		.loc 1 287 0
 633 003a 0120     		movs	r0, #1
 634 003c 6021     		movs	r1, #96
 635 003e FFF7FEFF 		bl	nvicEnableVector
 636              	.LVL42:
 637              		.loc 1 289 0
 638 0042 2920     		movs	r0, #41
 639 0044 6021     		movs	r1, #96
 640 0046 FFF7FEFF 		bl	nvicEnableVector
 641              	.LVL43:
 642              		.loc 1 302 0
 643 004a 2A20     		movs	r0, #42
 644 004c 6021     		movs	r1, #96
 645              		.loc 1 305 0
 646 004e BDE80840 		pop	{r3, lr}
 647              		.loc 1 302 0
 648 0052 FFF7FEBF 		b	nvicEnableVector
 649              	.LVL44:
 650              		.cfi_endproc
 651              	.LFE73:
 652              		.size	ext_lld_exti_irq_enable, .-ext_lld_exti_irq_enable
 653 0056 00BFAFF3 		.section	.text.ext_lld_exti_irq_disable,"ax",%progbits
 653      0080AFF3 
 653      0080
 654              		.align	2
 655              		.p2align 4,,15
 656              		.global	ext_lld_exti_irq_disable
 657              		.thumb
 658              		.thumb_func
 659              		.type	ext_lld_exti_irq_disable, %function
 660              	ext_lld_exti_irq_disable:
 661              	.LFB74:
 662              		.loc 1 312 0
 663              		.cfi_startproc
 664              		@ args = 0, pretend = 0, frame = 0
 665              		@ frame_needed = 0, uses_anonymous_args = 0
 666 0000 08B5     		push	{r3, lr}
 667              	.LCFI11:
 668              		.cfi_def_cfa_offset 8
 669              		.cfi_offset 3, -8
ARM GAS  /var/folders/pt/gxfsd_x53tx3h6kb8dkzftl80000gr/T//cc2dqnrC.s 			page 13


 670              		.cfi_offset 14, -4
 671              		.loc 1 314 0
 672 0002 0620     		movs	r0, #6
 673 0004 FFF7FEFF 		bl	nvicDisableVector
 674              	.LVL45:
 675              		.loc 1 315 0
 676 0008 0720     		movs	r0, #7
 677 000a FFF7FEFF 		bl	nvicDisableVector
 678              	.LVL46:
 679              		.loc 1 316 0
 680 000e 0820     		movs	r0, #8
 681 0010 FFF7FEFF 		bl	nvicDisableVector
 682              	.LVL47:
 683              		.loc 1 317 0
 684 0014 0920     		movs	r0, #9
 685 0016 FFF7FEFF 		bl	nvicDisableVector
 686              	.LVL48:
 687              		.loc 1 318 0
 688 001a 0A20     		movs	r0, #10
 689 001c FFF7FEFF 		bl	nvicDisableVector
 690              	.LVL49:
 691              		.loc 1 319 0
 692 0020 1720     		movs	r0, #23
 693 0022 FFF7FEFF 		bl	nvicDisableVector
 694              	.LVL50:
 695              		.loc 1 320 0
 696 0026 2820     		movs	r0, #40
 697 0028 FFF7FEFF 		bl	nvicDisableVector
 698              	.LVL51:
 699              		.loc 1 321 0
 700 002c 0120     		movs	r0, #1
 701 002e FFF7FEFF 		bl	nvicDisableVector
 702              	.LVL52:
 703              		.loc 1 322 0
 704 0032 2920     		movs	r0, #41
 705 0034 FFF7FEFF 		bl	nvicDisableVector
 706              	.LVL53:
 707              		.loc 1 332 0
 708 0038 2A20     		movs	r0, #42
 709              		.loc 1 334 0
 710 003a BDE80840 		pop	{r3, lr}
 711              		.loc 1 332 0
 712 003e FFF7FEBF 		b	nvicDisableVector
 713              	.LVL54:
 714              		.cfi_endproc
 715              	.LFE74:
 716              		.size	ext_lld_exti_irq_disable, .-ext_lld_exti_irq_disable
 717 0042 00BFAFF3 		.text
 717      0080AFF3 
 717      0080AFF3 
 717      0080
 718              	.Letext0:
 719              		.file 2 "/Users/programmer/ConVEX/yagarto-4.7.2/bin/../lib/gcc/arm-none-eabi/4.7.2/../../../../arm
 720              		.file 3 "convex/ChibiOS_2.6.2/os/hal/platforms/STM32F1xx/stm32f10x.h"
 721              		.file 4 "convex/ChibiOS_2.6.2/os/hal/include/ext.h"
 722              		.file 5 "convex/ChibiOS_2.6.2/os/hal/platforms/STM32/ext_lld.h"
 723              		.file 6 "convex/ChibiOS_2.6.2/os/ports/common/ARMCMx/CMSIS/include/core_cm3.h"
ARM GAS  /var/folders/pt/gxfsd_x53tx3h6kb8dkzftl80000gr/T//cc2dqnrC.s 			page 14


 724              		.file 7 "convex/ChibiOS_2.6.2/os/ports/GCC/ARMCMx/chcore_v7m.h"
 725              		.file 8 "convex/ChibiOS_2.6.2/os/ports/common/ARMCMx/nvic.h"