ARM GAS  /var/folders/pt/gxfsd_x53tx3h6kb8dkzftl80000gr/T//ccfo5jhk.s 			page 1


   1              		.syntax unified
   2              		.cpu cortex-m3
   3              		.fpu softvfp
   4              		.eabi_attribute 20, 1
   5              		.eabi_attribute 21, 1
   6              		.eabi_attribute 23, 3
   7              		.eabi_attribute 24, 1
   8              		.eabi_attribute 25, 1
   9              		.eabi_attribute 26, 1
  10              		.eabi_attribute 30, 2
  11              		.eabi_attribute 34, 1
  12              		.eabi_attribute 18, 4
  13              		.thumb
  14              		.file	"ext_lld.c"
  15              		.text
  16              	.Ltext0:
  17              		.cfi_sections	.debug_frame
  18              		.section	.text.ext_lld_init,"ax",%progbits
  19              		.align	2
  20              		.p2align 4,,15
  21              		.global	ext_lld_init
  22              		.thumb
  23              		.thumb_func
  24              		.type	ext_lld_init, %function
  25              	ext_lld_init:
  26              	.LFB63:
  27              		.file 1 "convex/ChibiOS_2.6.2/os/hal/platforms/STM32/ext_lld.c"
  28              		.loc 1 66 0
  29              		.cfi_startproc
  30              		@ args = 0, pretend = 0, frame = 0
  31              		@ frame_needed = 0, uses_anonymous_args = 0
  32              		@ link register save eliminated.
  33              		.loc 1 69 0
  34 0000 40F20000 		movw	r0, #:lower16:.LANCHOR0
  35 0004 C0F20000 		movt	r0, #:upper16:.LANCHOR0
  36              		.loc 1 70 0
  37              		.loc 1 69 0
  38 0008 FFF7FEBF 		b	extObjectInit
  39              	.LVL0:
  40              		.cfi_endproc
  41              	.LFE63:
  42              		.size	ext_lld_init, .-ext_lld_init
  43 000c AFF30080 		.section	.text.ext_lld_stop,"ax",%progbits
  44              		.align	2
  45              		.p2align 4,,15
  46              		.global	ext_lld_stop
  47              		.thumb
  48              		.thumb_func
  49              		.type	ext_lld_stop, %function
  50              	ext_lld_stop:
  51              	.LFB65:
  52              		.loc 1 100 0
  53              		.cfi_startproc
  54              		@ args = 0, pretend = 0, frame = 0
  55              		@ frame_needed = 0, uses_anonymous_args = 0
  56              	.LVL1:
  57 0000 08B5     		push	{r3, lr}
ARM GAS  /var/folders/pt/gxfsd_x53tx3h6kb8dkzftl80000gr/T//ccfo5jhk.s 			page 2


  58              	.LCFI0:
  59              		.cfi_def_cfa_offset 8
  60              		.cfi_offset 3, -8
  61              		.cfi_offset 14, -4
  62              		.loc 1 102 0
  63 0002 0378     		ldrb	r3, [r0, #0]	@ zero_extendqisi2
  64 0004 022B     		cmp	r3, #2
  65 0006 0AD0     		beq	.L5
  66              	.LVL2:
  67              	.L3:
  68              		.loc 1 105 0
  69 0008 4FF48063 		mov	r3, #1024
  70 000c C4F20103 		movt	r3, 16385
  71 0010 0022     		movs	r2, #0
  72 0012 5A60     		str	r2, [r3, #4]
  73              		.loc 1 106 0
  74 0014 1A60     		str	r2, [r3, #0]
  75              		.loc 1 107 0
  76 0016 4FF0FF32 		mov	r2, #-1
  77 001a 5A61     		str	r2, [r3, #20]
  78 001c 08BD     		pop	{r3, pc}
  79              	.LVL3:
  80              	.L5:
  81              		.loc 1 103 0
  82 001e FFF7FEFF 		bl	ext_lld_exti_irq_disable
  83              	.LVL4:
  84 0022 F1E7     		b	.L3
  85              		.cfi_endproc
  86              	.LFE65:
  87              		.size	ext_lld_stop, .-ext_lld_stop
  88 0024 AFF30080 		.section	.text.ext_lld_channel_enable,"ax",%progbits
  88      AFF30080 
  88      AFF30080 
  89              		.align	2
  90              		.p2align 4,,15
  91              		.global	ext_lld_channel_enable
  92              		.thumb
  93              		.thumb_func
  94              		.type	ext_lld_channel_enable, %function
  95              	ext_lld_channel_enable:
  96              	.LFB66:
  97              		.loc 1 121 0
  98              		.cfi_startproc
  99              		@ args = 0, pretend = 0, frame = 0
 100              		@ frame_needed = 0, uses_anonymous_args = 0
 101              		@ link register save eliminated.
 102              	.LVL5:
 103              		.loc 1 127 0
 104 0000 4268     		ldr	r2, [r0, #4]
 105              		.loc 1 128 0
 106 0002 0120     		movs	r0, #1
 107              	.LVL6:
 108 0004 00FA01F0 		lsl	r0, r0, r1
 109              		.loc 1 121 0
 110 0008 70B4     		push	{r4, r5, r6}
 111              	.LCFI1:
 112              		.cfi_def_cfa_offset 12
ARM GAS  /var/folders/pt/gxfsd_x53tx3h6kb8dkzftl80000gr/T//ccfo5jhk.s 			page 3


 113              		.cfi_offset 4, -12
 114              		.cfi_offset 5, -8
 115              		.cfi_offset 6, -4
 116              		.loc 1 128 0
 117 000a 4FF48065 		mov	r5, #1024
 118              		.loc 1 127 0
 119 000e 52F83130 		ldr	r3, [r2, r1, lsl #3]
 120              		.loc 1 128 0
 121 0012 C4F20105 		movt	r5, 16385
 122 0016 AE68     		ldr	r6, [r5, #8]
 123 0018 C443     		mvns	r4, r0
 124              		.loc 1 127 0
 125 001a 13F0010F 		tst	r3, #1
 126              		.loc 1 128 0
 127 001e 14BF     		ite	ne
 128 0020 0643     		orrne	r6, r0, r6
 129              		.loc 1 130 0
 130 0022 2640     		andeq	r6, r4, r6
 131              		.loc 1 131 0
 132 0024 13F0020F 		tst	r3, #2
 133              		.loc 1 132 0
 134 0028 4FF48063 		mov	r3, #1024
 135 002c C4F20103 		movt	r3, 16385
 136              		.loc 1 130 0
 137 0030 AE60     		str	r6, [r5, #8]
 138              		.loc 1 132 0
 139 0032 DD68     		ldr	r5, [r3, #12]
 140 0034 14BF     		ite	ne
 141 0036 0543     		orrne	r5, r0, r5
 142              		.loc 1 134 0
 143 0038 2540     		andeq	r5, r4, r5
 144 003a DD60     		str	r5, [r3, #12]
 145              		.loc 1 137 0
 146 003c 02EBC103 		add	r3, r2, r1, lsl #3
 147 0040 5B68     		ldr	r3, [r3, #4]
 148 0042 2BB3     		cbz	r3, .L11
 149              		.loc 1 138 0
 150 0044 4FF48063 		mov	r3, #1024
 151 0048 C4F20103 		movt	r3, 16385
 152 004c 1D68     		ldr	r5, [r3, #0]
 153 004e 2843     		orrs	r0, r0, r5
 154 0050 1860     		str	r0, [r3, #0]
 155              		.loc 1 139 0
 156 0052 5868     		ldr	r0, [r3, #4]
 157 0054 0440     		ands	r4, r4, r0
 158 0056 5C60     		str	r4, [r3, #4]
 159              	.L12:
 160              		.loc 1 171 0
 161 0058 0F29     		cmp	r1, #15
 162 005a 17D8     		bhi	.L6
 163              	.LBB2:
 164              		.loc 1 174 0
 165 005c 52F83100 		ldr	r0, [r2, r1, lsl #3]
 166              		.loc 1 173 0
 167 0060 01F00303 		and	r3, r1, #3
 168 0064 9B00     		lsls	r3, r3, #2
 169 0066 0F22     		movs	r2, #15
ARM GAS  /var/folders/pt/gxfsd_x53tx3h6kb8dkzftl80000gr/T//ccfo5jhk.s 			page 4


 170 0068 02FA03F2 		lsl	r2, r2, r3
 171              		.loc 1 175 0
 172 006c C0F30310 		ubfx	r0, r0, #4, #4
 173              		.loc 1 174 0
 174 0070 00FA03F0 		lsl	r0, r0, r3
 175              		.loc 1 172 0
 176 0074 8908     		lsrs	r1, r1, #2
 177              	.LVL7:
 178              		.loc 1 182 0
 179 0076 0023     		movs	r3, #0
 180              	.LVL8:
 181 0078 C4F20103 		movt	r3, 16385
 182 007c 0231     		adds	r1, r1, #2
 183              	.LVL9:
 184 007e 53F82140 		ldr	r4, [r3, r1, lsl #2]
 185 0082 24EA0202 		bic	r2, r4, r2
 186 0086 0243     		orrs	r2, r2, r0
 187 0088 43F82120 		str	r2, [r3, r1, lsl #2]
 188              	.LVL10:
 189              	.L6:
 190              	.LBE2:
 191              		.loc 1 185 0
 192 008c 70BC     		pop	{r4, r5, r6}
 193 008e 7047     		bx	lr
 194              	.LVL11:
 195              	.L11:
 196              		.loc 1 142 0
 197 0090 4FF48063 		mov	r3, #1024
 198 0094 C4F20103 		movt	r3, 16385
 199 0098 5D68     		ldr	r5, [r3, #4]
 200 009a 2843     		orrs	r0, r0, r5
 201 009c 5860     		str	r0, [r3, #4]
 202              		.loc 1 143 0
 203 009e 1868     		ldr	r0, [r3, #0]
 204 00a0 0440     		ands	r4, r4, r0
 205 00a2 1C60     		str	r4, [r3, #0]
 206 00a4 D8E7     		b	.L12
 207              		.cfi_endproc
 208              	.LFE66:
 209              		.size	ext_lld_channel_enable, .-ext_lld_channel_enable
 210 00a6 00BFAFF3 		.section	.text.ext_lld_channel_disable,"ax",%progbits
 210      0080AFF3 
 210      0080
 211              		.align	2
 212              		.p2align 4,,15
 213              		.global	ext_lld_channel_disable
 214              		.thumb
 215              		.thumb_func
 216              		.type	ext_lld_channel_disable, %function
 217              	ext_lld_channel_disable:
 218              	.LFB67:
 219              		.loc 1 195 0
 220              		.cfi_startproc
 221              		@ args = 0, pretend = 0, frame = 0
 222              		@ frame_needed = 0, uses_anonymous_args = 0
 223              		@ link register save eliminated.
 224              	.LVL12:
ARM GAS  /var/folders/pt/gxfsd_x53tx3h6kb8dkzftl80000gr/T//ccfo5jhk.s 			page 5


 225              		.loc 1 202 0
 226 0000 0123     		movs	r3, #1
 227 0002 03FA01F1 		lsl	r1, r3, r1
 228              	.LVL13:
 229 0006 4FF48063 		mov	r3, #1024
 230 000a C4F20103 		movt	r3, 16385
 231 000e 1868     		ldr	r0, [r3, #0]
 232              	.LVL14:
 233 0010 CA43     		mvns	r2, r1
 234 0012 1040     		ands	r0, r0, r2
 235 0014 1860     		str	r0, [r3, #0]
 236              		.loc 1 203 0
 237 0016 5868     		ldr	r0, [r3, #4]
 238 0018 1040     		ands	r0, r0, r2
 239 001a 5860     		str	r0, [r3, #4]
 240              		.loc 1 204 0
 241 001c 9868     		ldr	r0, [r3, #8]
 242 001e 1040     		ands	r0, r0, r2
 243 0020 9860     		str	r0, [r3, #8]
 244              		.loc 1 205 0
 245 0022 D868     		ldr	r0, [r3, #12]
 246 0024 0240     		ands	r2, r2, r0
 247 0026 DA60     		str	r2, [r3, #12]
 248              		.loc 1 206 0
 249 0028 5961     		str	r1, [r3, #20]
 250 002a 7047     		bx	lr
 251              		.cfi_endproc
 252              	.LFE67:
 253              		.size	ext_lld_channel_disable, .-ext_lld_channel_disable
 254 002c AFF30080 		.section	.text.ext_lld_start,"ax",%progbits
 255              		.align	2
 256              		.p2align 4,,15
 257              		.global	ext_lld_start
 258              		.thumb
 259              		.thumb_func
 260              		.type	ext_lld_start, %function
 261              	ext_lld_start:
 262              	.LFB64:
 263              		.loc 1 79 0
 264              		.cfi_startproc
 265              		@ args = 0, pretend = 0, frame = 0
 266              		@ frame_needed = 0, uses_anonymous_args = 0
 267              	.LVL15:
 268 0000 38B5     		push	{r3, r4, r5, lr}
 269              	.LCFI2:
 270              		.cfi_def_cfa_offset 16
 271              		.cfi_offset 3, -16
 272              		.cfi_offset 4, -12
 273              		.cfi_offset 5, -8
 274              		.cfi_offset 14, -4
 275              		.loc 1 82 0
 276 0002 0378     		ldrb	r3, [r0, #0]	@ zero_extendqisi2
 277              		.loc 1 79 0
 278 0004 0546     		mov	r5, r0
 279              		.loc 1 82 0
 280 0006 012B     		cmp	r3, #1
 281 0008 13D0     		beq	.L21
ARM GAS  /var/folders/pt/gxfsd_x53tx3h6kb8dkzftl80000gr/T//ccfo5jhk.s 			page 6


 282              	.LVL16:
 283              	.L16:
 284              		.loc 1 79 0 discriminator 1
 285 000a 0024     		movs	r4, #0
 286 000c 04E0     		b	.L19
 287              	.LVL17:
 288              	.L23:
 289              		.loc 1 86 0
 290 000e 0134     		adds	r4, r4, #1
 291              		.loc 1 88 0
 292 0010 FFF7FEFF 		bl	ext_lld_channel_enable
 293              	.LVL18:
 294              		.loc 1 86 0
 295 0014 132C     		cmp	r4, #19
 296 0016 0BD0     		beq	.L22
 297              	.LVL19:
 298              	.L19:
 299              		.loc 1 87 0
 300 0018 6B68     		ldr	r3, [r5, #4]
 301              		.loc 1 90 0
 302 001a 2146     		mov	r1, r4
 303              		.loc 1 87 0
 304 001c 53F83430 		ldr	r3, [r3, r4, lsl #3]
 305              		.loc 1 90 0
 306 0020 2846     		mov	r0, r5
 307              		.loc 1 87 0
 308 0022 5B07     		lsls	r3, r3, #29
 309 0024 F3D4     		bmi	.L23
 310              	.LVL20:
 311              		.loc 1 86 0
 312 0026 0134     		adds	r4, r4, #1
 313              		.loc 1 90 0
 314 0028 FFF7FEFF 		bl	ext_lld_channel_disable
 315              	.LVL21:
 316              		.loc 1 86 0
 317 002c 132C     		cmp	r4, #19
 318 002e F3D1     		bne	.L19
 319              	.L22:
 320              		.loc 1 91 0
 321 0030 38BD     		pop	{r3, r4, r5, pc}
 322              	.LVL22:
 323              	.L21:
 324              		.loc 1 83 0
 325 0032 FFF7FEFF 		bl	ext_lld_exti_irq_enable
 326              	.LVL23:
 327 0036 E8E7     		b	.L16
 328              		.cfi_endproc
 329              	.LFE64:
 330              		.size	ext_lld_start, .-ext_lld_start
 331              		.global	EXTD1
 332 0038 AFF30080 		.section	.bss.EXTD1,"aw",%nobits
 332      AFF30080 
 333              		.align	2
 334              		.set	.LANCHOR0,. + 0
 335              		.type	EXTD1, %object
 336              		.size	EXTD1, 8
 337              	EXTD1:
ARM GAS  /var/folders/pt/gxfsd_x53tx3h6kb8dkzftl80000gr/T//ccfo5jhk.s 			page 7


 338 0000 00000000 		.space	8
 338      00000000 
 339              		.text
 340              	.Letext0:
 341              		.file 2 "/Users/programmer/ConVEX/yagarto-4.7.2/bin/../lib/gcc/arm-none-eabi/4.7.2/../../../../arm
 342              		.file 3 "convex/ChibiOS_2.6.2/os/hal/platforms/STM32F1xx/stm32f10x.h"
 343              		.file 4 "convex/ChibiOS_2.6.2/os/hal/include/ext.h"
 344              		.file 5 "convex/ChibiOS_2.6.2/os/hal/platforms/STM32/ext_lld.h"
 345              		.file 6 "convex/ChibiOS_2.6.2/os/ports/common/ARMCMx/CMSIS/include/core_cm3.h"
 346              		.file 7 "convex/ChibiOS_2.6.2/os/hal/platforms/STM32F1xx/ext_lld_isr.h"