ARM GAS  /var/folders/pt/gxfsd_x53tx3h6kb8dkzftl80000gr/T//ccEtAQWs.s 			page 1


   1              		.syntax unified
   2              		.cpu cortex-m3
   3              		.fpu softvfp
   4              		.eabi_attribute 20, 1
   5              		.eabi_attribute 21, 1
   6              		.eabi_attribute 23, 3
   7              		.eabi_attribute 24, 1
   8              		.eabi_attribute 25, 1
   9              		.eabi_attribute 26, 1
  10              		.eabi_attribute 30, 2
  11              		.eabi_attribute 34, 1
  12              		.eabi_attribute 18, 4
  13              		.thumb
  14              		.file	"gpt.c"
  15              		.text
  16              	.Ltext0:
  17              		.cfi_sections	.debug_frame
  18              		.section	.text.gptInit,"ax",%progbits
  19              		.align	2
  20              		.p2align 4,,15
  21              		.global	gptInit
  22              		.thumb
  23              		.thumb_func
  24              		.type	gptInit, %function
  25              	gptInit:
  26              	.LFB63:
  27              		.file 1 "convex/ChibiOS_2.6.2/os/hal/src/gpt.c"
  28              		.loc 1 68 0
  29              		.cfi_startproc
  30              		@ args = 0, pretend = 0, frame = 0
  31              		@ frame_needed = 0, uses_anonymous_args = 0
  32              		@ link register save eliminated.
  33              		.loc 1 71 0
  34              		.loc 1 70 0
  35 0000 FFF7FEBF 		b	gpt_lld_init
  36              	.LVL0:
  37              		.cfi_endproc
  38              	.LFE63:
  39              		.size	gptInit, .-gptInit
  40 0004 AFF30080 		.section	.text.gptObjectInit,"ax",%progbits
  40      AFF30080 
  40      AFF30080 
  41              		.align	2
  42              		.p2align 4,,15
  43              		.global	gptObjectInit
  44              		.thumb
  45              		.thumb_func
  46              		.type	gptObjectInit, %function
  47              	gptObjectInit:
  48              	.LFB64:
  49              		.loc 1 80 0
  50              		.cfi_startproc
  51              		@ args = 0, pretend = 0, frame = 0
  52              		@ frame_needed = 0, uses_anonymous_args = 0
  53              		@ link register save eliminated.
  54              	.LVL1:
  55              		.loc 1 82 0
ARM GAS  /var/folders/pt/gxfsd_x53tx3h6kb8dkzftl80000gr/T//ccEtAQWs.s 			page 2


  56 0000 0123     		movs	r3, #1
  57 0002 0370     		strb	r3, [r0, #0]
  58              		.loc 1 83 0
  59 0004 0023     		movs	r3, #0
  60 0006 4360     		str	r3, [r0, #4]
  61 0008 7047     		bx	lr
  62              		.cfi_endproc
  63              	.LFE64:
  64              		.size	gptObjectInit, .-gptObjectInit
  65 000a 00BFAFF3 		.section	.text.gptStart,"ax",%progbits
  65      0080
  66              		.align	2
  67              		.p2align 4,,15
  68              		.global	gptStart
  69              		.thumb
  70              		.thumb_func
  71              		.type	gptStart, %function
  72              	gptStart:
  73              	.LFB65:
  74              		.loc 1 94 0
  75              		.cfi_startproc
  76              		@ args = 0, pretend = 0, frame = 0
  77              		@ frame_needed = 0, uses_anonymous_args = 0
  78              	.LVL2:
  79 0000 10B5     		push	{r4, lr}
  80              	.LCFI0:
  81              		.cfi_def_cfa_offset 8
  82              		.cfi_offset 4, -8
  83              		.cfi_offset 14, -4
  84              	.LBB2:
  85              		.loc 1 98 0
  86 0002 2023     		movs	r3, #32
  87              	.LVL3:
  88              	.LBE2:
  89              		.loc 1 94 0
  90 0004 0446     		mov	r4, r0
  91              	.LBB3:
  92              		.loc 1 98 0
  93              	@ 98 "convex/ChibiOS_2.6.2/os/hal/src/gpt.c" 1
  94 0006 83F31188 		msr     BASEPRI, r3
  95              	@ 0 "" 2
  96              	.LVL4:
  97              		.thumb
  98              	.LBE3:
  99              		.loc 1 101 0
 100 000a 4160     		str	r1, [r0, #4]
 101              		.loc 1 102 0
 102 000c FFF7FEFF 		bl	gpt_lld_start
 103              	.LVL5:
 104              		.loc 1 103 0
 105 0010 0223     		movs	r3, #2
 106 0012 2370     		strb	r3, [r4, #0]
 107              	.LBB4:
 108              		.loc 1 104 0
 109 0014 0023     		movs	r3, #0
 110              	.LVL6:
 111              	@ 104 "convex/ChibiOS_2.6.2/os/hal/src/gpt.c" 1
ARM GAS  /var/folders/pt/gxfsd_x53tx3h6kb8dkzftl80000gr/T//ccEtAQWs.s 			page 3


 112 0016 83F31188 		msr     BASEPRI, r3
 113              	@ 0 "" 2
 114              	.LVL7:
 115              		.thumb
 116 001a 10BD     		pop	{r4, pc}
 117              	.LBE4:
 118              		.cfi_endproc
 119              	.LFE65:
 120              		.size	gptStart, .-gptStart
 121 001c AFF30080 		.section	.text.gptStop,"ax",%progbits
 122              		.align	2
 123              		.p2align 4,,15
 124              		.global	gptStop
 125              		.thumb
 126              		.thumb_func
 127              		.type	gptStop, %function
 128              	gptStop:
 129              	.LFB66:
 130              		.loc 1 114 0
 131              		.cfi_startproc
 132              		@ args = 0, pretend = 0, frame = 0
 133              		@ frame_needed = 0, uses_anonymous_args = 0
 134              	.LVL8:
 135 0000 10B5     		push	{r4, lr}
 136              	.LCFI1:
 137              		.cfi_def_cfa_offset 8
 138              		.cfi_offset 4, -8
 139              		.cfi_offset 14, -4
 140              	.LBB5:
 141              		.loc 1 118 0
 142 0002 2023     		movs	r3, #32
 143              	.LVL9:
 144              	.LBE5:
 145              		.loc 1 114 0
 146 0004 0446     		mov	r4, r0
 147              	.LBB6:
 148              		.loc 1 118 0
 149              	@ 118 "convex/ChibiOS_2.6.2/os/hal/src/gpt.c" 1
 150 0006 83F31188 		msr     BASEPRI, r3
 151              	@ 0 "" 2
 152              	.LVL10:
 153              		.thumb
 154              	.LBE6:
 155              		.loc 1 121 0
 156 000a FFF7FEFF 		bl	gpt_lld_stop
 157              	.LVL11:
 158              		.loc 1 122 0
 159 000e 0123     		movs	r3, #1
 160 0010 2370     		strb	r3, [r4, #0]
 161              	.LBB7:
 162              		.loc 1 123 0
 163 0012 0023     		movs	r3, #0
 164              	.LVL12:
 165              	@ 123 "convex/ChibiOS_2.6.2/os/hal/src/gpt.c" 1
 166 0014 83F31188 		msr     BASEPRI, r3
 167              	@ 0 "" 2
 168              	.LVL13:
ARM GAS  /var/folders/pt/gxfsd_x53tx3h6kb8dkzftl80000gr/T//ccEtAQWs.s 			page 4


 169              		.thumb
 170 0018 10BD     		pop	{r4, pc}
 171              	.LBE7:
 172              		.cfi_endproc
 173              	.LFE66:
 174              		.size	gptStop, .-gptStop
 175 001a 00BFAFF3 		.section	.text.gptChangeInterval,"ax",%progbits
 175      0080
 176              		.align	2
 177              		.p2align 4,,15
 178              		.global	gptChangeInterval
 179              		.thumb
 180              		.thumb_func
 181              		.type	gptChangeInterval, %function
 182              	gptChangeInterval:
 183              	.LFB67:
 184              		.loc 1 139 0
 185              		.cfi_startproc
 186              		@ args = 0, pretend = 0, frame = 0
 187              		@ frame_needed = 0, uses_anonymous_args = 0
 188              		@ link register save eliminated.
 189              	.LVL14:
 190              	.LBB8:
 191              		.loc 1 143 0
 192 0000 2023     		movs	r3, #32
 193              	.LVL15:
 194              	@ 143 "convex/ChibiOS_2.6.2/os/hal/src/gpt.c" 1
 195 0002 83F31188 		msr     BASEPRI, r3
 196              	@ 0 "" 2
 197              	.LVL16:
 198              		.thumb
 199              	.LBE8:
 200              		.loc 1 146 0
 201 0006 C368     		ldr	r3, [r0, #12]
 202              	.LVL17:
 203 0008 0139     		subs	r1, r1, #1
 204              	.LVL18:
 205 000a D962     		str	r1, [r3, #44]
 206              	.LBB9:
 207              		.loc 1 147 0
 208 000c 0023     		movs	r3, #0
 209              	.LVL19:
 210              	@ 147 "convex/ChibiOS_2.6.2/os/hal/src/gpt.c" 1
 211 000e 83F31188 		msr     BASEPRI, r3
 212              	@ 0 "" 2
 213              	.LVL20:
 214              		.thumb
 215 0012 7047     		bx	lr
 216              	.LBE9:
 217              		.cfi_endproc
 218              	.LFE67:
 219              		.size	gptChangeInterval, .-gptChangeInterval
 220 0014 AFF30080 		.section	.text.gptStartContinuousI,"ax",%progbits
 220      AFF30080 
 220      AFF30080 
 221              		.align	2
 222              		.p2align 4,,15
ARM GAS  /var/folders/pt/gxfsd_x53tx3h6kb8dkzftl80000gr/T//ccEtAQWs.s 			page 5


 223              		.global	gptStartContinuousI
 224              		.thumb
 225              		.thumb_func
 226              		.type	gptStartContinuousI, %function
 227              	gptStartContinuousI:
 228              	.LFB69:
 229              		.loc 1 173 0
 230              		.cfi_startproc
 231              		@ args = 0, pretend = 0, frame = 0
 232              		@ frame_needed = 0, uses_anonymous_args = 0
 233              		@ link register save eliminated.
 234              	.LVL21:
 235              		.loc 1 180 0
 236 0000 0323     		movs	r3, #3
 237 0002 0370     		strb	r3, [r0, #0]
 238              		.loc 1 182 0
 239              		.loc 1 181 0
 240 0004 FFF7FEBF 		b	gpt_lld_start_timer
 241              	.LVL22:
 242              		.cfi_endproc
 243              	.LFE69:
 244              		.size	gptStartContinuousI, .-gptStartContinuousI
 245 0008 AFF30080 		.section	.text.gptStartContinuous,"ax",%progbits
 245      AFF30080 
 246              		.align	2
 247              		.p2align 4,,15
 248              		.global	gptStartContinuous
 249              		.thumb
 250              		.thumb_func
 251              		.type	gptStartContinuous, %function
 252              	gptStartContinuous:
 253              	.LFB68:
 254              		.loc 1 158 0
 255              		.cfi_startproc
 256              		@ args = 0, pretend = 0, frame = 0
 257              		@ frame_needed = 0, uses_anonymous_args = 0
 258              	.LVL23:
 259 0000 08B5     		push	{r3, lr}
 260              	.LCFI2:
 261              		.cfi_def_cfa_offset 8
 262              		.cfi_offset 3, -8
 263              		.cfi_offset 14, -4
 264              	.LBB10:
 265              		.loc 1 160 0
 266 0002 2023     		movs	r3, #32
 267              	.LVL24:
 268              	@ 160 "convex/ChibiOS_2.6.2/os/hal/src/gpt.c" 1
 269 0004 83F31188 		msr     BASEPRI, r3
 270              	@ 0 "" 2
 271              	.LVL25:
 272              		.thumb
 273              	.LBE10:
 274              		.loc 1 161 0
 275 0008 FFF7FEFF 		bl	gptStartContinuousI
 276              	.LVL26:
 277              	.LBB11:
 278              		.loc 1 162 0
ARM GAS  /var/folders/pt/gxfsd_x53tx3h6kb8dkzftl80000gr/T//ccEtAQWs.s 			page 6


 279 000c 0023     		movs	r3, #0
 280              	.LVL27:
 281              	@ 162 "convex/ChibiOS_2.6.2/os/hal/src/gpt.c" 1
 282 000e 83F31188 		msr     BASEPRI, r3
 283              	@ 0 "" 2
 284              	.LVL28:
 285              		.thumb
 286 0012 08BD     		pop	{r3, pc}
 287              	.LBE11:
 288              		.cfi_endproc
 289              	.LFE68:
 290              		.size	gptStartContinuous, .-gptStartContinuous
 291 0014 AFF30080 		.section	.text.gptStartOneShotI,"ax",%progbits
 291      AFF30080 
 291      AFF30080 
 292              		.align	2
 293              		.p2align 4,,15
 294              		.global	gptStartOneShotI
 295              		.thumb
 296              		.thumb_func
 297              		.type	gptStartOneShotI, %function
 298              	gptStartOneShotI:
 299              	.LFB71:
 300              		.loc 1 207 0
 301              		.cfi_startproc
 302              		@ args = 0, pretend = 0, frame = 0
 303              		@ frame_needed = 0, uses_anonymous_args = 0
 304              		@ link register save eliminated.
 305              	.LVL29:
 306              		.loc 1 214 0
 307 0000 0423     		movs	r3, #4
 308 0002 0370     		strb	r3, [r0, #0]
 309              		.loc 1 216 0
 310              		.loc 1 215 0
 311 0004 FFF7FEBF 		b	gpt_lld_start_timer
 312              	.LVL30:
 313              		.cfi_endproc
 314              	.LFE71:
 315              		.size	gptStartOneShotI, .-gptStartOneShotI
 316 0008 AFF30080 		.section	.text.gptStartOneShot,"ax",%progbits
 316      AFF30080 
 317              		.align	2
 318              		.p2align 4,,15
 319              		.global	gptStartOneShot
 320              		.thumb
 321              		.thumb_func
 322              		.type	gptStartOneShot, %function
 323              	gptStartOneShot:
 324              	.LFB70:
 325              		.loc 1 192 0
 326              		.cfi_startproc
 327              		@ args = 0, pretend = 0, frame = 0
 328              		@ frame_needed = 0, uses_anonymous_args = 0
 329              	.LVL31:
 330 0000 08B5     		push	{r3, lr}
 331              	.LCFI3:
 332              		.cfi_def_cfa_offset 8
ARM GAS  /var/folders/pt/gxfsd_x53tx3h6kb8dkzftl80000gr/T//ccEtAQWs.s 			page 7


 333              		.cfi_offset 3, -8
 334              		.cfi_offset 14, -4
 335              	.LBB12:
 336              		.loc 1 194 0
 337 0002 2023     		movs	r3, #32
 338              	.LVL32:
 339              	@ 194 "convex/ChibiOS_2.6.2/os/hal/src/gpt.c" 1
 340 0004 83F31188 		msr     BASEPRI, r3
 341              	@ 0 "" 2
 342              	.LVL33:
 343              		.thumb
 344              	.LBE12:
 345              		.loc 1 195 0
 346 0008 FFF7FEFF 		bl	gptStartOneShotI
 347              	.LVL34:
 348              	.LBB13:
 349              		.loc 1 196 0
 350 000c 0023     		movs	r3, #0
 351              	.LVL35:
 352              	@ 196 "convex/ChibiOS_2.6.2/os/hal/src/gpt.c" 1
 353 000e 83F31188 		msr     BASEPRI, r3
 354              	@ 0 "" 2
 355              	.LVL36:
 356              		.thumb
 357 0012 08BD     		pop	{r3, pc}
 358              	.LBE13:
 359              		.cfi_endproc
 360              	.LFE70:
 361              		.size	gptStartOneShot, .-gptStartOneShot
 362 0014 AFF30080 		.section	.text.gptStopTimerI,"ax",%progbits
 362      AFF30080 
 362      AFF30080 
 363              		.align	2
 364              		.p2align 4,,15
 365              		.global	gptStopTimerI
 366              		.thumb
 367              		.thumb_func
 368              		.type	gptStopTimerI, %function
 369              	gptStopTimerI:
 370              	.LFB73:
 371              		.loc 1 239 0
 372              		.cfi_startproc
 373              		@ args = 0, pretend = 0, frame = 0
 374              		@ frame_needed = 0, uses_anonymous_args = 0
 375              		@ link register save eliminated.
 376              	.LVL37:
 377              		.loc 1 247 0
 378 0000 0223     		movs	r3, #2
 379 0002 0370     		strb	r3, [r0, #0]
 380              		.loc 1 249 0
 381              		.loc 1 248 0
 382 0004 FFF7FEBF 		b	gpt_lld_stop_timer
 383              	.LVL38:
 384              		.cfi_endproc
 385              	.LFE73:
 386              		.size	gptStopTimerI, .-gptStopTimerI
 387 0008 AFF30080 		.section	.text.gptStopTimer,"ax",%progbits
ARM GAS  /var/folders/pt/gxfsd_x53tx3h6kb8dkzftl80000gr/T//ccEtAQWs.s 			page 8


 387      AFF30080 
 388              		.align	2
 389              		.p2align 4,,15
 390              		.global	gptStopTimer
 391              		.thumb
 392              		.thumb_func
 393              		.type	gptStopTimer, %function
 394              	gptStopTimer:
 395              	.LFB72:
 396              		.loc 1 225 0
 397              		.cfi_startproc
 398              		@ args = 0, pretend = 0, frame = 0
 399              		@ frame_needed = 0, uses_anonymous_args = 0
 400              	.LVL39:
 401 0000 08B5     		push	{r3, lr}
 402              	.LCFI4:
 403              		.cfi_def_cfa_offset 8
 404              		.cfi_offset 3, -8
 405              		.cfi_offset 14, -4
 406              	.LBB14:
 407              		.loc 1 227 0
 408 0002 2023     		movs	r3, #32
 409              	.LVL40:
 410              	@ 227 "convex/ChibiOS_2.6.2/os/hal/src/gpt.c" 1
 411 0004 83F31188 		msr     BASEPRI, r3
 412              	@ 0 "" 2
 413              	.LVL41:
 414              		.thumb
 415              	.LBE14:
 416              		.loc 1 228 0
 417 0008 FFF7FEFF 		bl	gptStopTimerI
 418              	.LVL42:
 419              	.LBB15:
 420              		.loc 1 229 0
 421 000c 0023     		movs	r3, #0
 422              	.LVL43:
 423              	@ 229 "convex/ChibiOS_2.6.2/os/hal/src/gpt.c" 1
 424 000e 83F31188 		msr     BASEPRI, r3
 425              	@ 0 "" 2
 426              	.LVL44:
 427              		.thumb
 428 0012 08BD     		pop	{r3, pc}
 429              	.LBE15:
 430              		.cfi_endproc
 431              	.LFE72:
 432              		.size	gptStopTimer, .-gptStopTimer
 433 0014 AFF30080 		.section	.text.gptPolledDelay,"ax",%progbits
 433      AFF30080 
 433      AFF30080 
 434              		.align	2
 435              		.p2align 4,,15
 436              		.global	gptPolledDelay
 437              		.thumb
 438              		.thumb_func
 439              		.type	gptPolledDelay, %function
 440              	gptPolledDelay:
 441              	.LFB74:
ARM GAS  /var/folders/pt/gxfsd_x53tx3h6kb8dkzftl80000gr/T//ccEtAQWs.s 			page 9


 442              		.loc 1 263 0
 443              		.cfi_startproc
 444              		@ args = 0, pretend = 0, frame = 0
 445              		@ frame_needed = 0, uses_anonymous_args = 0
 446              	.LVL45:
 447              		.loc 1 268 0
 448 0000 0423     		movs	r3, #4
 449              		.loc 1 263 0
 450 0002 10B5     		push	{r4, lr}
 451              	.LCFI5:
 452              		.cfi_def_cfa_offset 8
 453              		.cfi_offset 4, -8
 454              		.cfi_offset 14, -4
 455              		.loc 1 268 0
 456 0004 0370     		strb	r3, [r0, #0]
 457              		.loc 1 263 0
 458 0006 0446     		mov	r4, r0
 459              		.loc 1 269 0
 460 0008 FFF7FEFF 		bl	gpt_lld_polled_delay
 461              	.LVL46:
 462              		.loc 1 270 0
 463 000c 0223     		movs	r3, #2
 464 000e 2370     		strb	r3, [r4, #0]
 465 0010 10BD     		pop	{r4, pc}
 466              		.cfi_endproc
 467              	.LFE74:
 468              		.size	gptPolledDelay, .-gptPolledDelay
 469 0012 00BFAFF3 		.text
 469      0080AFF3 
 469      0080AFF3 
 469      0080
 470              	.Letext0:
 471              		.file 2 "/Users/programmer/ConVEX/yagarto-4.7.2/bin/../lib/gcc/arm-none-eabi/4.7.2/../../../../arm
 472              		.file 3 "convex/ChibiOS_2.6.2/os/hal/include/gpt.h"
 473              		.file 4 "convex/ChibiOS_2.6.2/os/hal/platforms/STM32/TIMv1/gpt_lld.h"
 474              		.file 5 "convex/ChibiOS_2.6.2/os/hal/platforms/STM32/TIMv1/stm32_tim.h"
 475              		.file 6 "convex/ChibiOS_2.6.2/os/ports/common/ARMCMx/CMSIS/include/core_cm3.h"