ARM GAS  /var/folders/pt/gxfsd_x53tx3h6kb8dkzftl80000gr/T//ccB4Nskk.s 			page 1


   1              		.syntax unified
   2              		.cpu cortex-m3
   3              		.fpu softvfp
   4              		.eabi_attribute 20, 1
   5              		.eabi_attribute 21, 1
   6              		.eabi_attribute 23, 3
   7              		.eabi_attribute 24, 1
   8              		.eabi_attribute 25, 1
   9              		.eabi_attribute 26, 1
  10              		.eabi_attribute 30, 2
  11              		.eabi_attribute 34, 1
  12              		.eabi_attribute 18, 4
  13              		.thumb
  14              		.file	"gpt_lld.c"
  15              		.text
  16              	.Ltext0:
  17              		.cfi_sections	.debug_frame
  18              		.section	.text.gpt_lld_serve_interrupt,"ax",%progbits
  19              		.align	2
  20              		.p2align 4,,15
  21              		.thumb
  22              		.thumb_func
  23              		.type	gpt_lld_serve_interrupt, %function
  24              	gpt_lld_serve_interrupt:
  25              	.LFB63:
  26              		.file 1 "convex/ChibiOS_2.6.2/os/hal/platforms/STM32/TIMv1/gpt_lld.c"
  27              		.loc 1 147 0
  28              		.cfi_startproc
  29              		@ args = 0, pretend = 0, frame = 0
  30              		@ frame_needed = 0, uses_anonymous_args = 0
  31              	.LVL0:
  32              		.loc 1 150 0
  33 0000 0178     		ldrb	r1, [r0, #0]	@ zero_extendqisi2
  34              		.loc 1 147 0
  35 0002 08B5     		push	{r3, lr}
  36              	.LCFI0:
  37              		.cfi_def_cfa_offset 8
  38              		.cfi_offset 3, -8
  39              		.cfi_offset 14, -4
  40              		.loc 1 149 0
  41 0004 C368     		ldr	r3, [r0, #12]
  42 0006 0022     		movs	r2, #0
  43              		.loc 1 150 0
  44 0008 0429     		cmp	r1, #4
  45              		.loc 1 149 0
  46 000a 1A61     		str	r2, [r3, #16]
  47              		.loc 1 150 0
  48 000c 07D1     		bne	.L2
  49              		.loc 1 151 0
  50 000e 0221     		movs	r1, #2
  51 0010 0170     		strb	r1, [r0, #0]
  52              	.LVL1:
  53              	.LBB4:
  54              	.LBB5:
  55              		.loc 1 745 0
  56 0012 1A60     		str	r2, [r3, #0]
  57              		.loc 1 746 0
ARM GAS  /var/folders/pt/gxfsd_x53tx3h6kb8dkzftl80000gr/T//ccB4Nskk.s 			page 2


  58 0014 1A61     		str	r2, [r3, #16]
  59              		.loc 1 749 0
  60 0016 DA68     		ldr	r2, [r3, #12]
  61 0018 22F0FF02 		bic	r2, r2, #255
  62 001c DA60     		str	r2, [r3, #12]
  63              	.LVL2:
  64              	.L2:
  65              	.LBE5:
  66              	.LBE4:
  67              		.loc 1 154 0
  68 001e 4368     		ldr	r3, [r0, #4]
  69 0020 5B68     		ldr	r3, [r3, #4]
  70 0022 9847     		blx	r3
  71              	.LVL3:
  72 0024 08BD     		pop	{r3, pc}
  73              		.cfi_endproc
  74              	.LFE63:
  75              		.size	gpt_lld_serve_interrupt, .-gpt_lld_serve_interrupt
  76 0026 00BFAFF3 		.section	.text.VectorA4,"ax",%progbits
  76      0080AFF3 
  76      0080
  77              		.align	2
  78              		.p2align 4,,15
  79              		.global	VectorA4
  80              		.thumb
  81              		.thumb_func
  82              		.type	VectorA4, %function
  83              	VectorA4:
  84              	.LFB64:
  85              		.loc 1 170 0
  86              		.cfi_startproc
  87              		@ args = 0, pretend = 0, frame = 0
  88              		@ frame_needed = 0, uses_anonymous_args = 0
  89              		.loc 1 174 0
  90 0000 40F20000 		movw	r0, #:lower16:.LANCHOR0
  91              		.loc 1 170 0
  92 0004 08B5     		push	{r3, lr}
  93              	.LCFI1:
  94              		.cfi_def_cfa_offset 8
  95              		.cfi_offset 3, -8
  96              		.cfi_offset 14, -4
  97              		.loc 1 174 0
  98 0006 C0F20000 		movt	r0, #:upper16:.LANCHOR0
  99 000a FFF7FEFF 		bl	gpt_lld_serve_interrupt
 100              	.LVL4:
 101              		.loc 1 177 0
 102 000e BDE80840 		pop	{r3, lr}
 103              		.loc 1 176 0
 104 0012 FFF7FEBF 		b	_port_irq_epilogue
 105              	.LVL5:
 106              		.cfi_endproc
 107              	.LFE64:
 108              		.size	VectorA4, .-VectorA4
 109 0016 00BFAFF3 		.section	.text.VectorB0,"ax",%progbits
 109      0080AFF3 
 109      0080
 110              		.align	2
ARM GAS  /var/folders/pt/gxfsd_x53tx3h6kb8dkzftl80000gr/T//ccB4Nskk.s 			page 3


 111              		.p2align 4,,15
 112              		.global	VectorB0
 113              		.thumb
 114              		.thumb_func
 115              		.type	VectorB0, %function
 116              	VectorB0:
 117              	.LFB65:
 118              		.loc 1 189 0
 119              		.cfi_startproc
 120              		@ args = 0, pretend = 0, frame = 0
 121              		@ frame_needed = 0, uses_anonymous_args = 0
 122              		.loc 1 193 0
 123 0000 40F20000 		movw	r0, #:lower16:.LANCHOR1
 124              		.loc 1 189 0
 125 0004 08B5     		push	{r3, lr}
 126              	.LCFI2:
 127              		.cfi_def_cfa_offset 8
 128              		.cfi_offset 3, -8
 129              		.cfi_offset 14, -4
 130              		.loc 1 193 0
 131 0006 C0F20000 		movt	r0, #:upper16:.LANCHOR1
 132 000a FFF7FEFF 		bl	gpt_lld_serve_interrupt
 133              	.LVL6:
 134              		.loc 1 196 0
 135 000e BDE80840 		pop	{r3, lr}
 136              		.loc 1 195 0
 137 0012 FFF7FEBF 		b	_port_irq_epilogue
 138              	.LVL7:
 139              		.cfi_endproc
 140              	.LFE65:
 141              		.size	VectorB0, .-VectorB0
 142 0016 00BFAFF3 		.section	.text.Vector108,"ax",%progbits
 142      0080AFF3 
 142      0080
 143              		.align	2
 144              		.p2align 4,,15
 145              		.global	Vector108
 146              		.thumb
 147              		.thumb_func
 148              		.type	Vector108, %function
 149              	Vector108:
 150              	.LFB66:
 151              		.loc 1 246 0
 152              		.cfi_startproc
 153              		@ args = 0, pretend = 0, frame = 0
 154              		@ frame_needed = 0, uses_anonymous_args = 0
 155              		.loc 1 250 0
 156 0000 40F20000 		movw	r0, #:lower16:.LANCHOR2
 157              		.loc 1 246 0
 158 0004 08B5     		push	{r3, lr}
 159              	.LCFI3:
 160              		.cfi_def_cfa_offset 8
 161              		.cfi_offset 3, -8
 162              		.cfi_offset 14, -4
 163              		.loc 1 250 0
 164 0006 C0F20000 		movt	r0, #:upper16:.LANCHOR2
 165 000a FFF7FEFF 		bl	gpt_lld_serve_interrupt
ARM GAS  /var/folders/pt/gxfsd_x53tx3h6kb8dkzftl80000gr/T//ccB4Nskk.s 			page 4


 166              	.LVL8:
 167              		.loc 1 253 0
 168 000e BDE80840 		pop	{r3, lr}
 169              		.loc 1 252 0
 170 0012 FFF7FEBF 		b	_port_irq_epilogue
 171              	.LVL9:
 172              		.cfi_endproc
 173              	.LFE66:
 174              		.size	Vector108, .-Vector108
 175 0016 00BFAFF3 		.section	.text.gpt_lld_init,"ax",%progbits
 175      0080AFF3 
 175      0080
 176              		.align	2
 177              		.p2align 4,,15
 178              		.global	gpt_lld_init
 179              		.thumb
 180              		.thumb_func
 181              		.type	gpt_lld_init, %function
 182              	gpt_lld_init:
 183              	.LFB67:
 184              		.loc 1 398 0
 185              		.cfi_startproc
 186              		@ args = 0, pretend = 0, frame = 0
 187              		@ frame_needed = 0, uses_anonymous_args = 0
 188 0000 08B5     		push	{r3, lr}
 189              	.LCFI4:
 190              		.cfi_def_cfa_offset 8
 191              		.cfi_offset 3, -8
 192              		.cfi_offset 14, -4
 193              		.loc 1 402 0
 194 0002 40F20003 		movw	r3, #:lower16:.LANCHOR0
 195 0006 C0F20003 		movt	r3, #:upper16:.LANCHOR0
 196 000a 4FF43052 		mov	r2, #11264
 197 000e C4F20102 		movt	r2, 16385
 198              		.loc 1 403 0
 199 0012 1846     		mov	r0, r3
 200              		.loc 1 402 0
 201 0014 DA60     		str	r2, [r3, #12]
 202              		.loc 1 403 0
 203 0016 FFF7FEFF 		bl	gptObjectInit
 204              	.LVL10:
 205              		.loc 1 408 0
 206 001a 40F20003 		movw	r3, #:lower16:.LANCHOR1
 207 001e C0F20003 		movt	r3, #:upper16:.LANCHOR1
 208              		.loc 1 409 0
 209 0022 1846     		mov	r0, r3
 210              		.loc 1 408 0
 211 0024 4FF08042 		mov	r2, #1073741824
 212 0028 DA60     		str	r2, [r3, #12]
 213              		.loc 1 409 0
 214 002a FFF7FEFF 		bl	gptObjectInit
 215              	.LVL11:
 216              		.loc 1 426 0
 217 002e 40F20003 		movw	r3, #:lower16:.LANCHOR2
 218 0032 C0F20003 		movt	r3, #:upper16:.LANCHOR2
 219 0036 4FF44062 		mov	r2, #3072
 220 003a C4F20002 		movt	r2, 16384
ARM GAS  /var/folders/pt/gxfsd_x53tx3h6kb8dkzftl80000gr/T//ccB4Nskk.s 			page 5


 221              		.loc 1 427 0
 222 003e 1846     		mov	r0, r3
 223              		.loc 1 426 0
 224 0040 DA60     		str	r2, [r3, #12]
 225              		.loc 1 471 0
 226 0042 BDE80840 		pop	{r3, lr}
 227              		.loc 1 427 0
 228 0046 FFF7FEBF 		b	gptObjectInit
 229              	.LVL12:
 230              		.cfi_endproc
 231              	.LFE67:
 232              		.size	gpt_lld_init, .-gpt_lld_init
 233 004a 00BFAFF3 		.section	.text.gpt_lld_start,"ax",%progbits
 233      0080
 234              		.align	2
 235              		.p2align 4,,15
 236              		.global	gpt_lld_start
 237              		.thumb
 238              		.thumb_func
 239              		.type	gpt_lld_start, %function
 240              	gpt_lld_start:
 241              	.LFB68:
 242              		.loc 1 480 0
 243              		.cfi_startproc
 244              		@ args = 0, pretend = 0, frame = 0
 245              		@ frame_needed = 0, uses_anonymous_args = 0
 246              	.LVL13:
 247              		.loc 1 483 0
 248 0000 0378     		ldrb	r3, [r0, #0]	@ zero_extendqisi2
 249              		.loc 1 480 0
 250 0002 10B5     		push	{r4, lr}
 251              	.LCFI5:
 252              		.cfi_def_cfa_offset 8
 253              		.cfi_offset 4, -8
 254              		.cfi_offset 14, -4
 255              		.loc 1 483 0
 256 0004 012B     		cmp	r3, #1
 257              		.loc 1 480 0
 258 0006 0446     		mov	r4, r0
 259              		.loc 1 483 0
 260 0008 10D0     		beq	.L13
 261              	.LVL14:
 262              	.L9:
 263              		.loc 1 612 0
 264 000a 6268     		ldr	r2, [r4, #4]
 265 000c A068     		ldr	r0, [r4, #8]
 266 000e 1168     		ldr	r1, [r2, #0]
 267              		.loc 1 617 0
 268 0010 E368     		ldr	r3, [r4, #12]
 269              		.loc 1 612 0
 270 0012 B0FBF1F1 		udiv	r1, r0, r1
 271 0016 0139     		subs	r1, r1, #1
 272              		.loc 1 620 0
 273 0018 107A     		ldrb	r0, [r2, #8]	@ zero_extendqisi2
 274              		.loc 1 612 0
 275 001a 89B2     		uxth	r1, r1
 276              	.LVL15:
ARM GAS  /var/folders/pt/gxfsd_x53tx3h6kb8dkzftl80000gr/T//ccB4Nskk.s 			page 6


 277              		.loc 1 617 0
 278 001c 0022     		movs	r2, #0
 279              		.loc 1 618 0
 280 001e 0824     		movs	r4, #8
 281              	.LVL16:
 282              		.loc 1 617 0
 283 0020 1A60     		str	r2, [r3, #0]
 284              		.loc 1 618 0
 285 0022 5C60     		str	r4, [r3, #4]
 286              		.loc 1 619 0
 287 0024 9962     		str	r1, [r3, #40]
 288              		.loc 1 620 0
 289 0026 D860     		str	r0, [r3, #12]
 290              		.loc 1 622 0
 291 0028 1A61     		str	r2, [r3, #16]
 292 002a 10BD     		pop	{r4, pc}
 293              	.LVL17:
 294              	.L13:
 295              		.loc 1 486 0
 296 002c 224B     		ldr	r3, .L16
 297 002e 9842     		cmp	r0, r3
 298 0030 1DD0     		beq	.L14
 299              		.loc 1 499 0
 300 0032 224B     		ldr	r3, .L16+4
 301 0034 9842     		cmp	r0, r3
 302 0036 32D0     		beq	.L15
 303              		.loc 1 527 0
 304 0038 214B     		ldr	r3, .L16+8
 305 003a 9842     		cmp	r0, r3
 306 003c E5D1     		bne	.L9
 307              		.loc 1 528 0
 308 003e 4FF48053 		mov	r3, #4096
 309 0042 C4F20203 		movt	r3, 16386
 310 0046 DA69     		ldr	r2, [r3, #28]
 311              		.loc 1 530 0
 312 0048 3220     		movs	r0, #50
 313              	.LVL18:
 314              		.loc 1 528 0
 315 004a 42F00802 		orr	r2, r2, #8
 316 004e DA61     		str	r2, [r3, #28]
 317              		.loc 1 529 0
 318 0050 1A69     		ldr	r2, [r3, #16]
 319 0052 42F00802 		orr	r2, r2, #8
 320              	.L12:
 321 0056 1A61     		str	r2, [r3, #16]
 322 0058 0022     		movs	r2, #0
 323 005a 1A61     		str	r2, [r3, #16]
 324              		.loc 1 530 0
 325 005c 7021     		movs	r1, #112
 326 005e FFF7FEFF 		bl	nvicEnableVector
 327              	.LVL19:
 328              		.loc 1 532 0
 329 0062 4FF42243 		mov	r3, #41472
 330 0066 C0F24A43 		movt	r3, 1098
 331 006a A360     		str	r3, [r4, #8]
 332 006c CDE7     		b	.L9
 333              	.LVL20:
ARM GAS  /var/folders/pt/gxfsd_x53tx3h6kb8dkzftl80000gr/T//ccB4Nskk.s 			page 7


 334              	.L14:
 335              		.loc 1 487 0
 336 006e 4FF48053 		mov	r3, #4096
 337 0072 C4F20203 		movt	r3, 16386
 338 0076 9A69     		ldr	r2, [r3, #24]
 339              		.loc 1 489 0
 340 0078 1920     		movs	r0, #25
 341              	.LVL21:
 342              		.loc 1 487 0
 343 007a 42F40062 		orr	r2, r2, #2048
 344 007e 9A61     		str	r2, [r3, #24]
 345              		.loc 1 488 0
 346 0080 DA68     		ldr	r2, [r3, #12]
 347              		.loc 1 489 0
 348 0082 7021     		movs	r1, #112
 349              		.loc 1 488 0
 350 0084 42F40062 		orr	r2, r2, #2048
 351 0088 DA60     		str	r2, [r3, #12]
 352 008a 0022     		movs	r2, #0
 353 008c DA60     		str	r2, [r3, #12]
 354              		.loc 1 489 0
 355 008e FFF7FEFF 		bl	nvicEnableVector
 356              	.LVL22:
 357              		.loc 1 494 0
 358 0092 4FF42243 		mov	r3, #41472
 359 0096 C0F24A43 		movt	r3, 1098
 360 009a A360     		str	r3, [r4, #8]
 361 009c B5E7     		b	.L9
 362              	.LVL23:
 363              	.L15:
 364              		.loc 1 500 0
 365 009e 4FF48053 		mov	r3, #4096
 366 00a2 C4F20203 		movt	r3, 16386
 367 00a6 DA69     		ldr	r2, [r3, #28]
 368              		.loc 1 502 0
 369 00a8 1C20     		movs	r0, #28
 370              	.LVL24:
 371              		.loc 1 500 0
 372 00aa 42F00102 		orr	r2, r2, #1
 373 00ae DA61     		str	r2, [r3, #28]
 374              		.loc 1 501 0
 375 00b0 1A69     		ldr	r2, [r3, #16]
 376 00b2 42F00102 		orr	r2, r2, #1
 377 00b6 CEE7     		b	.L12
 378              	.L17:
 379              		.align	2
 380              	.L16:
 381 00b8 00000000 		.word	.LANCHOR0
 382 00bc 00000000 		.word	.LANCHOR1
 383 00c0 00000000 		.word	.LANCHOR2
 384              		.cfi_endproc
 385              	.LFE68:
 386              		.size	gpt_lld_start, .-gpt_lld_start
 387 00c4 AFF30080 		.section	.text.gpt_lld_stop,"ax",%progbits
 387      AFF30080 
 387      AFF30080 
 388              		.align	2
ARM GAS  /var/folders/pt/gxfsd_x53tx3h6kb8dkzftl80000gr/T//ccB4Nskk.s 			page 8


 389              		.p2align 4,,15
 390              		.global	gpt_lld_stop
 391              		.thumb
 392              		.thumb_func
 393              		.type	gpt_lld_stop, %function
 394              	gpt_lld_stop:
 395              	.LFB69:
 396              		.loc 1 632 0
 397              		.cfi_startproc
 398              		@ args = 0, pretend = 0, frame = 0
 399              		@ frame_needed = 0, uses_anonymous_args = 0
 400              	.LVL25:
 401 0000 08B5     		push	{r3, lr}
 402              	.LCFI6:
 403              		.cfi_def_cfa_offset 8
 404              		.cfi_offset 3, -8
 405              		.cfi_offset 14, -4
 406              		.loc 1 634 0
 407 0002 0378     		ldrb	r3, [r0, #0]	@ zero_extendqisi2
 408 0004 022B     		cmp	r3, #2
 409 0006 00D0     		beq	.L24
 410              	.LVL26:
 411              	.L18:
 412 0008 08BD     		pop	{r3, pc}
 413              	.LVL27:
 414              	.L24:
 415              		.loc 1 635 0
 416 000a C368     		ldr	r3, [r0, #12]
 417 000c 0022     		movs	r2, #0
 418 000e 1A60     		str	r2, [r3, #0]
 419              		.loc 1 636 0
 420 0010 DA60     		str	r2, [r3, #12]
 421              		.loc 1 637 0
 422 0012 1A61     		str	r2, [r3, #16]
 423              		.loc 1 640 0
 424 0014 164B     		ldr	r3, .L27
 425 0016 9842     		cmp	r0, r3
 426 0018 11D0     		beq	.L25
 427              		.loc 1 646 0
 428 001a 164B     		ldr	r3, .L27+4
 429 001c 9842     		cmp	r0, r3
 430 001e 1AD0     		beq	.L26
 431              		.loc 1 664 0
 432 0020 154B     		ldr	r3, .L27+8
 433 0022 9842     		cmp	r0, r3
 434 0024 F0D1     		bne	.L18
 435              		.loc 1 665 0
 436 0026 3220     		movs	r0, #50
 437              	.LVL28:
 438 0028 FFF7FEFF 		bl	nvicDisableVector
 439              	.LVL29:
 440              		.loc 1 666 0
 441 002c 4FF48053 		mov	r3, #4096
 442 0030 C4F20203 		movt	r3, 16386
 443 0034 DA69     		ldr	r2, [r3, #28]
 444 0036 22F00802 		bic	r2, r2, #8
 445 003a DA61     		str	r2, [r3, #28]
ARM GAS  /var/folders/pt/gxfsd_x53tx3h6kb8dkzftl80000gr/T//ccB4Nskk.s 			page 9


 446 003c E4E7     		b	.L18
 447              	.LVL30:
 448              	.L25:
 449              		.loc 1 641 0
 450 003e 1920     		movs	r0, #25
 451              	.LVL31:
 452 0040 FFF7FEFF 		bl	nvicDisableVector
 453              	.LVL32:
 454              		.loc 1 642 0
 455 0044 4FF48053 		mov	r3, #4096
 456 0048 C4F20203 		movt	r3, 16386
 457 004c 9A69     		ldr	r2, [r3, #24]
 458 004e 22F40062 		bic	r2, r2, #2048
 459 0052 9A61     		str	r2, [r3, #24]
 460 0054 08BD     		pop	{r3, pc}
 461              	.LVL33:
 462              	.L26:
 463              		.loc 1 647 0
 464 0056 1C20     		movs	r0, #28
 465              	.LVL34:
 466 0058 FFF7FEFF 		bl	nvicDisableVector
 467              	.LVL35:
 468              		.loc 1 648 0
 469 005c 4FF48053 		mov	r3, #4096
 470 0060 C4F20203 		movt	r3, 16386
 471 0064 DA69     		ldr	r2, [r3, #28]
 472 0066 22F00102 		bic	r2, r2, #1
 473 006a DA61     		str	r2, [r3, #28]
 474 006c 08BD     		pop	{r3, pc}
 475              	.L28:
 476 006e 00BF     		.align	2
 477              	.L27:
 478 0070 00000000 		.word	.LANCHOR0
 479 0074 00000000 		.word	.LANCHOR1
 480 0078 00000000 		.word	.LANCHOR2
 481              		.cfi_endproc
 482              	.LFE69:
 483              		.size	gpt_lld_stop, .-gpt_lld_stop
 484 007c AFF30080 		.section	.text.gpt_lld_start_timer,"ax",%progbits
 485              		.align	2
 486              		.p2align 4,,15
 487              		.global	gpt_lld_start_timer
 488              		.thumb
 489              		.thumb_func
 490              		.type	gpt_lld_start_timer, %function
 491              	gpt_lld_start_timer:
 492              	.LFB70:
 493              		.loc 1 722 0
 494              		.cfi_startproc
 495              		@ args = 0, pretend = 0, frame = 0
 496              		@ frame_needed = 0, uses_anonymous_args = 0
 497              		@ link register save eliminated.
 498              	.LVL36:
 499              		.loc 1 724 0
 500 0000 C368     		ldr	r3, [r0, #12]
 501 0002 0139     		subs	r1, r1, #1
 502              	.LVL37:
ARM GAS  /var/folders/pt/gxfsd_x53tx3h6kb8dkzftl80000gr/T//ccB4Nskk.s 			page 10


 503 0004 D962     		str	r1, [r3, #44]
 504              		.loc 1 726 0
 505 0006 0022     		movs	r2, #0
 506              		.loc 1 725 0
 507 0008 0121     		movs	r1, #1
 508              	.LVL38:
 509 000a 5961     		str	r1, [r3, #20]
 510              		.loc 1 726 0
 511 000c 5A62     		str	r2, [r3, #36]
 512              		.loc 1 731 0
 513 000e 1A61     		str	r2, [r3, #16]
 514              		.loc 1 732 0
 515 0010 DA68     		ldr	r2, [r3, #12]
 516 0012 0A43     		orrs	r2, r2, r1
 517 0014 DA60     		str	r2, [r3, #12]
 518              		.loc 1 733 0
 519 0016 0522     		movs	r2, #5
 520 0018 1A60     		str	r2, [r3, #0]
 521 001a 7047     		bx	lr
 522              		.cfi_endproc
 523              	.LFE70:
 524              		.size	gpt_lld_start_timer, .-gpt_lld_start_timer
 525 001c AFF30080 		.section	.text.gpt_lld_stop_timer,"ax",%progbits
 526              		.align	2
 527              		.p2align 4,,15
 528              		.global	gpt_lld_stop_timer
 529              		.thumb
 530              		.thumb_func
 531              		.type	gpt_lld_stop_timer, %function
 532              	gpt_lld_stop_timer:
 533              	.LFB71:
 534              		.loc 1 743 0
 535              		.cfi_startproc
 536              		@ args = 0, pretend = 0, frame = 0
 537              		@ frame_needed = 0, uses_anonymous_args = 0
 538              		@ link register save eliminated.
 539              	.LVL39:
 540              		.loc 1 745 0
 541 0000 C368     		ldr	r3, [r0, #12]
 542 0002 0022     		movs	r2, #0
 543 0004 1A60     		str	r2, [r3, #0]
 544              		.loc 1 746 0
 545 0006 1A61     		str	r2, [r3, #16]
 546              		.loc 1 749 0
 547 0008 DA68     		ldr	r2, [r3, #12]
 548 000a 22F0FF02 		bic	r2, r2, #255
 549 000e DA60     		str	r2, [r3, #12]
 550 0010 7047     		bx	lr
 551              		.cfi_endproc
 552              	.LFE71:
 553              		.size	gpt_lld_stop_timer, .-gpt_lld_stop_timer
 554 0012 00BFAFF3 		.section	.text.gpt_lld_polled_delay,"ax",%progbits
 554      0080AFF3 
 554      0080AFF3 
 554      0080
 555              		.align	2
 556              		.p2align 4,,15
ARM GAS  /var/folders/pt/gxfsd_x53tx3h6kb8dkzftl80000gr/T//ccB4Nskk.s 			page 11


 557              		.global	gpt_lld_polled_delay
 558              		.thumb
 559              		.thumb_func
 560              		.type	gpt_lld_polled_delay, %function
 561              	gpt_lld_polled_delay:
 562              	.LFB72:
 563              		.loc 1 763 0
 564              		.cfi_startproc
 565              		@ args = 0, pretend = 0, frame = 0
 566              		@ frame_needed = 0, uses_anonymous_args = 0
 567              		@ link register save eliminated.
 568              	.LVL40:
 569              		.loc 1 765 0
 570 0000 C268     		ldr	r2, [r0, #12]
 571              		.loc 1 766 0
 572 0002 0123     		movs	r3, #1
 573              		.loc 1 765 0
 574 0004 0139     		subs	r1, r1, #1
 575              	.LVL41:
 576 0006 D162     		str	r1, [r2, #44]
 577              		.loc 1 766 0
 578 0008 5361     		str	r3, [r2, #20]
 579              		.loc 1 767 0
 580 000a 0023     		movs	r3, #0
 581 000c 1361     		str	r3, [r2, #16]
 582              		.loc 1 768 0
 583 000e 0D23     		movs	r3, #13
 584 0010 1360     		str	r3, [r2, #0]
 585              	.L32:
 586              		.loc 1 769 0 discriminator 1
 587 0012 1369     		ldr	r3, [r2, #16]
 588 0014 DB07     		lsls	r3, r3, #31
 589 0016 FCD5     		bpl	.L32
 590              		.loc 1 771 0
 591 0018 7047     		bx	lr
 592              		.cfi_endproc
 593              	.LFE72:
 594              		.size	gpt_lld_polled_delay, .-gpt_lld_polled_delay
 595              		.global	GPTD5
 596              		.global	GPTD2
 597              		.global	GPTD1
 598 001a 00BFAFF3 		.section	.bss.GPTD1,"aw",%nobits
 598      0080
 599              		.align	2
 600              		.set	.LANCHOR0,. + 0
 601              		.type	GPTD1, %object
 602              		.size	GPTD1, 16
 603              	GPTD1:
 604 0000 00000000 		.space	16
 604      00000000 
 604      00000000 
 604      00000000 
 605              		.section	.bss.GPTD2,"aw",%nobits
 606              		.align	2
 607              		.set	.LANCHOR1,. + 0
 608              		.type	GPTD2, %object
 609              		.size	GPTD2, 16
ARM GAS  /var/folders/pt/gxfsd_x53tx3h6kb8dkzftl80000gr/T//ccB4Nskk.s 			page 12


 610              	GPTD2:
 611 0000 00000000 		.space	16
 611      00000000 
 611      00000000 
 611      00000000 
 612              		.section	.bss.GPTD5,"aw",%nobits
 613              		.align	2
 614              		.set	.LANCHOR2,. + 0
 615              		.type	GPTD5, %object
 616              		.size	GPTD5, 16
 617              	GPTD5:
 618 0000 00000000 		.space	16
 618      00000000 
 618      00000000 
 618      00000000 
 619              		.text
 620              	.Letext0:
 621              		.file 2 "/Users/programmer/ConVEX/yagarto-4.7.2/bin/../lib/gcc/arm-none-eabi/4.7.2/../../../../arm
 622              		.file 3 "convex/ChibiOS_2.6.2/os/hal/platforms/STM32F1xx/stm32f10x.h"
 623              		.file 4 "convex/ChibiOS_2.6.2/os/hal/include/gpt.h"
 624              		.file 5 "convex/ChibiOS_2.6.2/os/hal/platforms/STM32/TIMv1/gpt_lld.h"
 625              		.file 6 "convex/ChibiOS_2.6.2/os/hal/platforms/STM32/TIMv1/stm32_tim.h"
 626              		.file 7 "convex/ChibiOS_2.6.2/os/ports/common/ARMCMx/CMSIS/include/core_cm3.h"
 627              		.file 8 "convex/ChibiOS_2.6.2/os/ports/common/ARMCMx/nvic.h"
 628              		.file 9 "convex/ChibiOS_2.6.2/os/ports/GCC/ARMCMx/chcore_v7m.h"