ARM GAS  /var/folders/pt/gxfsd_x53tx3h6kb8dkzftl80000gr/T//cc3RME5l.s 			page 1


   1              		.syntax unified
   2              		.cpu cortex-m3
   3              		.fpu softvfp
   4              		.eabi_attribute 20, 1
   5              		.eabi_attribute 21, 1
   6              		.eabi_attribute 23, 3
   7              		.eabi_attribute 24, 1
   8              		.eabi_attribute 25, 1
   9              		.eabi_attribute 26, 1
  10              		.eabi_attribute 30, 2
  11              		.eabi_attribute 34, 1
  12              		.eabi_attribute 18, 4
  13              		.thumb
  14              		.file	"hal.c"
  15              		.text
  16              	.Ltext0:
  17              		.cfi_sections	.debug_frame
  18              		.section	.text.halInit,"ax",%progbits
  19              		.align	2
  20              		.p2align 4,,15
  21              		.global	halInit
  22              		.thumb
  23              		.thumb_func
  24              		.type	halInit, %function
  25              	halInit:
  26              	.LFB63:
  27              		.file 1 "convex/ChibiOS_2.6.2/os/hal/src/hal.c"
  28              		.loc 1 68 0
  29              		.cfi_startproc
  30              		@ args = 0, pretend = 0, frame = 0
  31              		@ frame_needed = 0, uses_anonymous_args = 0
  32 0000 08B5     		push	{r3, lr}
  33              	.LCFI0:
  34              		.cfi_def_cfa_offset 8
  35              		.cfi_offset 3, -8
  36              		.cfi_offset 14, -4
  37              		.loc 1 70 0
  38 0002 FFF7FEFF 		bl	hal_lld_init
  39              	.LVL0:
  40              		.loc 1 73 0
  41 0006 FFF7FEFF 		bl	tmInit
  42              	.LVL1:
  43              		.loc 1 76 0
  44 000a 40F20000 		movw	r0, #:lower16:pal_default_config
  45 000e C0F20000 		movt	r0, #:upper16:pal_default_config
  46 0012 FFF7FEFF 		bl	_pal_lld_init
  47              	.LVL2:
  48              		.loc 1 79 0
  49 0016 FFF7FEFF 		bl	adcInit
  50              	.LVL3:
  51              		.loc 1 85 0
  52 001a FFF7FEFF 		bl	extInit
  53              	.LVL4:
  54              		.loc 1 88 0
  55 001e FFF7FEFF 		bl	gptInit
  56              	.LVL5:
  57              		.loc 1 91 0
ARM GAS  /var/folders/pt/gxfsd_x53tx3h6kb8dkzftl80000gr/T//cc3RME5l.s 			page 2


  58 0022 FFF7FEFF 		bl	i2cInit
  59              	.LVL6:
  60              		.loc 1 103 0
  61 0026 FFF7FEFF 		bl	sdInit
  62              	.LVL7:
  63              		.loc 1 109 0
  64 002a FFF7FEFF 		bl	spiInit
  65              	.LVL8:
  66              		.loc 1 128 0
  67 002e BDE80840 		pop	{r3, lr}
  68              		.loc 1 127 0
  69 0032 FFF7FEBF 		b	boardInit
  70              	.LVL9:
  71              		.cfi_endproc
  72              	.LFE63:
  73              		.size	halInit, .-halInit
  74 0036 00BFAFF3 		.section	.text.halIsCounterWithin,"ax",%progbits
  74      0080AFF3 
  74      0080
  75              		.align	2
  76              		.p2align 4,,15
  77              		.global	halIsCounterWithin
  78              		.thumb
  79              		.thumb_func
  80              		.type	halIsCounterWithin, %function
  81              	halIsCounterWithin:
  82              	.LFB64:
  83              		.loc 1 174 0
  84              		.cfi_startproc
  85              		@ args = 0, pretend = 0, frame = 0
  86              		@ frame_needed = 0, uses_anonymous_args = 0
  87              		@ link register save eliminated.
  88              	.LVL10:
  89              		.loc 1 175 0
  90 0000 4FF48053 		mov	r3, #4096
  91 0004 CEF20003 		movt	r3, 57344
  92              		.loc 1 177 0
  93 0008 8142     		cmp	r1, r0
  94              		.loc 1 174 0
  95 000a 0246     		mov	r2, r0
  96              		.loc 1 175 0
  97 000c 5B68     		ldr	r3, [r3, #4]
  98              	.LVL11:
  99              		.loc 1 177 0
 100 000e 09D8     		bhi	.L6
 101              		.loc 1 178 0 discriminator 2
 102 0010 8342     		cmp	r3, r0
 103 0012 34BF     		ite	cc
 104 0014 0022     		movcc	r2, #0
 105 0016 0122     		movcs	r2, #1
 106 0018 8B42     		cmp	r3, r1
 107 001a 2CBF     		ite	cs
 108 001c 1046     		movcs	r0, r2
 109 001e 42F00100 		orrcc	r0, r2, #1
 110              	.LVL12:
 111              		.loc 1 179 0 discriminator 2
 112 0022 7047     		bx	lr
ARM GAS  /var/folders/pt/gxfsd_x53tx3h6kb8dkzftl80000gr/T//cc3RME5l.s 			page 3


 113              	.LVL13:
 114              	.L6:
 115              		.loc 1 177 0 discriminator 1
 116 0024 8B42     		cmp	r3, r1
 117 0026 2CBF     		ite	cs
 118 0028 0020     		movcs	r0, #0
 119              	.LVL14:
 120 002a 0120     		movcc	r0, #1
 121 002c 9342     		cmp	r3, r2
 122 002e 38BF     		it	cc
 123 0030 0020     		movcc	r0, #0
 124 0032 7047     		bx	lr
 125              		.cfi_endproc
 126              	.LFE64:
 127              		.size	halIsCounterWithin, .-halIsCounterWithin
 128 0034 AFF30080 		.section	.text.halPolledDelay,"ax",%progbits
 128      AFF30080 
 128      AFF30080 
 129              		.align	2
 130              		.p2align 4,,15
 131              		.global	halPolledDelay
 132              		.thumb
 133              		.thumb_func
 134              		.type	halPolledDelay, %function
 135              	halPolledDelay:
 136              	.LFB65:
 137              		.loc 1 193 0
 138              		.cfi_startproc
 139              		@ args = 0, pretend = 0, frame = 0
 140              		@ frame_needed = 0, uses_anonymous_args = 0
 141              		@ link register save eliminated.
 142              	.LVL15:
 143 0000 10B4     		push	{r4}
 144              	.LCFI1:
 145              		.cfi_def_cfa_offset 4
 146              		.cfi_offset 4, -4
 147              		.loc 1 194 0
 148 0002 4FF48054 		mov	r4, #4096
 149 0006 CEF20004 		movt	r4, 57344
 150 000a 6268     		ldr	r2, [r4, #4]
 151              	.LVL16:
 152              		.loc 1 195 0
 153 000c 8018     		adds	r0, r0, r2
 154              	.LVL17:
 155              	.L10:
 156              	.LBB4:
 157              	.LBB5:
 158              		.loc 1 177 0 discriminator 1
 159 000e 8242     		cmp	r2, r0
 160              		.loc 1 175 0 discriminator 1
 161 0010 6368     		ldr	r3, [r4, #4]
 162              	.LVL18:
 163              		.loc 1 177 0 discriminator 1
 164 0012 0AD2     		bcs	.L8
 165              		.loc 1 177 0 is_stmt 0
 166 0014 9842     		cmp	r0, r3
 167 0016 94BF     		ite	ls
ARM GAS  /var/folders/pt/gxfsd_x53tx3h6kb8dkzftl80000gr/T//cc3RME5l.s 			page 4


 168 0018 0021     		movls	r1, #0
 169 001a 0121     		movhi	r1, #1
 170 001c 9A42     		cmp	r2, r3
 171 001e 88BF     		it	hi
 172 0020 0021     		movhi	r1, #0
 173              	.LBE5:
 174              	.LBE4:
 175              		.loc 1 196 0 is_stmt 1
 176 0022 0029     		cmp	r1, #0
 177 0024 F3D1     		bne	.L10
 178              	.L12:
 179              		.loc 1 198 0
 180 0026 10BC     		pop	{r4}
 181 0028 7047     		bx	lr
 182              	.L8:
 183              	.LBB7:
 184              	.LBB6:
 185              		.loc 1 178 0
 186 002a 9A42     		cmp	r2, r3
 187 002c 8CBF     		ite	hi
 188 002e 0021     		movhi	r1, #0
 189 0030 0121     		movls	r1, #1
 190 0032 9842     		cmp	r0, r3
 191 0034 88BF     		it	hi
 192 0036 41F00101 		orrhi	r1, r1, #1
 193              	.LBE6:
 194              	.LBE7:
 195              		.loc 1 196 0
 196 003a 0029     		cmp	r1, #0
 197 003c E7D1     		bne	.L10
 198 003e F2E7     		b	.L12
 199              		.cfi_endproc
 200              	.LFE65:
 201              		.size	halPolledDelay, .-halPolledDelay
 202              		.text
 203              	.Letext0:
 204              		.file 2 "/Users/programmer/ConVEX/yagarto-4.7.2/bin/../lib/gcc/arm-none-eabi/4.7.2/../../../../arm
 205              		.file 3 "convex/ChibiOS_2.6.2/os/ports/GCC/ARMCMx/chtypes.h"
 206              		.file 4 "convex/ChibiOS_2.6.2/os/ports/common/ARMCMx/nvic.h"
 207              		.file 5 "convex/ChibiOS_2.6.2/os/hal/platforms/STM32F1xx/hal_lld.h"
 208              		.file 6 "convex/ChibiOS_2.6.2/os/hal/platforms/STM32/GPIOv1/pal_lld.h"
 209              		.file 7 "convex/ChibiOS_2.6.2/os/ports/common/ARMCMx/CMSIS/include/core_cm3.h"
 210              		.file 8 "convex/ChibiOS_2.6.2/os/hal/include/tm.h"
 211              		.file 9 "convex/ChibiOS_2.6.2/os/hal/include/adc.h"
 212              		.file 10 "convex/ChibiOS_2.6.2/os/hal/include/ext.h"
 213              		.file 11 "convex/ChibiOS_2.6.2/os/hal/include/gpt.h"
 214              		.file 12 "convex/ChibiOS_2.6.2/os/hal/include/i2c.h"
 215              		.file 13 "convex/ChibiOS_2.6.2/os/hal/include/serial.h"
 216              		.file 14 "convex/ChibiOS_2.6.2/os/hal/include/spi.h"
 217              		.file 15 "convex/convex/cortex/boards/VEX_STM32_CORTEX/board.h"