ARM GAS  /var/folders/pt/gxfsd_x53tx3h6kb8dkzftl80000gr/T//ccJzj6sy.s 			page 1


   1              		.syntax unified
   2              		.cpu cortex-m3
   3              		.fpu softvfp
   4              		.eabi_attribute 20, 1
   5              		.eabi_attribute 21, 1
   6              		.eabi_attribute 23, 3
   7              		.eabi_attribute 24, 1
   8              		.eabi_attribute 25, 1
   9              		.eabi_attribute 26, 1
  10              		.eabi_attribute 30, 2
  11              		.eabi_attribute 34, 1
  12              		.eabi_attribute 18, 4
  13              		.thumb
  14              		.file	"i2c.c"
  15              		.text
  16              	.Ltext0:
  17              		.cfi_sections	.debug_frame
  18              		.section	.text.i2cInit,"ax",%progbits
  19              		.align	2
  20              		.p2align 4,,15
  21              		.global	i2cInit
  22              		.thumb
  23              		.thumb_func
  24              		.type	i2cInit, %function
  25              	i2cInit:
  26              	.LFB63:
  27              		.file 1 "convex/ChibiOS_2.6.2/os/hal/src/i2c.c"
  28              		.loc 1 71 0
  29              		.cfi_startproc
  30              		@ args = 0, pretend = 0, frame = 0
  31              		@ frame_needed = 0, uses_anonymous_args = 0
  32              		@ link register save eliminated.
  33              		.loc 1 73 0
  34              		.loc 1 72 0
  35 0000 FFF7FEBF 		b	i2c_lld_init
  36              	.LVL0:
  37              		.cfi_endproc
  38              	.LFE63:
  39              		.size	i2cInit, .-i2cInit
  40 0004 AFF30080 		.section	.text.i2cObjectInit,"ax",%progbits
  40      AFF30080 
  40      AFF30080 
  41              		.align	2
  42              		.p2align 4,,15
  43              		.global	i2cObjectInit
  44              		.thumb
  45              		.thumb_func
  46              		.type	i2cObjectInit, %function
  47              	i2cObjectInit:
  48              	.LFB64:
  49              		.loc 1 82 0
  50              		.cfi_startproc
  51              		@ args = 0, pretend = 0, frame = 0
  52              		@ frame_needed = 0, uses_anonymous_args = 0
  53              		@ link register save eliminated.
  54              	.LVL1:
  55              		.loc 1 84 0
ARM GAS  /var/folders/pt/gxfsd_x53tx3h6kb8dkzftl80000gr/T//ccJzj6sy.s 			page 2


  56 0000 0123     		movs	r3, #1
  57 0002 0370     		strb	r3, [r0, #0]
  58              		.loc 1 85 0
  59 0004 0023     		movs	r3, #0
  60 0006 4360     		str	r3, [r0, #4]
  61              		.loc 1 89 0
  62 0008 0C30     		adds	r0, r0, #12
  63              	.LVL2:
  64              		.loc 1 98 0
  65              		.loc 1 89 0
  66 000a FFF7FEBF 		b	chMtxInit
  67              	.LVL3:
  68              		.cfi_endproc
  69              	.LFE64:
  70              		.size	i2cObjectInit, .-i2cObjectInit
  71 000e 00BF     		.section	.text.i2cStart,"ax",%progbits
  72              		.align	2
  73              		.p2align 4,,15
  74              		.global	i2cStart
  75              		.thumb
  76              		.thumb_func
  77              		.type	i2cStart, %function
  78              	i2cStart:
  79              	.LFB65:
  80              		.loc 1 108 0
  81              		.cfi_startproc
  82              		@ args = 0, pretend = 0, frame = 0
  83              		@ frame_needed = 0, uses_anonymous_args = 0
  84              	.LVL4:
  85 0000 10B5     		push	{r4, lr}
  86              	.LCFI0:
  87              		.cfi_def_cfa_offset 8
  88              		.cfi_offset 4, -8
  89              		.cfi_offset 14, -4
  90              	.LBB2:
  91              		.loc 1 116 0
  92 0002 2023     		movs	r3, #32
  93              	.LVL5:
  94              	.LBE2:
  95              		.loc 1 108 0
  96 0004 0446     		mov	r4, r0
  97              	.LBB3:
  98              		.loc 1 116 0
  99              	@ 116 "convex/ChibiOS_2.6.2/os/hal/src/i2c.c" 1
 100 0006 83F31188 		msr     BASEPRI, r3
 101              	@ 0 "" 2
 102              	.LVL6:
 103              		.thumb
 104              	.LBE3:
 105              		.loc 1 117 0
 106 000a 4160     		str	r1, [r0, #4]
 107              		.loc 1 118 0
 108 000c FFF7FEFF 		bl	i2c_lld_start
 109              	.LVL7:
 110              		.loc 1 119 0
 111 0010 0223     		movs	r3, #2
 112 0012 2370     		strb	r3, [r4, #0]
ARM GAS  /var/folders/pt/gxfsd_x53tx3h6kb8dkzftl80000gr/T//ccJzj6sy.s 			page 3


 113              	.LBB4:
 114              		.loc 1 120 0
 115 0014 0023     		movs	r3, #0
 116              	.LVL8:
 117              	@ 120 "convex/ChibiOS_2.6.2/os/hal/src/i2c.c" 1
 118 0016 83F31188 		msr     BASEPRI, r3
 119              	@ 0 "" 2
 120              	.LVL9:
 121              		.thumb
 122 001a 10BD     		pop	{r4, pc}
 123              	.LBE4:
 124              		.cfi_endproc
 125              	.LFE65:
 126              		.size	i2cStart, .-i2cStart
 127 001c AFF30080 		.section	.text.i2cStop,"ax",%progbits
 128              		.align	2
 129              		.p2align 4,,15
 130              		.global	i2cStop
 131              		.thumb
 132              		.thumb_func
 133              		.type	i2cStop, %function
 134              	i2cStop:
 135              	.LFB66:
 136              		.loc 1 130 0
 137              		.cfi_startproc
 138              		@ args = 0, pretend = 0, frame = 0
 139              		@ frame_needed = 0, uses_anonymous_args = 0
 140              	.LVL10:
 141 0000 10B5     		push	{r4, lr}
 142              	.LCFI1:
 143              		.cfi_def_cfa_offset 8
 144              		.cfi_offset 4, -8
 145              		.cfi_offset 14, -4
 146              	.LBB5:
 147              		.loc 1 138 0
 148 0002 2023     		movs	r3, #32
 149              	.LVL11:
 150              	.LBE5:
 151              		.loc 1 130 0
 152 0004 0446     		mov	r4, r0
 153              	.LBB6:
 154              		.loc 1 138 0
 155              	@ 138 "convex/ChibiOS_2.6.2/os/hal/src/i2c.c" 1
 156 0006 83F31188 		msr     BASEPRI, r3
 157              	@ 0 "" 2
 158              	.LVL12:
 159              		.thumb
 160              	.LBE6:
 161              		.loc 1 139 0
 162 000a FFF7FEFF 		bl	i2c_lld_stop
 163              	.LVL13:
 164              		.loc 1 140 0
 165 000e 0123     		movs	r3, #1
 166 0010 2370     		strb	r3, [r4, #0]
 167              	.LBB7:
 168              		.loc 1 141 0
 169 0012 0023     		movs	r3, #0
ARM GAS  /var/folders/pt/gxfsd_x53tx3h6kb8dkzftl80000gr/T//ccJzj6sy.s 			page 4


 170              	.LVL14:
 171              	@ 141 "convex/ChibiOS_2.6.2/os/hal/src/i2c.c" 1
 172 0014 83F31188 		msr     BASEPRI, r3
 173              	@ 0 "" 2
 174              	.LVL15:
 175              		.thumb
 176 0018 10BD     		pop	{r4, pc}
 177              	.LBE7:
 178              		.cfi_endproc
 179              	.LFE66:
 180              		.size	i2cStop, .-i2cStop
 181 001a 00BFAFF3 		.section	.text.i2cGetErrors,"ax",%progbits
 181      0080
 182              		.align	2
 183              		.p2align 4,,15
 184              		.global	i2cGetErrors
 185              		.thumb
 186              		.thumb_func
 187              		.type	i2cGetErrors, %function
 188              	i2cGetErrors:
 189              	.LFB67:
 190              		.loc 1 152 0
 191              		.cfi_startproc
 192              		@ args = 0, pretend = 0, frame = 0
 193              		@ frame_needed = 0, uses_anonymous_args = 0
 194              		@ link register save eliminated.
 195              	.LVL16:
 196              		.loc 1 157 0
 197 0000 8068     		ldr	r0, [r0, #8]
 198              	.LVL17:
 199 0002 7047     		bx	lr
 200              		.cfi_endproc
 201              	.LFE67:
 202              		.size	i2cGetErrors, .-i2cGetErrors
 203 0004 AFF30080 		.section	.text.i2cMasterTransmitTimeout,"ax",%progbits
 203      AFF30080 
 203      AFF30080 
 204              		.align	2
 205              		.p2align 4,,15
 206              		.global	i2cMasterTransmitTimeout
 207              		.thumb
 208              		.thumb_func
 209              		.type	i2cMasterTransmitTimeout, %function
 210              	i2cMasterTransmitTimeout:
 211              	.LFB68:
 212              		.loc 1 191 0
 213              		.cfi_startproc
 214              		@ args = 12, pretend = 0, frame = 0
 215              		@ frame_needed = 0, uses_anonymous_args = 0
 216              	.LVL18:
 217 0000 70B5     		push	{r4, r5, r6, lr}
 218              	.LCFI2:
 219              		.cfi_def_cfa_offset 16
 220              		.cfi_offset 4, -16
 221              		.cfi_offset 5, -12
 222              		.cfi_offset 6, -8
 223              		.cfi_offset 14, -4
ARM GAS  /var/folders/pt/gxfsd_x53tx3h6kb8dkzftl80000gr/T//ccJzj6sy.s 			page 5


 224 0002 1E46     		mov	r6, r3
 225 0004 84B0     		sub	sp, sp, #16
 226              	.LCFI3:
 227              		.cfi_def_cfa_offset 32
 228              		.loc 1 191 0
 229 0006 0446     		mov	r4, r0
 230              	.LBB8:
 231              		.loc 1 203 0
 232 0008 2023     		movs	r3, #32
 233              	.LVL19:
 234              	@ 203 "convex/ChibiOS_2.6.2/os/hal/src/i2c.c" 1
 235 000a 83F31188 		msr     BASEPRI, r3
 236              	@ 0 "" 2
 237              	.LVL20:
 238              		.thumb
 239              	.LBE8:
 240              		.loc 1 204 0
 241 000e 0023     		movs	r3, #0
 242              	.LVL21:
 243              		.loc 1 206 0
 244 0010 089D     		ldr	r5, [sp, #32]
 245              		.loc 1 204 0
 246 0012 8360     		str	r3, [r0, #8]
 247              		.loc 1 205 0
 248 0014 0323     		movs	r3, #3
 249 0016 0370     		strb	r3, [r0, #0]
 250              		.loc 1 206 0
 251 0018 0095     		str	r5, [sp, #0]
 252 001a 099D     		ldr	r5, [sp, #36]
 253 001c 3346     		mov	r3, r6
 254 001e 0195     		str	r5, [sp, #4]
 255 0020 0A9D     		ldr	r5, [sp, #40]
 256 0022 0295     		str	r5, [sp, #8]
 257 0024 FFF7FEFF 		bl	i2c_lld_master_transmit_timeout
 258              	.LVL22:
 259              		.loc 1 208 0
 260 0028 431C     		adds	r3, r0, #1
 261 002a 06D0     		beq	.L10
 262              		.loc 1 211 0
 263 002c 0223     		movs	r3, #2
 264 002e 2370     		strb	r3, [r4, #0]
 265              	.L8:
 266              	.LBB9:
 267              		.loc 1 212 0
 268 0030 0023     		movs	r3, #0
 269              	.LVL23:
 270              	@ 212 "convex/ChibiOS_2.6.2/os/hal/src/i2c.c" 1
 271 0032 83F31188 		msr     BASEPRI, r3
 272              	@ 0 "" 2
 273              	.LVL24:
 274              		.thumb
 275              	.LBE9:
 276              		.loc 1 214 0
 277 0036 04B0     		add	sp, sp, #16
 278 0038 70BD     		pop	{r4, r5, r6, pc}
 279              	.LVL25:
 280              	.L10:
ARM GAS  /var/folders/pt/gxfsd_x53tx3h6kb8dkzftl80000gr/T//ccJzj6sy.s 			page 6


 281              		.loc 1 209 0
 282 003a 0523     		movs	r3, #5
 283 003c 2370     		strb	r3, [r4, #0]
 284 003e F7E7     		b	.L8
 285              		.cfi_endproc
 286              	.LFE68:
 287              		.size	i2cMasterTransmitTimeout, .-i2cMasterTransmitTimeout
 288              		.section	.text.i2cMasterReceiveTimeout,"ax",%progbits
 289              		.align	2
 290              		.p2align 4,,15
 291              		.global	i2cMasterReceiveTimeout
 292              		.thumb
 293              		.thumb_func
 294              		.type	i2cMasterReceiveTimeout, %function
 295              	i2cMasterReceiveTimeout:
 296              	.LFB69:
 297              		.loc 1 240 0
 298              		.cfi_startproc
 299              		@ args = 4, pretend = 0, frame = 0
 300              		@ frame_needed = 0, uses_anonymous_args = 0
 301              	.LVL26:
 302 0000 70B5     		push	{r4, r5, r6, lr}
 303              	.LCFI4:
 304              		.cfi_def_cfa_offset 16
 305              		.cfi_offset 4, -16
 306              		.cfi_offset 5, -12
 307              		.cfi_offset 6, -8
 308              		.cfi_offset 14, -4
 309 0002 1E46     		mov	r6, r3
 310 0004 82B0     		sub	sp, sp, #8
 311              	.LCFI5:
 312              		.cfi_def_cfa_offset 24
 313              		.loc 1 240 0
 314 0006 0446     		mov	r4, r0
 315              	.LBB10:
 316              		.loc 1 252 0
 317 0008 2023     		movs	r3, #32
 318              	.LVL27:
 319              	@ 252 "convex/ChibiOS_2.6.2/os/hal/src/i2c.c" 1
 320 000a 83F31188 		msr     BASEPRI, r3
 321              	@ 0 "" 2
 322              	.LVL28:
 323              		.thumb
 324              	.LBE10:
 325              		.loc 1 253 0
 326 000e 0023     		movs	r3, #0
 327              	.LVL29:
 328              		.loc 1 255 0
 329 0010 069D     		ldr	r5, [sp, #24]
 330              		.loc 1 253 0
 331 0012 8360     		str	r3, [r0, #8]
 332              		.loc 1 254 0
 333 0014 0423     		movs	r3, #4
 334 0016 0370     		strb	r3, [r0, #0]
 335              		.loc 1 255 0
 336 0018 0095     		str	r5, [sp, #0]
 337 001a 3346     		mov	r3, r6
ARM GAS  /var/folders/pt/gxfsd_x53tx3h6kb8dkzftl80000gr/T//ccJzj6sy.s 			page 7


 338 001c FFF7FEFF 		bl	i2c_lld_master_receive_timeout
 339              	.LVL30:
 340              		.loc 1 256 0
 341 0020 421C     		adds	r2, r0, #1
 342 0022 06D0     		beq	.L14
 343              		.loc 1 259 0
 344 0024 0223     		movs	r3, #2
 345 0026 2370     		strb	r3, [r4, #0]
 346              	.L13:
 347              	.LBB11:
 348              		.loc 1 260 0
 349 0028 0023     		movs	r3, #0
 350              	.LVL31:
 351              	@ 260 "convex/ChibiOS_2.6.2/os/hal/src/i2c.c" 1
 352 002a 83F31188 		msr     BASEPRI, r3
 353              	@ 0 "" 2
 354              	.LVL32:
 355              		.thumb
 356              	.LBE11:
 357              		.loc 1 262 0
 358 002e 02B0     		add	sp, sp, #8
 359 0030 70BD     		pop	{r4, r5, r6, pc}
 360              	.LVL33:
 361              	.L14:
 362              		.loc 1 257 0
 363 0032 0523     		movs	r3, #5
 364 0034 2370     		strb	r3, [r4, #0]
 365 0036 F7E7     		b	.L13
 366              		.cfi_endproc
 367              	.LFE69:
 368              		.size	i2cMasterReceiveTimeout, .-i2cMasterReceiveTimeout
 369 0038 AFF30080 		.section	.text.i2cAcquireBus,"ax",%progbits
 369      AFF30080 
 370              		.align	2
 371              		.p2align 4,,15
 372              		.global	i2cAcquireBus
 373              		.thumb
 374              		.thumb_func
 375              		.type	i2cAcquireBus, %function
 376              	i2cAcquireBus:
 377              	.LFB70:
 378              		.loc 1 276 0
 379              		.cfi_startproc
 380              		@ args = 0, pretend = 0, frame = 0
 381              		@ frame_needed = 0, uses_anonymous_args = 0
 382              		@ link register save eliminated.
 383              	.LVL34:
 384              		.loc 1 281 0
 385 0000 0C30     		adds	r0, r0, #12
 386              	.LVL35:
 387              		.loc 1 285 0
 388              		.loc 1 281 0
 389 0002 FFF7FEBF 		b	chMtxLock
 390              	.LVL36:
 391              		.cfi_endproc
 392              	.LFE70:
 393              		.size	i2cAcquireBus, .-i2cAcquireBus
ARM GAS  /var/folders/pt/gxfsd_x53tx3h6kb8dkzftl80000gr/T//ccJzj6sy.s 			page 8


 394 0006 00BFAFF3 		.section	.text.i2cReleaseBus,"ax",%progbits
 394      0080AFF3 
 394      0080
 395              		.align	2
 396              		.p2align 4,,15
 397              		.global	i2cReleaseBus
 398              		.thumb
 399              		.thumb_func
 400              		.type	i2cReleaseBus, %function
 401              	i2cReleaseBus:
 402              	.LFB71:
 403              		.loc 1 296 0
 404              		.cfi_startproc
 405              		@ args = 0, pretend = 0, frame = 0
 406              		@ frame_needed = 0, uses_anonymous_args = 0
 407              		@ link register save eliminated.
 408              	.LVL37:
 409              		.loc 1 305 0
 410              		.loc 1 301 0
 411 0000 FFF7FEBF 		b	chMtxUnlock
 412              	.LVL38:
 413              		.cfi_endproc
 414              	.LFE71:
 415              		.size	i2cReleaseBus, .-i2cReleaseBus
 416 0004 AFF30080 		.text
 416      AFF30080 
 416      AFF30080 
 417              	.Letext0:
 418              		.file 2 "/Users/programmer/ConVEX/yagarto-4.7.2/bin/../lib/gcc/arm-none-eabi/4.7.2/include/stddef.
 419              		.file 3 "/Users/programmer/ConVEX/yagarto-4.7.2/bin/../lib/gcc/arm-none-eabi/4.7.2/../../../../arm
 420              		.file 4 "convex/ChibiOS_2.6.2/os/ports/GCC/ARMCMx/chtypes.h"
 421              		.file 5 "convex/ChibiOS_2.6.2/os/kernel/include/chlists.h"
 422              		.file 6 "convex/ChibiOS_2.6.2/os/kernel/include/chthreads.h"
 423              		.file 7 "convex/ChibiOS_2.6.2/os/ports/GCC/ARMCMx/chcore_v7m.h"
 424              		.file 8 "convex/ChibiOS_2.6.2/os/kernel/include/chmtx.h"
 425              		.file 9 "convex/ChibiOS_2.6.2/os/hal/platforms/STM32F1xx/stm32f10x.h"
 426              		.file 10 "convex/ChibiOS_2.6.2/os/hal/platforms/STM32F1xx/stm32_dma.h"
 427              		.file 11 "convex/ChibiOS_2.6.2/os/hal/include/i2c.h"
 428              		.file 12 "convex/ChibiOS_2.6.2/os/hal/platforms/STM32/I2Cv1/i2c_lld.h"
 429              		.file 13 "convex/ChibiOS_2.6.2/os/ports/common/ARMCMx/CMSIS/include/core_cm3.h"