ARM GAS  /var/folders/pt/gxfsd_x53tx3h6kb8dkzftl80000gr/T//ccIsmMR6.s 			page 1


   1              		.syntax unified
   2              		.cpu cortex-m3
   3              		.fpu softvfp
   4              		.eabi_attribute 20, 1
   5              		.eabi_attribute 21, 1
   6              		.eabi_attribute 23, 3
   7              		.eabi_attribute 24, 1
   8              		.eabi_attribute 25, 1
   9              		.eabi_attribute 26, 1
  10              		.eabi_attribute 30, 2
  11              		.eabi_attribute 34, 1
  12              		.eabi_attribute 18, 4
  13              		.thumb
  14              		.file	"pidlib.c"
  15              		.text
  16              	.Ltext0:
  17              		.cfi_sections	.debug_frame
  18              		.global	__aeabi_i2f
  19              		.global	__aeabi_fcmplt
  20              		.global	__aeabi_fcmpeq
  21              		.global	__aeabi_fadd
  22              		.global	__aeabi_fcmpgt
  23              		.global	__aeabi_fmul
  24              		.global	__aeabi_fsub
  25              		.global	__aeabi_f2d
  26              		.global	__aeabi_dmul
  27              		.global	__aeabi_d2iz
  28              		.global	__aeabi_f2iz
  29              		.section	.text.PidControllerUpdate,"ax",%progbits
  30              		.align	2
  31              		.p2align 4,,15
  32              		.global	PidControllerUpdate
  33              		.thumb
  34              		.thumb_func
  35              		.type	PidControllerUpdate, %function
  36              	PidControllerUpdate:
  37              	.LFB71:
  38              		.file 1 "convex/convex/cortex/opt/pidlib.c"
  39              		.loc 1 160 0
  40              		.cfi_startproc
  41              		@ args = 0, pretend = 0, frame = 0
  42              		@ frame_needed = 0, uses_anonymous_args = 0
  43              	.LVL0:
  44 0000 2DE9F047 		push	{r4, r5, r6, r7, r8, r9, sl, lr}
  45              	.LCFI0:
  46              		.cfi_def_cfa_offset 32
  47              		.cfi_offset 4, -32
  48              		.cfi_offset 5, -28
  49              		.cfi_offset 6, -24
  50              		.cfi_offset 7, -20
  51              		.cfi_offset 8, -16
  52              		.cfi_offset 9, -12
  53              		.cfi_offset 10, -8
  54              		.cfi_offset 14, -4
  55              		.loc 1 161 0
  56 0004 0446     		mov	r4, r0
  57 0006 0028     		cmp	r0, #0
ARM GAS  /var/folders/pt/gxfsd_x53tx3h6kb8dkzftl80000gr/T//ccIsmMR6.s 			page 2


  58 0008 00F0E380 		beq	.L23
  59              		.loc 1 164 0
  60 000c B0F90030 		ldrsh	r3, [r0, #0]
  61 0010 002B     		cmp	r3, #0
  62 0012 00F09080 		beq	.L3
  63              		.loc 1 168 0
  64 0016 90F93400 		ldrsb	r0, [r0, #52]
  65              	.LVL1:
  66 001a 0028     		cmp	r0, #0
  67 001c 80F2A380 		bge	.L4
  68 0020 6569     		ldr	r5, [r4, #20]	@ float
  69              	.L5:
  70              		.loc 1 188 0
  71 0022 25F00040 		bic	r0, r5, #-2147483648
  72 0026 A16A     		ldr	r1, [r4, #40]	@ float
  73 0028 FFF7FEFF 		bl	__aeabi_fcmplt
  74              	.LVL2:
  75 002c 08B1     		cbz	r0, .L8
  76              		.loc 1 189 0
  77 002e 0025     		movs	r5, #0
  78 0030 6561     		str	r5, [r4, #20]	@ float
  79              	.L8:
  80              		.loc 1 192 0
  81 0032 A768     		ldr	r7, [r4, #8]	@ float
  82 0034 0026     		movs	r6, #0
  83 0036 3846     		mov	r0, r7
  84 0038 3146     		mov	r1, r6
  85 003a FFF7FEFF 		bl	__aeabi_fcmpeq
  86              	.LVL3:
  87 003e 0028     		cmp	r0, #0
  88 0040 40F09E80 		bne	.L39
  89              		.loc 1 194 0
  90 0044 E169     		ldr	r1, [r4, #28]	@ float
  91 0046 2846     		mov	r0, r5
  92 0048 FFF7FEFF 		bl	__aeabi_fadd
  93              	.LVL4:
  94              		.loc 1 197 0
  95 004c D4F820A0 		ldr	sl, [r4, #32]	@ float
  96              		.loc 1 194 0
  97 0050 8146     		mov	r9, r0
  98 0052 C4F81C90 		str	r9, [r4, #28]	@ float
  99              		.loc 1 197 0
 100 0056 20F00040 		bic	r0, r0, #-2147483648
 101 005a 5146     		mov	r1, sl
 102              		.loc 1 194 0
 103 005c C846     		mov	r8, r9
 104              		.loc 1 197 0
 105 005e FFF7FEFF 		bl	__aeabi_fcmpgt
 106              	.LVL5:
 107 0062 98B1     		cbz	r0, .L12
 108              	.LVL6:
 109              	.LBB12:
 110              	.LBB13:
 111              		.loc 1 74 0
 112 0064 3146     		mov	r1, r6
 113 0066 4846     		mov	r0, r9
 114 0068 FFF7FEFF 		bl	__aeabi_fcmpeq
ARM GAS  /var/folders/pt/gxfsd_x53tx3h6kb8dkzftl80000gr/T//ccIsmMR6.s 			page 3


 115              	.LVL7:
 116 006c 3146     		mov	r1, r6
 117 006e 40B9     		cbnz	r0, .L14
 118              		.loc 1 75 0
 119 0070 3146     		mov	r1, r6
 120 0072 4846     		mov	r0, r9
 121 0074 FFF7FEFF 		bl	__aeabi_fcmpgt
 122              	.LVL8:
 123 0078 4FF07E51 		mov	r1, #1065353216
 124 007c 0028     		cmp	r0, #0
 125 007e 00F0B080 		beq	.L45
 126              	.L14:
 127              	.LBE13:
 128              	.LBE12:
 129              		.loc 1 198 0
 130 0082 5046     		mov	r0, sl
 131 0084 FFF7FEFF 		bl	__aeabi_fmul
 132              	.LVL9:
 133 0088 8046     		mov	r8, r0
 134              	.LVL10:
 135 008a E061     		str	r0, [r4, #28]	@ float
 136              	.LVL11:
 137              	.L12:
 138              		.loc 1 204 0
 139 008c A169     		ldr	r1, [r4, #24]	@ float
 140 008e 2846     		mov	r0, r5
 141 0090 FFF7FEFF 		bl	__aeabi_fsub
 142              	.LVL12:
 143              		.loc 1 205 0
 144 0094 A561     		str	r5, [r4, #24]	@ float
 145              		.loc 1 204 0
 146 0096 0646     		mov	r6, r0
 147 0098 6062     		str	r0, [r4, #36]	@ float
 148              		.loc 1 208 0
 149 009a 6168     		ldr	r1, [r4, #4]	@ float
 150 009c 2846     		mov	r0, r5
 151 009e FFF7FEFF 		bl	__aeabi_fmul
 152              	.LVL13:
 153 00a2 4146     		mov	r1, r8
 154 00a4 0546     		mov	r5, r0
 155 00a6 3846     		mov	r0, r7
 156 00a8 FFF7FEFF 		bl	__aeabi_fmul
 157              	.LVL14:
 158 00ac 0146     		mov	r1, r0
 159 00ae 2846     		mov	r0, r5
 160 00b0 FFF7FEFF 		bl	__aeabi_fadd
 161              	.LVL15:
 162 00b4 E168     		ldr	r1, [r4, #12]	@ float
 163 00b6 0546     		mov	r5, r0
 164 00b8 3046     		mov	r0, r6
 165 00ba FFF7FEFF 		bl	__aeabi_fmul
 166              	.LVL16:
 167 00be 0146     		mov	r1, r0
 168 00c0 2846     		mov	r0, r5
 169 00c2 FFF7FEFF 		bl	__aeabi_fadd
 170              	.LVL17:
 171 00c6 2169     		ldr	r1, [r4, #16]	@ float
ARM GAS  /var/folders/pt/gxfsd_x53tx3h6kb8dkzftl80000gr/T//ccIsmMR6.s 			page 4


 172 00c8 FFF7FEFF 		bl	__aeabi_fadd
 173              	.LVL18:
 174              		.loc 1 211 0
 175 00cc 4FF07E51 		mov	r1, #1065353216
 176              		.loc 1 208 0
 177 00d0 0546     		mov	r5, r0
 178              		.loc 1 211 0
 179 00d2 20F00040 		bic	r0, r0, #-2147483648
 180 00d6 FFF7FEFF 		bl	__aeabi_fcmpgt
 181              	.LVL19:
 182 00da 0028     		cmp	r0, #0
 183 00dc 63D0     		beq	.L46
 184              	.LVL20:
 185              	.LBB15:
 186              	.LBB16:
 187              		.loc 1 74 0
 188 00de 2846     		mov	r0, r5
 189 00e0 0021     		movs	r1, #0
 190 00e2 FFF7FEFF 		bl	__aeabi_fcmpeq
 191              	.LVL21:
 192 00e6 0028     		cmp	r0, #0
 193 00e8 4DD1     		bne	.L26
 194              		.loc 1 75 0
 195 00ea 2846     		mov	r0, r5
 196 00ec 0021     		movs	r1, #0
 197 00ee FFF7FEFF 		bl	__aeabi_fcmpgt
 198              	.LVL22:
 199 00f2 0028     		cmp	r0, #0
 200 00f4 79D0     		beq	.L41
 201 00f6 7F26     		movs	r6, #127
 202 00f8 0025     		movs	r5, #0
 203              	.LVL23:
 204 00fa C4F2FE25 		movt	r5, 17150
 205 00fe 3746     		mov	r7, r6
 206 0100 4FF07E53 		mov	r3, #1065353216
 207              	.L18:
 208              	.LBE16:
 209              	.LBE15:
 210              		.loc 1 212 0
 211 0104 E362     		str	r3, [r4, #44]	@ float
 212              	.L17:
 213              		.loc 1 230 0
 214 0106 424B     		ldr	r3, .L49+8
 215              		.loc 1 215 0
 216 0108 2786     		strh	r7, [r4, #48]	@ movhi
 217              		.loc 1 230 0
 218 010a 33F91600 		ldrsh	r0, [r3, r6, lsl #1]
 219 010e FFF7FEFF 		bl	__aeabi_i2f
 220              	.LVL24:
 221              	.LBB19:
 222              	.LBB20:
 223              		.loc 1 74 0
 224 0112 0021     		movs	r1, #0
 225              	.LBE20:
 226              	.LBE19:
 227              		.loc 1 230 0
 228 0114 0646     		mov	r6, r0
ARM GAS  /var/folders/pt/gxfsd_x53tx3h6kb8dkzftl80000gr/T//ccIsmMR6.s 			page 5


 229              	.LVL25:
 230              	.LBB23:
 231              	.LBB21:
 232              		.loc 1 74 0
 233 0116 2846     		mov	r0, r5
 234 0118 FFF7FEFF 		bl	__aeabi_fcmpeq
 235              	.LVL26:
 236 011c 0028     		cmp	r0, #0
 237 011e 6ED1     		bne	.L47
 238              		.loc 1 75 0
 239 0120 0021     		movs	r1, #0
 240 0122 2846     		mov	r0, r5
 241 0124 FFF7FEFF 		bl	__aeabi_fcmpgt
 242              	.LVL27:
 243 0128 4FF07E51 		mov	r1, #1065353216
 244 012c 88B9     		cbnz	r0, .L20
 245 012e 0021     		movs	r1, #0
 246 0130 CBF68071 		movt	r1, 49024
 247 0134 0DE0     		b	.L20
 248              	.LVL28:
 249              	.L3:
 250              	.LBE21:
 251              	.LBE23:
 252              		.loc 1 226 0
 253 0136 0386     		strh	r3, [r0, #48]	@ movhi
 254              		.loc 1 230 0
 255 0138 354B     		ldr	r3, .L49+8
 256              		.loc 1 221 0
 257 013a 0025     		movs	r5, #0
 258 013c 4561     		str	r5, [r0, #20]	@ float
 259              		.loc 1 222 0
 260 013e 8561     		str	r5, [r0, #24]	@ float
 261              		.loc 1 223 0
 262 0140 C561     		str	r5, [r0, #28]	@ float
 263              		.loc 1 224 0
 264 0142 4562     		str	r5, [r0, #36]	@ float
 265              		.loc 1 225 0
 266 0144 C562     		str	r5, [r0, #44]	@ float
 267              		.loc 1 230 0
 268 0146 B3F90000 		ldrsh	r0, [r3, #0]
 269              	.LVL29:
 270 014a FFF7FEFF 		bl	__aeabi_i2f
 271              	.LVL30:
 272              		.loc 1 74 0
 273 014e 2946     		mov	r1, r5
 274              		.loc 1 230 0
 275 0150 0646     		mov	r6, r0
 276              	.LVL31:
 277              	.L20:
 278 0152 3046     		mov	r0, r6
 279 0154 FFF7FEFF 		bl	__aeabi_fmul
 280              	.LVL32:
 281 0158 FFF7FEFF 		bl	__aeabi_f2iz
 282              	.LVL33:
 283 015c 83B2     		uxth	r3, r0
 284 015e 6086     		strh	r0, [r4, #50]	@ movhi
 285              		.loc 1 234 0
ARM GAS  /var/folders/pt/gxfsd_x53tx3h6kb8dkzftl80000gr/T//ccIsmMR6.s 			page 6


 286 0160 18B2     		sxth	r0, r3
 287 0162 BDE8F087 		pop	{r4, r5, r6, r7, r8, r9, sl, pc}
 288              	.L4:
 289              		.loc 1 171 0
 290 0166 FFF7FEFF 		bl	vexSensorValueGet
 291              	.LVL34:
 292              		.loc 1 174 0
 293 016a B4F93630 		ldrsh	r3, [r4, #54]
 294              		.loc 1 171 0
 295 016e A063     		str	r0, [r4, #56]
 296              		.loc 1 174 0
 297 0170 73B9     		cbnz	r3, .L48
 298              	.L6:
 299              		.loc 1 184 0
 300 0172 E36B     		ldr	r3, [r4, #60]
 301 0174 181A     		subs	r0, r3, r0
 302 0176 FFF7FEFF 		bl	__aeabi_i2f
 303              	.LVL35:
 304 017a 0546     		mov	r5, r0
 305 017c 6061     		str	r0, [r4, #20]	@ float
 306 017e 50E7     		b	.L5
 307              	.L39:
 308              		.loc 1 201 0
 309 0180 E661     		str	r6, [r4, #28]	@ float
 310 0182 B046     		mov	r8, r6
 311 0184 82E7     		b	.L12
 312              	.LVL36:
 313              	.L26:
 314              	.LBB24:
 315              	.LBB17:
 316              		.loc 1 74 0
 317 0186 0025     		movs	r5, #0
 318              	.LVL37:
 319 0188 0026     		movs	r6, #0
 320 018a 3746     		mov	r7, r6
 321 018c 2B46     		mov	r3, r5
 322 018e B9E7     		b	.L18
 323              	.L48:
 324              	.LBE17:
 325              	.LBE24:
 326              		.loc 1 176 0
 327 0190 94F93400 		ldrsb	r0, [r4, #52]
 328 0194 FFF7FEFF 		bl	vexSensorIsAnalog
 329              	.LVL38:
 330 0198 F8B1     		cbz	r0, .L7
 331              		.loc 1 178 0
 332 019a A06B     		ldr	r0, [r4, #56]
 333 019c C0F57F60 		rsb	r0, r0, #4080
 334 01a0 0F30     		adds	r0, r0, #15
 335 01a2 A063     		str	r0, [r4, #56]
 336 01a4 E5E7     		b	.L6
 337              	.L46:
 338              		.loc 1 208 0
 339 01a6 E562     		str	r5, [r4, #44]	@ float
 340 01a8 2846     		mov	r0, r5
 341 01aa FFF7FEFF 		bl	__aeabi_f2d
 342              	.LVL39:
ARM GAS  /var/folders/pt/gxfsd_x53tx3h6kb8dkzftl80000gr/T//ccIsmMR6.s 			page 7


 343 01ae 16A3     		adr	r3, .L49
 344 01b0 D3E90023 		ldrd	r2, [r3]
 345 01b4 FFF7FEFF 		bl	__aeabi_dmul
 346              	.LVL40:
 347 01b8 FFF7FEFF 		bl	__aeabi_d2iz
 348              	.LVL41:
 349 01bc 06B2     		sxth	r6, r0
 350 01be 0746     		mov	r7, r0	@ movhi
 351 01c0 3046     		mov	r0, r6
 352 01c2 FFF7FEFF 		bl	__aeabi_i2f
 353              	.LVL42:
 354 01c6 BFB2     		uxth	r7, r7
 355 01c8 002E     		cmp	r6, #0
 356 01ca B8BF     		it	lt
 357 01cc 7642     		rsblt	r6, r6, #0
 358 01ce 0546     		mov	r5, r0
 359 01d0 99E7     		b	.L17
 360              	.LVL43:
 361              	.L23:
 362              		.loc 1 162 0
 363 01d2 0346     		mov	r3, r0
 364              		.loc 1 234 0
 365 01d4 18B2     		sxth	r0, r3
 366              	.LVL44:
 367 01d6 BDE8F087 		pop	{r4, r5, r6, r7, r8, r9, sl, pc}
 368              	.L7:
 369              		.loc 1 181 0
 370 01da A06B     		ldr	r0, [r4, #56]
 371 01dc 4042     		negs	r0, r0
 372 01de A063     		str	r0, [r4, #56]
 373 01e0 C7E7     		b	.L6
 374              	.LVL45:
 375              	.L45:
 376              	.LBB25:
 377              	.LBB14:
 378              		.loc 1 75 0
 379 01e2 0021     		movs	r1, #0
 380 01e4 CBF68071 		movt	r1, 49024
 381 01e8 4BE7     		b	.L14
 382              	.LVL46:
 383              	.L41:
 384              	.LBE14:
 385              	.LBE25:
 386              	.LBB26:
 387              	.LBB18:
 388 01ea 0025     		movs	r5, #0
 389              	.LVL47:
 390 01ec 0023     		movs	r3, #0
 391 01ee CCF2FE25 		movt	r5, 49918
 392 01f2 CBF68073 		movt	r3, 49024
 393 01f6 7F26     		movs	r6, #127
 394 01f8 4FF68177 		movw	r7, #65409
 395 01fc 82E7     		b	.L18
 396              	.LVL48:
 397              	.L47:
 398              	.LBE18:
 399              	.LBE26:
ARM GAS  /var/folders/pt/gxfsd_x53tx3h6kb8dkzftl80000gr/T//ccIsmMR6.s 			page 8


 400              	.LBB27:
 401              	.LBB22:
 402              		.loc 1 74 0
 403 01fe 0021     		movs	r1, #0
 404 0200 A7E7     		b	.L20
 405              	.L50:
 406 0202 00BFAFF3 		.align	3
 406      0080
 407              	.L49:
 408 0208 00000000 		.word	0
 409 020c 00C05F40 		.word	1080016896
 410 0210 00000000 		.word	.LANCHOR0
 411              	.LBE22:
 412              	.LBE27:
 413              		.cfi_endproc
 414              	.LFE71:
 415              		.size	PidControllerUpdate, .-PidControllerUpdate
 416              		.global	__aeabi_fdiv
 417              		.global	__aeabi_f2uiz
 418              		.global	__aeabi_dsub
 419              		.global	__aeabi_ddiv
 420              		.global	__aeabi_dadd
 421 0214 AFF30080 		.section	.text.PidControllerMakeLut,"ax",%progbits
 421      AFF30080 
 421      AFF30080 
 422              		.align	2
 423              		.p2align 4,,15
 424              		.global	PidControllerMakeLut
 425              		.thumb
 426              		.thumb_func
 427              		.type	PidControllerMakeLut, %function
 428              	PidControllerMakeLut:
 429              	.LFB72:
 430              		.loc 1 243 0
 431              		.cfi_startproc
 432              		@ args = 0, pretend = 0, frame = 0
 433              		@ frame_needed = 0, uses_anonymous_args = 0
 434              	.LVL49:
 435 0000 2DE9F84F 		push	{r3, r4, r5, r6, r7, r8, r9, sl, fp, lr}
 436              	.LCFI1:
 437              		.cfi_def_cfa_offset 40
 438              		.cfi_offset 3, -40
 439              		.cfi_offset 4, -36
 440              		.cfi_offset 5, -32
 441              		.cfi_offset 6, -28
 442              		.cfi_offset 7, -24
 443              		.cfi_offset 8, -20
 444              		.cfi_offset 9, -16
 445              		.cfi_offset 10, -12
 446              		.cfi_offset 11, -8
 447              		.cfi_offset 14, -4
 448              		.loc 1 243 0
 449 0004 0024     		movs	r4, #0
 450 0006 DFF824A1 		ldr	sl, .L66
 451              		.loc 1 247 0
 452 000a 2646     		mov	r6, r4
 453 000c 63E0     		b	.L57
ARM GAS  /var/folders/pt/gxfsd_x53tx3h6kb8dkzftl80000gr/T//ccIsmMR6.s 			page 9


 454              	.LVL50:
 455              	.L65:
 456 000e 2846     		mov	r0, r5
 457 0010 FFF7FEFF 		bl	__aeabi_f2iz
 458              	.LVL51:
 459 0014 FFF7FEFF 		bl	__aeabi_i2f
 460              	.LVL52:
 461 0018 0146     		mov	r1, r0
 462 001a 2846     		mov	r0, r5
 463 001c FFF7FEFF 		bl	__aeabi_fsub
 464              	.LVL53:
 465 0020 48F65141 		movw	r1, #35921
 466 0024 8146     		mov	r9, r0
 467 0026 C4F2F221 		movt	r1, 17138
 468 002a 2846     		mov	r0, r5
 469 002c FFF7FEFF 		bl	__aeabi_fadd
 470              	.LVL54:
 471 0030 8346     		mov	fp, r0
 472              	.L54:
 473              	.LVL55:
 474              		.loc 1 254 0
 475 0032 042F     		cmp	r7, #4
 476              	.LBB34:
 477              	.LBB35:
 478              	.LBB36:
 479              	.LBB37:
 480              		.file 2 "convex/convex/cortex/opt/fastmath.c"
 481              		.loc 2 64 0
 482 0034 4046     		mov	r0, r8
 483 0036 4946     		mov	r1, r9
 484              	.LBE37:
 485              	.LBE36:
 486              	.LBE35:
 487              	.LBE34:
 488              		.loc 1 257 0
 489 0038 D8BF     		it	le
 490 003a 2AF80440 		strhle	r4, [sl, r4]	@ movhi
 491              		.loc 1 254 0
 492 003e 44DD     		ble	.L56
 493              	.LVL56:
 494              	.LBB46:
 495              	.LBB44:
 496              	.LBB41:
 497              	.LBB38:
 498              		.loc 2 64 0
 499 0040 FFF7FEFF 		bl	__aeabi_fadd
 500              	.LVL57:
 501              		.loc 2 65 0
 502 0044 0146     		mov	r1, r0
 503              		.loc 2 64 0
 504 0046 0546     		mov	r5, r0
 505              	.LVL58:
 506              		.loc 2 65 0
 507 0048 4FF2F850 		movw	r0, #62968
 508 004c C4F29A00 		movt	r0, 16538
 509 0050 FFF7FEFF 		bl	__aeabi_fsub
 510              	.LVL59:
ARM GAS  /var/folders/pt/gxfsd_x53tx3h6kb8dkzftl80000gr/T//ccIsmMR6.s 			page 10


 511 0054 0146     		mov	r1, r0
 512 0056 4DF2FE20 		movw	r0, #54014
 513 005a C4F2DD10 		movt	r0, 16861
 514 005e FFF7FEFF 		bl	__aeabi_fdiv
 515              	.LVL60:
 516 0062 5946     		mov	r1, fp
 517 0064 FFF7FEFF 		bl	__aeabi_fadd
 518              	.LVL61:
 519 0068 4BF68D41 		movw	r1, #48269
 520 006c 0746     		mov	r7, r0
 521 006e C3F6BE71 		movt	r1, 16318
 522 0072 2846     		mov	r0, r5
 523 0074 FFF7FEFF 		bl	__aeabi_fmul
 524              	.LVL62:
 525 0078 0146     		mov	r1, r0
 526 007a 3846     		mov	r0, r7
 527 007c FFF7FEFF 		bl	__aeabi_fsub
 528              	.LVL63:
 529 0080 4FF09641 		mov	r1, #1258291200
 530 0084 FFF7FEFF 		bl	__aeabi_fmul
 531              	.LVL64:
 532 0088 FFF7FEFF 		bl	__aeabi_f2uiz
 533              	.LVL65:
 534              	.LBE38:
 535              	.LBE41:
 536              	.LBE44:
 537              	.LBE46:
 538              		.loc 1 255 0
 539 008c FFF7FEFF 		bl	__aeabi_f2d
 540              	.LVL66:
 541 0090 0023     		movs	r3, #0
 542 0092 0022     		movs	r2, #0
 543 0094 C3F6F073 		movt	r3, 16368
 544 0098 FFF7FEFF 		bl	__aeabi_dsub
 545              	.LVL67:
 546 009c 0023     		movs	r3, #0
 547 009e 0022     		movs	r2, #0
 548 00a0 C4F23303 		movt	r3, 16435
 549 00a4 FFF7FEFF 		bl	__aeabi_ddiv
 550              	.LVL68:
 551 00a8 4FF48043 		mov	r3, #16384
 552 00ac 0022     		movs	r2, #0
 553 00ae C4F25D03 		movt	r3, 16477
 554 00b2 FFF7FEFF 		bl	__aeabi_dmul
 555              	.LVL69:
 556 00b6 0023     		movs	r3, #0
 557 00b8 0022     		movs	r2, #0
 558 00ba C4F22403 		movt	r3, 16420
 559 00be FFF7FEFF 		bl	__aeabi_dadd
 560              	.LVL70:
 561 00c2 FFF7FEFF 		bl	__aeabi_d2iz
 562              	.LVL71:
 563 00c6 2AF80400 		strh	r0, [sl, r4]	@ movhi
 564              	.L56:
 565 00ca 0234     		adds	r4, r4, #2
 566              		.loc 1 247 0
 567 00cc 0136     		adds	r6, r6, #1
ARM GAS  /var/folders/pt/gxfsd_x53tx3h6kb8dkzftl80000gr/T//ccIsmMR6.s 			page 11


 568              	.LVL72:
 569 00ce B4F5807F 		cmp	r4, #256
 570 00d2 B6B2     		uxth	r6, r6
 571              	.LVL73:
 572 00d4 28D0     		beq	.L63
 573              	.LVL74:
 574              	.L57:
 575              		.loc 1 252 0
 576 00d6 37B2     		sxth	r7, r6
 577 00d8 3846     		mov	r0, r7
 578 00da FFF7FEFF 		bl	__aeabi_i2f
 579              	.LVL75:
 580 00de 0021     		movs	r1, #0
 581 00e0 C4F2FE21 		movt	r1, 17150
 582 00e4 FFF7FEFF 		bl	__aeabi_fdiv
 583              	.LVL76:
 584              	.LBB47:
 585              	.LBB45:
 586              		.loc 2 93 0
 587 00e8 44F6B741 		movw	r1, #19639
 588 00ec C4F28A01 		movt	r1, 16522
 589 00f0 FFF7FEFF 		bl	__aeabi_fmul
 590              	.LVL77:
 591              	.LBB42:
 592              	.LBB39:
 593              		.loc 2 61 0
 594 00f4 0021     		movs	r1, #0
 595              	.LBE39:
 596              	.LBE42:
 597              		.loc 2 93 0
 598 00f6 0546     		mov	r5, r0
 599              	.LVL78:
 600              	.LBB43:
 601              	.LBB40:
 602              		.loc 2 61 0
 603 00f8 FFF7FEFF 		bl	__aeabi_fcmplt
 604              	.LVL79:
 605 00fc 4FF00008 		mov	r8, #0
 606 0100 78B9     		cbnz	r0, .L64
 607              	.L52:
 608              	.LVL80:
 609              		.loc 2 62 0
 610 0102 0021     		movs	r1, #0
 611 0104 CCF2FC21 		movt	r1, 49916
 612 0108 2846     		mov	r0, r5
 613 010a FFF7FEFF 		bl	__aeabi_fcmplt
 614              	.LVL81:
 615 010e 0028     		cmp	r0, #0
 616 0110 3FF47DAF 		beq	.L65
 617 0114 43F6F02B 		movw	fp, #15088
 618 0118 CCF2970B 		movt	fp, 49303
 619 011c 4FF00009 		mov	r9, #0
 620 0120 87E7     		b	.L54
 621              	.LVL82:
 622              	.L64:
 623              		.loc 2 61 0
 624 0122 4FF07E58 		mov	r8, #1065353216
ARM GAS  /var/folders/pt/gxfsd_x53tx3h6kb8dkzftl80000gr/T//ccIsmMR6.s 			page 12


 625 0126 ECE7     		b	.L52
 626              	.LVL83:
 627              	.L63:
 628              	.LBE40:
 629              	.LBE43:
 630              	.LBE45:
 631              	.LBE47:
 632              		.loc 1 265 0
 633 0128 BDE8F88F 		pop	{r3, r4, r5, r6, r7, r8, r9, sl, fp, pc}
 634              	.L67:
 635              		.align	2
 636              	.L66:
 637 012c 00000000 		.word	.LANCHOR0
 638              		.cfi_endproc
 639              	.LFE72:
 640              		.size	PidControllerMakeLut, .-PidControllerMakeLut
 641              		.section	.text.PidControllerInit,"ax",%progbits
 642              		.align	2
 643              		.p2align 4,,15
 644              		.global	PidControllerInit
 645              		.thumb
 646              		.thumb_func
 647              		.type	PidControllerInit, %function
 648              	PidControllerInit:
 649              	.LFB69:
 650              		.loc 1 88 0
 651              		.cfi_startproc
 652              		@ args = 4, pretend = 0, frame = 0
 653              		@ frame_needed = 0, uses_anonymous_args = 0
 654              	.LVL84:
 655 0000 2DE9F843 		push	{r3, r4, r5, r6, r7, r8, r9, lr}
 656              	.LCFI2:
 657              		.cfi_def_cfa_offset 32
 658              		.cfi_offset 3, -32
 659              		.cfi_offset 4, -28
 660              		.cfi_offset 5, -24
 661              		.cfi_offset 6, -20
 662              		.cfi_offset 7, -16
 663              		.cfi_offset 8, -12
 664              		.cfi_offset 9, -8
 665              		.cfi_offset 14, -4
 666              		.loc 1 88 0
 667 0004 0E46     		mov	r6, r1
 668 0006 0746     		mov	r7, r0
 669              		.loc 1 97 0
 670 0008 4021     		movs	r1, #64
 671              	.LVL85:
 672 000a 0020     		movs	r0, #0
 673              	.LVL86:
 674              		.loc 1 88 0
 675 000c 9046     		mov	r8, r2
 676 000e 9946     		mov	r9, r3
 677              		.loc 1 97 0
 678 0010 FFF7FEFF 		bl	chHeapAlloc
 679              	.LVL87:
 680              		.loc 1 104 0
 681 0014 0025     		movs	r5, #0
ARM GAS  /var/folders/pt/gxfsd_x53tx3h6kb8dkzftl80000gr/T//ccIsmMR6.s 			page 13


 682              		.loc 1 112 0
 683 0016 0022     		movs	r2, #0
 684              		.loc 1 97 0
 685 0018 0446     		mov	r4, r0
 686              	.LVL88:
 687              		.loc 1 101 0
 688 001a 4760     		str	r7, [r0, #4]	@ float
 689              		.loc 1 102 0
 690 001c 8660     		str	r6, [r0, #8]	@ float
 691              		.loc 1 103 0
 692 001e C0F80C80 		str	r8, [r0, #12]	@ float
 693              		.loc 1 104 0
 694 0022 0561     		str	r5, [r0, #16]	@ float
 695              		.loc 1 107 0
 696 0024 4561     		str	r5, [r0, #20]	@ float
 697              		.loc 1 108 0
 698 0026 8561     		str	r5, [r0, #24]	@ float
 699              		.loc 1 109 0
 700 0028 C561     		str	r5, [r0, #28]	@ float
 701              		.loc 1 110 0
 702 002a 4562     		str	r5, [r0, #36]	@ float
 703              		.loc 1 111 0
 704 002c C562     		str	r5, [r0, #44]	@ float
 705              		.loc 1 112 0
 706 002e 4286     		strh	r2, [r0, #50]	@ movhi
 707              		.loc 1 113 0
 708 0030 2946     		mov	r1, r5
 709 0032 3046     		mov	r0, r6
 710              	.LVL89:
 711 0034 FFF7FEFF 		bl	__aeabi_fcmpeq
 712              	.LVL90:
 713 0038 C0B9     		cbnz	r0, .L73
 714              		.loc 1 114 0
 715 003a 4FF07A50 		mov	r0, #1048576000
 716 003e 3146     		mov	r1, r6
 717 0040 FFF7FEFF 		bl	__aeabi_fdiv
 718              	.LVL91:
 719 0044 2062     		str	r0, [r4, #32]	@ float
 720              	.L71:
 721              		.loc 1 118 0
 722 0046 0023     		movs	r3, #0
 723 0048 C4F22013 		movt	r3, 16672
 724 004c A362     		str	r3, [r4, #40]	@ float
 725              		.loc 1 122 0
 726 004e BDF92030 		ldrsh	r3, [sp, #32]
 727              		.loc 1 123 0
 728 0052 0022     		movs	r2, #0
 729              		.loc 1 122 0
 730 0054 E386     		strh	r3, [r4, #54]	@ movhi
 731              		.loc 1 130 0
 732 0056 0123     		movs	r3, #1
 733              		.loc 1 121 0
 734 0058 84F83490 		strb	r9, [r4, #52]
 735              		.loc 1 123 0
 736 005c A263     		str	r2, [r4, #56]
 737              		.loc 1 125 0
 738 005e E263     		str	r2, [r4, #60]
ARM GAS  /var/folders/pt/gxfsd_x53tx3h6kb8dkzftl80000gr/T//ccIsmMR6.s 			page 14


 739              		.loc 1 130 0
 740 0060 2380     		strh	r3, [r4, #0]	@ movhi
 741              		.loc 1 134 0
 742 0062 FFF7FEFF 		bl	PidControllerMakeLut
 743              	.LVL92:
 744              		.loc 1 137 0
 745 0066 2046     		mov	r0, r4
 746 0068 BDE8F883 		pop	{r3, r4, r5, r6, r7, r8, r9, pc}
 747              	.L73:
 748              		.loc 1 116 0
 749 006c 2562     		str	r5, [r4, #32]	@ float
 750 006e EAE7     		b	.L71
 751              		.cfi_endproc
 752              	.LFE69:
 753              		.size	PidControllerInit, .-PidControllerInit
 754              		.section	.text.PidControllerInitWithBias,"ax",%progbits
 755              		.align	2
 756              		.p2align 4,,15
 757              		.global	PidControllerInitWithBias
 758              		.thumb
 759              		.thumb_func
 760              		.type	PidControllerInitWithBias, %function
 761              	PidControllerInitWithBias:
 762              	.LFB70:
 763              		.loc 1 145 0
 764              		.cfi_startproc
 765              		@ args = 8, pretend = 0, frame = 0
 766              		@ frame_needed = 0, uses_anonymous_args = 0
 767              	.LVL93:
 768 0000 30B5     		push	{r4, r5, lr}
 769              	.LCFI3:
 770              		.cfi_def_cfa_offset 12
 771              		.cfi_offset 4, -12
 772              		.cfi_offset 5, -8
 773              		.cfi_offset 14, -4
 774 0002 83B0     		sub	sp, sp, #12
 775              	.LCFI4:
 776              		.cfi_def_cfa_offset 24
 777              		.loc 1 147 0
 778 0004 BDF91C40 		ldrsh	r4, [sp, #28]
 779              		.loc 1 145 0
 780 0008 1D46     		mov	r5, r3
 781              		.loc 1 147 0
 782 000a 0094     		str	r4, [sp, #0]
 783 000c 9DF91830 		ldrsb	r3, [sp, #24]
 784              	.LVL94:
 785 0010 FFF7FEFF 		bl	PidControllerInit
 786              	.LVL95:
 787              		.loc 1 148 0
 788 0014 00B1     		cbz	r0, .L75
 789              		.loc 1 149 0
 790 0016 0561     		str	r5, [r0, #16]	@ float
 791              	.L75:
 792              		.loc 1 152 0
 793 0018 03B0     		add	sp, sp, #12
 794 001a 30BD     		pop	{r4, r5, pc}
 795              		.cfi_endproc
ARM GAS  /var/folders/pt/gxfsd_x53tx3h6kb8dkzftl80000gr/T//ccIsmMR6.s 			page 15


 796              	.LFE70:
 797              		.size	PidControllerInitWithBias, .-PidControllerInitWithBias
 798 001c AFF30080 		.section	.bss.PidDriveLut,"aw",%nobits
 799              		.align	2
 800              		.set	.LANCHOR0,. + 0
 801              		.type	PidDriveLut, %object
 802              		.size	PidDriveLut, 256
 803              	PidDriveLut:
 804 0000 00000000 		.space	256
 804      00000000 
 804      00000000 
 804      00000000 
 804      00000000 
 805              		.text
 806              	.Letext0:
 807              		.file 3 "/Users/programmer/ConVEX/yagarto-4.7.2/bin/../lib/gcc/arm-none-eabi/4.7.2/include/stddef.
 808              		.file 4 "/Users/programmer/ConVEX/yagarto-4.7.2/bin/../lib/gcc/arm-none-eabi/4.7.2/../../../../arm
 809              		.file 5 "convex/ChibiOS_2.6.2/os/ports/GCC/ARMCMx/chtypes.h"
 810              		.file 6 "convex/ChibiOS_2.6.2/os/kernel/include/chlists.h"
 811              		.file 7 "convex/ChibiOS_2.6.2/os/kernel/include/chthreads.h"
 812              		.file 8 "convex/ChibiOS_2.6.2/os/ports/GCC/ARMCMx/chcore_v7m.h"
 813              		.file 9 "convex/ChibiOS_2.6.2/os/kernel/include/chmtx.h"
 814              		.file 10 "convex/ChibiOS_2.6.2/os/kernel/include/chmemcore.h"
 815              		.file 11 "convex/ChibiOS_2.6.2/os/kernel/include/chheap.h"
 816              		.file 12 "convex/convex/cortex/fw/vexsensor.h"
 817              		.file 13 "convex/convex/cortex/opt/pidlib.h"
 818              		.file 14 "convex/ChibiOS_2.6.2/os/ports/common/ARMCMx/CMSIS/include/core_cm3.h"