ARM GAS  /var/folders/pt/gxfsd_x53tx3h6kb8dkzftl80000gr/T//ccZJqWqS.s 			page 1


   1              		.syntax unified
   2              		.cpu cortex-m3
   3              		.fpu softvfp
   4              		.eabi_attribute 20, 1
   5              		.eabi_attribute 21, 1
   6              		.eabi_attribute 23, 3
   7              		.eabi_attribute 24, 1
   8              		.eabi_attribute 25, 1
   9              		.eabi_attribute 26, 1
  10              		.eabi_attribute 30, 2
  11              		.eabi_attribute 34, 1
  12              		.eabi_attribute 18, 4
  13              		.thumb
  14              		.file	"robotc_glue.c"
  15              		.text
  16              	.Ltext0:
  17              		.cfi_sections	.debug_frame
  18              		.section	.text.vexRobotcTask,"ax",%progbits
  19              		.align	2
  20              		.p2align 4,,15
  21              		.thumb
  22              		.thumb_func
  23              		.type	vexRobotcTask, %function
  24              	vexRobotcTask:
  25              	.LFB63:
  26              		.file 1 "convex/convex/cortex/opt/robotc_glue.c"
  27              		.loc 1 84 0
  28              		.cfi_startproc
  29              		@ args = 0, pretend = 0, frame = 0
  30              		@ frame_needed = 0, uses_anonymous_args = 0
  31              	.LVL0:
  32 0000 10B5     		push	{r4, lr}
  33              	.LCFI0:
  34              		.cfi_def_cfa_offset 8
  35              		.cfi_offset 4, -8
  36              		.cfi_offset 14, -4
  37              		.loc 1 86 0
  38 0002 0446     		mov	r4, r0
  39 0004 28B1     		cbz	r0, .L3
  40              	.LVL1:
  41              	.LBB2:
  42              		.loc 1 90 0
  43 0006 0348     		ldr	r0, .L5
  44              	.LVL2:
  45 0008 FFF7FEFF 		bl	vexTaskRegister
  46              	.LVL3:
  47              		.loc 1 93 0
  48 000c 0020     		movs	r0, #0
  49 000e A047     		blx	r4
  50              	.LVL4:
  51 0010 10BD     		pop	{r4, pc}
  52              	.LVL5:
  53              	.L3:
  54              	.LBE2:
  55              		.loc 1 97 0
  56 0012 10BD     		pop	{r4, pc}
  57              	.L6:
ARM GAS  /var/folders/pt/gxfsd_x53tx3h6kb8dkzftl80000gr/T//ccZJqWqS.s 			page 2


  58              		.align	2
  59              	.L5:
  60 0014 00000000 		.word	.LC0
  61              		.cfi_endproc
  62              	.LFE63:
  63              		.size	vexRobotcTask, .-vexRobotcTask
  64 0018 AFF30080 		.section	.text.StartTaskWithPriority,"ax",%progbits
  64      AFF30080 
  65              		.align	2
  66              		.p2align 4,,15
  67              		.global	StartTaskWithPriority
  68              		.thumb
  69              		.thumb_func
  70              		.type	StartTaskWithPriority, %function
  71              	StartTaskWithPriority:
  72              	.LFB64:
  73              		.loc 1 107 0
  74              		.cfi_startproc
  75              		@ args = 4, pretend = 12, frame = 0
  76              		@ frame_needed = 0, uses_anonymous_args = 1
  77              	.LVL6:
  78 0000 0EB4     		push	{r1, r2, r3}
  79              	.LCFI1:
  80              		.cfi_def_cfa_offset 12
  81              		.cfi_offset 1, -12
  82              		.cfi_offset 2, -8
  83              		.cfi_offset 3, -4
  84 0002 70B5     		push	{r4, r5, r6, lr}
  85              	.LCFI2:
  86              		.cfi_def_cfa_offset 28
  87              		.cfi_offset 4, -28
  88              		.cfi_offset 5, -24
  89              		.cfi_offset 6, -20
  90              		.cfi_offset 14, -16
  91              		.loc 1 113 0
  92 0004 204E     		ldr	r6, .L29
  93              		.loc 1 107 0
  94 0006 83B0     		sub	sp, sp, #12
  95              	.LCFI3:
  96              		.cfi_def_cfa_offset 40
  97              		.loc 1 113 0
  98 0008 3378     		ldrb	r3, [r6, #0]	@ zero_extendqisi2
  99              		.loc 1 107 0
 100 000a 0546     		mov	r5, r0
 101              		.loc 1 113 0
 102 000c 9BB9     		cbnz	r3, .L25
 103 000e 1F4C     		ldr	r4, .L29+4
 104              	.L8:
 105              	.LVL7:
 106 0010 0023     		movs	r3, #0
 107              	.LVL8:
 108              	.L12:
 109              		.loc 1 127 0
 110 0012 E258     		ldr	r2, [r4, r3]
 111 0014 0833     		adds	r3, r3, #8
 112 0016 AA42     		cmp	r2, r5
 113 0018 07D0     		beq	.L15
ARM GAS  /var/folders/pt/gxfsd_x53tx3h6kb8dkzftl80000gr/T//ccZJqWqS.s 			page 3


 114              		.loc 1 125 0
 115 001a 502B     		cmp	r3, #80
 116 001c F9D1     		bne	.L12
 117 001e 0023     		movs	r3, #0
 118              	.L14:
 119              		.loc 1 134 0
 120 0020 E658     		ldr	r6, [r4, r3]
 121 0022 0833     		adds	r3, r3, #8
 122 0024 9EB1     		cbz	r6, .L13
 123              		.loc 1 132 0
 124 0026 502B     		cmp	r3, #80
 125 0028 FAD1     		bne	.L14
 126              	.LVL9:
 127              	.L15:
 128              		.loc 1 128 0
 129 002a 0020     		movs	r0, #0
 130              	.L26:
 131              		.loc 1 162 0
 132 002c 03B0     		add	sp, sp, #12
 133 002e BDE87040 		pop	{r4, r5, r6, lr}
 134 0032 03B0     		add	sp, sp, #12
 135 0034 7047     		bx	lr
 136              	.LVL10:
 137              	.L25:
 138              		.loc 1 113 0
 139 0036 0023     		movs	r3, #0
 140 0038 144C     		ldr	r4, .L29+4
 141              		.loc 1 117 0
 142 003a 1A46     		mov	r2, r3
 143              	.L9:
 144              		.loc 1 117 0 is_stmt 0 discriminator 2
 145 003c E250     		str	r2, [r4, r3]
 146              		.loc 1 106 0 is_stmt 1 discriminator 2
 147 003e E118     		adds	r1, r4, r3
 148 0040 0833     		adds	r3, r3, #8
 149              		.loc 1 115 0 discriminator 2
 150 0042 502B     		cmp	r3, #80
 151              		.loc 1 118 0 discriminator 2
 152 0044 4A60     		str	r2, [r1, #4]
 153              		.loc 1 115 0 discriminator 2
 154 0046 F9D1     		bne	.L9
 155              		.loc 1 121 0
 156 0048 0023     		movs	r3, #0
 157 004a 3370     		strb	r3, [r6, #0]
 158 004c E0E7     		b	.L8
 159              	.L13:
 160              	.LVL11:
 161              		.loc 1 144 0
 162 004e 104B     		ldr	r3, .L29+8
 163 0050 0095     		str	r5, [sp, #0]
 164 0052 3046     		mov	r0, r6
 165              	.LVL12:
 166 0054 4FF43E71 		mov	r1, #760
 167 0058 079A     		ldr	r2, [sp, #28]
 168 005a FFF7FEFF 		bl	chThdCreateFromHeap
 169              	.LVL13:
 170              		.loc 1 147 0
ARM GAS  /var/folders/pt/gxfsd_x53tx3h6kb8dkzftl80000gr/T//ccZJqWqS.s 			page 4


 171 005e 3346     		mov	r3, r6
 172 0060 0028     		cmp	r0, #0
 173 0062 E2D0     		beq	.L15
 174              		.loc 1 106 0
 175 0064 04EBC302 		add	r2, r4, r3, lsl #3
 176              		.loc 1 152 0
 177 0068 5168     		ldr	r1, [r2, #4]
 178 006a 39B1     		cbz	r1, .L28
 179              	.L16:
 180 006c 0133     		adds	r3, r3, #1
 181              		.loc 1 150 0
 182 006e 0A2B     		cmp	r3, #10
 183 0070 DCD0     		beq	.L26
 184              		.loc 1 106 0
 185 0072 04EBC302 		add	r2, r4, r3, lsl #3
 186              		.loc 1 152 0
 187 0076 5168     		ldr	r1, [r2, #4]
 188 0078 0029     		cmp	r1, #0
 189 007a F7D1     		bne	.L16
 190              	.L28:
 191              		.loc 1 154 0
 192 007c 5060     		str	r0, [r2, #4]
 193              		.loc 1 155 0
 194 007e 034A     		ldr	r2, .L29+4
 195 0080 42F83350 		str	r5, [r2, r3, lsl #3]
 196              		.loc 1 156 0
 197 0084 D2E7     		b	.L26
 198              	.L30:
 199 0086 00BF     		.align	2
 200              	.L29:
 201 0088 00000000 		.word	.LANCHOR0
 202 008c 00000000 		.word	.LANCHOR1
 203 0090 00000000 		.word	vexRobotcTask
 204              		.cfi_endproc
 205              	.LFE64:
 206              		.size	StartTaskWithPriority, .-StartTaskWithPriority
 207 0094 AFF30080 		.section	.text.StopTask,"ax",%progbits
 207      AFF30080 
 207      AFF30080 
 208              		.align	2
 209              		.p2align 4,,15
 210              		.global	StopTask
 211              		.thumb
 212              		.thumb_func
 213              		.type	StopTask, %function
 214              	StopTask:
 215              	.LFB65:
 216              		.loc 1 170 0
 217              		.cfi_startproc
 218              		@ args = 0, pretend = 0, frame = 0
 219              		@ frame_needed = 0, uses_anonymous_args = 0
 220              	.LVL14:
 221 0000 2DE9F84F 		push	{r3, r4, r5, r6, r7, r8, r9, sl, fp, lr}
 222              	.LCFI4:
 223              		.cfi_def_cfa_offset 40
 224              		.cfi_offset 3, -40
 225              		.cfi_offset 4, -36
ARM GAS  /var/folders/pt/gxfsd_x53tx3h6kb8dkzftl80000gr/T//ccZJqWqS.s 			page 5


 226              		.cfi_offset 5, -32
 227              		.cfi_offset 6, -28
 228              		.cfi_offset 7, -24
 229              		.cfi_offset 8, -20
 230              		.cfi_offset 9, -16
 231              		.cfi_offset 10, -12
 232              		.cfi_offset 11, -8
 233              		.cfi_offset 14, -4
 234 0004 144D     		ldr	r5, .L40
 235              		.loc 1 170 0
 236 0006 0024     		movs	r4, #0
 237              		.loc 1 183 0
 238 0008 DFF850B0 		ldr	fp, .L40+4
 239              		.loc 1 170 0
 240 000c 0646     		mov	r6, r0
 241              		.loc 1 176 0
 242 000e A946     		mov	r9, r5
 243              		.loc 1 193 0
 244 0010 A246     		mov	sl, r4
 245 0012 02E0     		b	.L34
 246              	.LVL15:
 247              	.L32:
 248 0014 0834     		adds	r4, r4, #8
 249              		.loc 1 174 0
 250 0016 502C     		cmp	r4, #80
 251 0018 1CD0     		beq	.L31
 252              	.L34:
 253              		.loc 1 176 0
 254 001a 2B59     		ldr	r3, [r5, r4]
 255 001c B342     		cmp	r3, r6
 256 001e F9D1     		bne	.L32
 257              		.loc 1 169 0
 258 0020 09EB0408 		add	r8, r9, r4
 259              		.loc 1 178 0
 260 0024 D8F80470 		ldr	r7, [r8, #4]
 261              	.LVL16:
 262              		.loc 1 187 0
 263 0028 3846     		mov	r0, r7
 264              		.loc 1 178 0
 265 002a 002F     		cmp	r7, #0
 266 002c F2D0     		beq	.L32
 267              		.loc 1 183 0
 268 002e DBF81830 		ldr	r3, [fp, #24]
 269 0032 9F42     		cmp	r7, r3
 270 0034 0ED0     		beq	.L31
 271              		.loc 1 187 0
 272 0036 FFF7FEFF 		bl	chThdTerminate
 273              	.LVL17:
 274              		.loc 1 189 0
 275 003a 3846     		mov	r0, r7
 276 003c FFF7FEFF 		bl	chThdResume
 277              	.LVL18:
 278              		.loc 1 191 0
 279 0040 3846     		mov	r0, r7
 280 0042 FFF7FEFF 		bl	chThdWait
 281              	.LVL19:
 282              		.loc 1 193 0
ARM GAS  /var/folders/pt/gxfsd_x53tx3h6kb8dkzftl80000gr/T//ccZJqWqS.s 			page 6


 283 0046 C8F804A0 		str	sl, [r8, #4]
 284              		.loc 1 194 0
 285 004a 44F809A0 		str	sl, [r4, r9]
 286 004e 0834     		adds	r4, r4, #8
 287              		.loc 1 174 0
 288 0050 502C     		cmp	r4, #80
 289 0052 E2D1     		bne	.L34
 290              	.LVL20:
 291              	.L31:
 292 0054 BDE8F88F 		pop	{r3, r4, r5, r6, r7, r8, r9, sl, fp, pc}
 293              	.L41:
 294              		.align	2
 295              	.L40:
 296 0058 00000000 		.word	.LANCHOR1
 297 005c 00000000 		.word	rlist
 298              		.cfi_endproc
 299              	.LFE65:
 300              		.size	StopTask, .-StopTask
 301              		.section	.text.CleanupTask,"ax",%progbits
 302              		.align	2
 303              		.p2align 4,,15
 304              		.global	CleanupTask
 305              		.thumb
 306              		.thumb_func
 307              		.type	CleanupTask, %function
 308              	CleanupTask:
 309              	.LFB66:
 310              		.loc 1 208 0
 311              		.cfi_startproc
 312              		@ args = 0, pretend = 0, frame = 0
 313              		@ frame_needed = 0, uses_anonymous_args = 0
 314              		@ link register save eliminated.
 315              	.LVL21:
 316 0000 70B4     		push	{r4, r5, r6}
 317              	.LCFI5:
 318              		.cfi_def_cfa_offset 12
 319              		.cfi_offset 4, -12
 320              		.cfi_offset 5, -8
 321              		.cfi_offset 6, -4
 322 0002 074C     		ldr	r4, .L46
 323              		.loc 1 208 0
 324 0004 0023     		movs	r3, #0
 325              		.loc 1 207 0
 326 0006 2646     		mov	r6, r4
 327              		.loc 1 215 0
 328 0008 1D46     		mov	r5, r3
 329              	.LVL22:
 330              	.L44:
 331              		.loc 1 207 0
 332 000a E218     		adds	r2, r4, r3
 333              		.loc 1 213 0
 334 000c 5168     		ldr	r1, [r2, #4]
 335 000e 8142     		cmp	r1, r0
 336              		.loc 1 215 0
 337 0010 04BF     		itt	eq
 338 0012 5560     		streq	r5, [r2, #4]
 339              		.loc 1 216 0
ARM GAS  /var/folders/pt/gxfsd_x53tx3h6kb8dkzftl80000gr/T//ccZJqWqS.s 			page 7


 340 0014 9D51     		streq	r5, [r3, r6]
 341 0016 0833     		adds	r3, r3, #8
 342              		.loc 1 211 0
 343 0018 502B     		cmp	r3, #80
 344 001a F6D1     		bne	.L44
 345              		.loc 1 219 0
 346 001c 70BC     		pop	{r4, r5, r6}
 347 001e 7047     		bx	lr
 348              	.L47:
 349              		.align	2
 350              	.L46:
 351 0020 00000000 		.word	.LANCHOR1
 352              		.cfi_endproc
 353              	.LFE66:
 354              		.size	CleanupTask, .-CleanupTask
 355 0024 AFF30080 		.section	.rodata.str1.4,"aMS",%progbits,1
 355      AFF30080 
 355      AFF30080 
 356              		.align	2
 357              	.LC0:
 358 0000 726F626F 		.ascii	"robotc_task\000"
 358      74635F74 
 358      61736B00 
 359              		.section	.data.init.7314,"aw",%progbits
 360              		.set	.LANCHOR0,. + 0
 361              		.type	init.7314, %object
 362              		.size	init.7314, 1
 363              	init.7314:
 364 0000 01       		.byte	1
 365              		.section	.bss.rcTasks,"aw",%nobits
 366              		.align	2
 367              		.set	.LANCHOR1,. + 0
 368              		.type	rcTasks, %object
 369              		.size	rcTasks, 80
 370              	rcTasks:
 371 0000 00000000 		.space	80
 371      00000000 
 371      00000000 
 371      00000000 
 371      00000000 
 372              		.text
 373              	.Letext0:
 374              		.file 2 "/Users/programmer/ConVEX/yagarto-4.7.2/bin/../lib/gcc/arm-none-eabi/4.7.2/include/stddef.
 375              		.file 3 "/Users/programmer/ConVEX/yagarto-4.7.2/bin/../lib/gcc/arm-none-eabi/4.7.2/../../../../arm
 376              		.file 4 "convex/ChibiOS_2.6.2/os/ports/GCC/ARMCMx/chtypes.h"
 377              		.file 5 "convex/ChibiOS_2.6.2/os/kernel/include/chlists.h"
 378              		.file 6 "convex/ChibiOS_2.6.2/os/kernel/include/chthreads.h"
 379              		.file 7 "convex/ChibiOS_2.6.2/os/ports/GCC/ARMCMx/chcore_v7m.h"
 380              		.file 8 "convex/ChibiOS_2.6.2/os/kernel/include/chschd.h"
 381              		.file 9 "convex/ChibiOS_2.6.2/os/kernel/include/chmtx.h"
 382              		.file 10 "convex/ChibiOS_2.6.2/os/kernel/include/chmemcore.h"
 383              		.file 11 "convex/ChibiOS_2.6.2/os/kernel/include/chheap.h"
 384              		.file 12 "convex/convex/cortex/fw/vexdigital.h"
 385              		.file 13 "convex/convex/cortex/fw/vexime.h"
 386              		.file 14 "convex/ChibiOS_2.6.2/os/ports/common/ARMCMx/CMSIS/include/core_cm3.h"
 387              		.file 15 "convex/convex/cortex/fw/vex.h"
 388              		.file 16 "convex/ChibiOS_2.6.2/os/kernel/include/chdynamic.h"
ARM GAS  /var/folders/pt/gxfsd_x53tx3h6kb8dkzftl80000gr/T//ccZJqWqS.s 			page 8

