ARM GAS  /var/folders/pt/gxfsd_x53tx3h6kb8dkzftl80000gr/T//cciVC3gV.s 			page 1


   1              		.syntax unified
   2              		.cpu cortex-m3
   3              		.fpu softvfp
   4              		.eabi_attribute 20, 1
   5              		.eabi_attribute 21, 1
   6              		.eabi_attribute 23, 3
   7              		.eabi_attribute 24, 1
   8              		.eabi_attribute 25, 1
   9              		.eabi_attribute 26, 1
  10              		.eabi_attribute 30, 2
  11              		.eabi_attribute 34, 1
  12              		.eabi_attribute 18, 4
  13              		.thumb
  14              		.file	"stm32_flash.c"
  15              		.text
  16              	.Ltext0:
  17              		.cfi_sections	.debug_frame
  18              		.section	.text.FLASH_GetBank1Status,"ax",%progbits
  19              		.align	2
  20              		.p2align 4,,15
  21              		.global	FLASH_GetBank1Status
  22              		.thumb
  23              		.thumb_func
  24              		.type	FLASH_GetBank1Status, %function
  25              	FLASH_GetBank1Status:
  26              	.LFB56:
  27              		.file 1 "convex/convex/cortex/opt/stm32_flash.c"
  28              		.loc 1 110 0
  29              		.cfi_startproc
  30              		@ args = 0, pretend = 0, frame = 0
  31              		@ frame_needed = 0, uses_anonymous_args = 0
  32              		@ link register save eliminated.
  33              	.LVL0:
  34              		.loc 1 113 0
  35 0000 4FF40053 		mov	r3, #8192
  36 0004 C4F20203 		movt	r3, 16386
  37 0008 DA68     		ldr	r2, [r3, #12]
  38 000a D107     		lsls	r1, r2, #31
  39 000c 0BD4     		bmi	.L4
  40              		.loc 1 119 0
  41 000e DA68     		ldr	r2, [r3, #12]
  42 0010 5207     		lsls	r2, r2, #29
  43 0012 01D5     		bpl	.L8
  44              		.loc 1 121 0
  45 0014 0220     		movs	r0, #2
  46              	.LVL1:
  47              		.loc 1 137 0
  48 0016 7047     		bx	lr
  49              	.LVL2:
  50              	.L8:
  51              	.LBB4:
  52              	.LBB5:
  53              		.loc 1 125 0
  54 0018 DB68     		ldr	r3, [r3, #12]
  55 001a 13F0100F 		tst	r3, #16
  56              		.loc 1 127 0
  57 001e 0CBF     		ite	eq
ARM GAS  /var/folders/pt/gxfsd_x53tx3h6kb8dkzftl80000gr/T//cciVC3gV.s 			page 2


  58 0020 0420     		moveq	r0, #4
  59 0022 0320     		movne	r0, #3
  60 0024 7047     		bx	lr
  61              	.L4:
  62              	.LBE5:
  63              	.LBE4:
  64              		.loc 1 115 0
  65 0026 0120     		movs	r0, #1
  66 0028 7047     		bx	lr
  67              		.cfi_endproc
  68              	.LFE56:
  69              		.size	FLASH_GetBank1Status, .-FLASH_GetBank1Status
  70 002a 00BFAFF3 		.section	.text.FLASH_WaitForLastOperation,"ax",%progbits
  70      0080
  71              		.align	2
  72              		.p2align 4,,15
  73              		.global	FLASH_WaitForLastOperation
  74              		.thumb
  75              		.thumb_func
  76              		.type	FLASH_WaitForLastOperation, %function
  77              	FLASH_WaitForLastOperation:
  78              	.LFB57:
  79              		.loc 1 151 0
  80              		.cfi_startproc
  81              		@ args = 0, pretend = 0, frame = 0
  82              		@ frame_needed = 0, uses_anonymous_args = 0
  83              	.LVL3:
  84 0000 10B5     		push	{r4, lr}
  85              	.LCFI0:
  86              		.cfi_def_cfa_offset 8
  87              		.cfi_offset 4, -8
  88              		.cfi_offset 14, -4
  89              		.loc 1 151 0
  90 0002 0446     		mov	r4, r0
  91              		.loc 1 155 0
  92 0004 FFF7FEFF 		bl	FLASH_GetBank1Status
  93              	.LVL4:
  94              		.loc 1 157 0
  95 0008 B0F1010E 		subs	lr, r0, #1
  96 000c DEF10003 		rsbs	r3, lr, #0
  97 0010 53EB0E03 		adcs	r3, r3, lr
  98 0014 002C     		cmp	r4, #0
  99 0016 08BF     		it	eq
 100 0018 0023     		moveq	r3, #0
 101 001a 63B1     		cbz	r3, .L10
 102              	.LVL5:
 103              	.L16:
 104              		.loc 1 159 0
 105 001c FFF7FEFF 		bl	FLASH_GetBank1Status
 106              	.LVL6:
 107              		.loc 1 157 0
 108 0020 013C     		subs	r4, r4, #1
 109              	.LVL7:
 110 0022 0CBF     		ite	eq
 111 0024 0023     		moveq	r3, #0
 112 0026 0123     		movne	r3, #1
 113 0028 0128     		cmp	r0, #1
ARM GAS  /var/folders/pt/gxfsd_x53tx3h6kb8dkzftl80000gr/T//cciVC3gV.s 			page 3


 114 002a 14BF     		ite	ne
 115 002c 0023     		movne	r3, #0
 116 002e 03F00103 		andeq	r3, r3, #1
 117 0032 002B     		cmp	r3, #0
 118 0034 F2D1     		bne	.L16
 119              	.LVL8:
 120              	.L10:
 121              		.loc 1 168 0
 122 0036 002C     		cmp	r4, #0
 123 0038 08BF     		it	eq
 124 003a 0520     		moveq	r0, #5
 125              	.LVL9:
 126 003c 10BD     		pop	{r4, pc}
 127              		.cfi_endproc
 128              	.LFE57:
 129              		.size	FLASH_WaitForLastOperation, .-FLASH_WaitForLastOperation
 130 003e 00BF     		.section	.text.FLASH_ErasePage,"ax",%progbits
 131              		.align	2
 132              		.p2align 4,,15
 133              		.global	FLASH_ErasePage
 134              		.thumb
 135              		.thumb_func
 136              		.type	FLASH_ErasePage, %function
 137              	FLASH_ErasePage:
 138              	.LFB58:
 139              		.loc 1 177 0
 140              		.cfi_startproc
 141              		@ args = 0, pretend = 0, frame = 0
 142              		@ frame_needed = 0, uses_anonymous_args = 0
 143              	.LVL10:
 144 0000 38B5     		push	{r3, r4, r5, lr}
 145              	.LCFI1:
 146              		.cfi_def_cfa_offset 16
 147              		.cfi_offset 3, -16
 148              		.cfi_offset 4, -12
 149              		.cfi_offset 5, -8
 150              		.cfi_offset 14, -4
 151              		.loc 1 177 0
 152 0002 0546     		mov	r5, r0
 153              		.loc 1 183 0
 154 0004 4FF43020 		mov	r0, #720896
 155              	.LVL11:
 156 0008 FFF7FEFF 		bl	FLASH_WaitForLastOperation
 157              	.LVL12:
 158              		.loc 1 185 0
 159 000c 0428     		cmp	r0, #4
 160 000e 00D0     		beq	.L21
 161              		.loc 1 201 0
 162 0010 38BD     		pop	{r3, r4, r5, pc}
 163              	.L21:
 164              		.loc 1 188 0
 165 0012 4FF40054 		mov	r4, #8192
 166 0016 C4F20204 		movt	r4, 16386
 167 001a 2369     		ldr	r3, [r4, #16]
 168              		.loc 1 193 0
 169 001c 4FF43020 		mov	r0, #720896
 170              	.LVL13:
ARM GAS  /var/folders/pt/gxfsd_x53tx3h6kb8dkzftl80000gr/T//cciVC3gV.s 			page 4


 171              		.loc 1 188 0
 172 0020 43F00203 		orr	r3, r3, #2
 173 0024 2361     		str	r3, [r4, #16]
 174              		.loc 1 189 0
 175 0026 6561     		str	r5, [r4, #20]
 176              		.loc 1 190 0
 177 0028 2369     		ldr	r3, [r4, #16]
 178 002a 43F04003 		orr	r3, r3, #64
 179 002e 2361     		str	r3, [r4, #16]
 180              		.loc 1 193 0
 181 0030 FFF7FEFF 		bl	FLASH_WaitForLastOperation
 182              	.LVL14:
 183              		.loc 1 196 0
 184 0034 2269     		ldr	r2, [r4, #16]
 185 0036 41F6FD73 		movw	r3, #8189
 186 003a 1340     		ands	r3, r3, r2
 187 003c 2361     		str	r3, [r4, #16]
 188              		.loc 1 201 0
 189 003e 38BD     		pop	{r3, r4, r5, pc}
 190              		.cfi_endproc
 191              	.LFE58:
 192              		.size	FLASH_ErasePage, .-FLASH_ErasePage
 193              		.section	.text.FLASH_ClearFlag,"ax",%progbits
 194              		.align	2
 195              		.p2align 4,,15
 196              		.global	FLASH_ClearFlag
 197              		.thumb
 198              		.thumb_func
 199              		.type	FLASH_ClearFlag, %function
 200              	FLASH_ClearFlag:
 201              	.LFB59:
 202              		.loc 1 216 0
 203              		.cfi_startproc
 204              		@ args = 0, pretend = 0, frame = 0
 205              		@ frame_needed = 0, uses_anonymous_args = 0
 206              		@ link register save eliminated.
 207              	.LVL15:
 208              		.loc 1 221 0
 209 0000 4FF40053 		mov	r3, #8192
 210 0004 C4F20203 		movt	r3, 16386
 211 0008 D860     		str	r0, [r3, #12]
 212 000a 7047     		bx	lr
 213              		.cfi_endproc
 214              	.LFE59:
 215              		.size	FLASH_ClearFlag, .-FLASH_ClearFlag
 216 000c AFF30080 		.section	.text.FLASH_ProgramWord,"ax",%progbits
 217              		.align	2
 218              		.p2align 4,,15
 219              		.global	FLASH_ProgramWord
 220              		.thumb
 221              		.thumb_func
 222              		.type	FLASH_ProgramWord, %function
 223              	FLASH_ProgramWord:
 224              	.LFB60:
 225              		.loc 1 235 0
 226              		.cfi_startproc
 227              		@ args = 0, pretend = 0, frame = 8
ARM GAS  /var/folders/pt/gxfsd_x53tx3h6kb8dkzftl80000gr/T//cciVC3gV.s 			page 5


 228              		@ frame_needed = 0, uses_anonymous_args = 0
 229              	.LVL16:
 230 0000 70B5     		push	{r4, r5, r6, lr}
 231              	.LCFI2:
 232              		.cfi_def_cfa_offset 16
 233              		.cfi_offset 4, -16
 234              		.cfi_offset 5, -12
 235              		.cfi_offset 6, -8
 236              		.cfi_offset 14, -4
 237              		.loc 1 237 0
 238 0002 0023     		movs	r3, #0
 239              		.loc 1 235 0
 240 0004 82B0     		sub	sp, sp, #8
 241              	.LCFI3:
 242              		.cfi_def_cfa_offset 24
 243              		.loc 1 235 0
 244 0006 0546     		mov	r5, r0
 245              		.loc 1 243 0
 246 0008 4FF40050 		mov	r0, #8192
 247              	.LVL17:
 248              		.loc 1 235 0
 249 000c 0C46     		mov	r4, r1
 250              		.loc 1 237 0
 251 000e 0193     		str	r3, [sp, #4]
 252              	.LVL18:
 253              		.loc 1 243 0
 254 0010 FFF7FEFF 		bl	FLASH_WaitForLastOperation
 255              	.LVL19:
 256              		.loc 1 245 0
 257 0014 0428     		cmp	r0, #4
 258 0016 01D0     		beq	.L26
 259              	.LVL20:
 260              	.L24:
 261              		.loc 1 278 0
 262 0018 02B0     		add	sp, sp, #8
 263 001a 70BD     		pop	{r4, r5, r6, pc}
 264              	.LVL21:
 265              	.L26:
 266              		.loc 1 249 0
 267 001c 4FF40056 		mov	r6, #8192
 268 0020 C4F20206 		movt	r6, 16386
 269 0024 3269     		ldr	r2, [r6, #16]
 270              		.loc 1 251 0
 271 0026 A3B2     		uxth	r3, r4
 272              		.loc 1 249 0
 273 0028 42F00102 		orr	r2, r2, #1
 274 002c 3261     		str	r2, [r6, #16]
 275              		.loc 1 253 0
 276 002e 4FF40050 		mov	r0, #8192
 277              	.LVL22:
 278              		.loc 1 251 0
 279 0032 2B80     		strh	r3, [r5, #0]	@ movhi
 280              		.loc 1 253 0
 281 0034 FFF7FEFF 		bl	FLASH_WaitForLastOperation
 282              	.LVL23:
 283              		.loc 1 255 0
 284 0038 0428     		cmp	r0, #4
ARM GAS  /var/folders/pt/gxfsd_x53tx3h6kb8dkzftl80000gr/T//cciVC3gV.s 			page 6


 285 003a 05D0     		beq	.L27
 286              		.loc 1 272 0
 287 003c 3269     		ldr	r2, [r6, #16]
 288 003e 41F6FE73 		movw	r3, #8190
 289 0042 1340     		ands	r3, r3, r2
 290 0044 3361     		str	r3, [r6, #16]
 291 0046 E7E7     		b	.L24
 292              	.L27:
 293              		.loc 1 259 0
 294 0048 0235     		adds	r5, r5, #2
 295              	.LVL24:
 296 004a 0195     		str	r5, [sp, #4]
 297              	.LVL25:
 298              		.loc 1 261 0
 299 004c 019B     		ldr	r3, [sp, #4]
 300 004e 240C     		lsrs	r4, r4, #16
 301              	.LVL26:
 302 0050 1C80     		strh	r4, [r3, #0]	@ movhi
 303              		.loc 1 264 0
 304 0052 4FF40050 		mov	r0, #8192
 305              	.LVL27:
 306 0056 FFF7FEFF 		bl	FLASH_WaitForLastOperation
 307              	.LVL28:
 308              		.loc 1 267 0
 309 005a 3269     		ldr	r2, [r6, #16]
 310 005c 41F6FE73 		movw	r3, #8190
 311 0060 1340     		ands	r3, r3, r2
 312 0062 3361     		str	r3, [r6, #16]
 313 0064 D8E7     		b	.L24
 314              		.cfi_endproc
 315              	.LFE60:
 316              		.size	FLASH_ProgramWord, .-FLASH_ProgramWord
 317 0066 00BFAFF3 		.section	.text.FLASH_ProgramHalfWord,"ax",%progbits
 317      0080AFF3 
 317      0080
 318              		.align	2
 319              		.p2align 4,,15
 320              		.global	FLASH_ProgramHalfWord
 321              		.thumb
 322              		.thumb_func
 323              		.type	FLASH_ProgramHalfWord, %function
 324              	FLASH_ProgramHalfWord:
 325              	.LFB61:
 326              		.loc 1 289 0
 327              		.cfi_startproc
 328              		@ args = 0, pretend = 0, frame = 0
 329              		@ frame_needed = 0, uses_anonymous_args = 0
 330              	.LVL29:
 331 0000 70B5     		push	{r4, r5, r6, lr}
 332              	.LCFI4:
 333              		.cfi_def_cfa_offset 16
 334              		.cfi_offset 4, -16
 335              		.cfi_offset 5, -12
 336              		.cfi_offset 6, -8
 337              		.cfi_offset 14, -4
 338              		.loc 1 289 0
 339 0002 0446     		mov	r4, r0
ARM GAS  /var/folders/pt/gxfsd_x53tx3h6kb8dkzftl80000gr/T//cciVC3gV.s 			page 7


 340              		.loc 1 295 0
 341 0004 4FF40050 		mov	r0, #8192
 342              	.LVL30:
 343              		.loc 1 289 0
 344 0008 0D46     		mov	r5, r1
 345              		.loc 1 295 0
 346 000a FFF7FEFF 		bl	FLASH_WaitForLastOperation
 347              	.LVL31:
 348              		.loc 1 297 0
 349 000e 0428     		cmp	r0, #4
 350 0010 00D0     		beq	.L30
 351              		.loc 1 312 0
 352 0012 70BD     		pop	{r4, r5, r6, pc}
 353              	.L30:
 354              		.loc 1 300 0
 355 0014 4FF40056 		mov	r6, #8192
 356 0018 C4F20206 		movt	r6, 16386
 357 001c 3369     		ldr	r3, [r6, #16]
 358              		.loc 1 304 0
 359 001e 4FF40050 		mov	r0, #8192
 360              	.LVL32:
 361              		.loc 1 300 0
 362 0022 43F00103 		orr	r3, r3, #1
 363 0026 3361     		str	r3, [r6, #16]
 364              		.loc 1 302 0
 365 0028 2580     		strh	r5, [r4, #0]	@ movhi
 366              		.loc 1 304 0
 367 002a FFF7FEFF 		bl	FLASH_WaitForLastOperation
 368              	.LVL33:
 369              		.loc 1 307 0
 370 002e 3269     		ldr	r2, [r6, #16]
 371 0030 41F6FE73 		movw	r3, #8190
 372 0034 1340     		ands	r3, r3, r2
 373 0036 3361     		str	r3, [r6, #16]
 374              		.loc 1 312 0
 375 0038 70BD     		pop	{r4, r5, r6, pc}
 376              		.cfi_endproc
 377              	.LFE61:
 378              		.size	FLASH_ProgramHalfWord, .-FLASH_ProgramHalfWord
 379 003a 00BFAFF3 		.section	.text.FLASH_UnlockBank1,"ax",%progbits
 379      0080
 380              		.align	2
 381              		.p2align 4,,15
 382              		.global	FLASH_UnlockBank1
 383              		.thumb
 384              		.thumb_func
 385              		.type	FLASH_UnlockBank1, %function
 386              	FLASH_UnlockBank1:
 387              	.LFB62:
 388              		.loc 1 323 0
 389              		.cfi_startproc
 390              		@ args = 0, pretend = 0, frame = 0
 391              		@ frame_needed = 0, uses_anonymous_args = 0
 392              		@ link register save eliminated.
 393              		.loc 1 325 0
 394 0000 4FF40053 		mov	r3, #8192
 395 0004 40F22311 		movw	r1, #291
ARM GAS  /var/folders/pt/gxfsd_x53tx3h6kb8dkzftl80000gr/T//cciVC3gV.s 			page 8


 396              		.loc 1 326 0
 397 0008 48F6AB12 		movw	r2, #35243
 398              		.loc 1 325 0
 399 000c C4F20203 		movt	r3, 16386
 400 0010 C4F26751 		movt	r1, 17767
 401              		.loc 1 326 0
 402 0014 CCF6EF52 		movt	r2, 52719
 403              		.loc 1 325 0
 404 0018 5960     		str	r1, [r3, #4]
 405              		.loc 1 326 0
 406 001a 5A60     		str	r2, [r3, #4]
 407 001c 7047     		bx	lr
 408              		.cfi_endproc
 409              	.LFE62:
 410              		.size	FLASH_UnlockBank1, .-FLASH_UnlockBank1
 411 001e 00BF     		.text
 412              	.Letext0:
 413              		.file 2 "/Users/programmer/ConVEX/yagarto-4.7.2/bin/../lib/gcc/arm-none-eabi/4.7.2/../../../../arm
 414              		.file 3 "convex/ChibiOS_2.6.2/os/hal/platforms/STM32F1xx/stm32f10x.h"
 415              		.file 4 "convex/convex/cortex/opt/stm32f10x_flash.h"
 416              		.file 5 "convex/ChibiOS_2.6.2/os/ports/common/ARMCMx/CMSIS/include/core_cm3.h"
 417              		.section	.debug_info,"",%progbits
 418              	.Ldebug_info0:
 419 0000 CF030000 		.4byte	0x3cf
 420 0004 0200     		.2byte	0x2
 421 0006 00000000 		.4byte	.Ldebug_abbrev0
 422 000a 04       		.byte	0x4
 423 000b 01       		.uleb128 0x1
 424 000c F2010000 		.4byte	.LASF34
 425 0010 01       		.byte	0x1
 426 0011 37000000 		.4byte	.LASF35
 427 0015 3D010000 		.4byte	.LASF36
 428 0019 00000000 		.4byte	.Ldebug_ranges0+0
 429 001d 00000000 		.4byte	0
 430 0021 00000000 		.4byte	0
 431 0025 00000000 		.4byte	.Ldebug_line0
 432 0029 02       		.uleb128 0x2
 433 002a 01       		.byte	0x1
 434 002b 06       		.byte	0x6
 435 002c C4000000 		.4byte	.LASF0
 436 0030 02       		.uleb128 0x2
 437 0031 01       		.byte	0x1
 438 0032 08       		.byte	0x8
 439 0033 2F010000 		.4byte	.LASF1
 440 0037 02       		.uleb128 0x2
 441 0038 02       		.byte	0x2
 442 0039 05       		.byte	0x5
 443 003a FE010000 		.4byte	.LASF2
 444 003e 03       		.uleb128 0x3
 445 003f 10020000 		.4byte	.LASF4
 446 0043 02       		.byte	0x2
 447 0044 36       		.byte	0x36
 448 0045 49000000 		.4byte	0x49
 449 0049 02       		.uleb128 0x2
 450 004a 02       		.byte	0x2
 451 004b 07       		.byte	0x7
 452 004c E2000000 		.4byte	.LASF3
ARM GAS  /var/folders/pt/gxfsd_x53tx3h6kb8dkzftl80000gr/T//cciVC3gV.s 			page 9


 453 0050 03       		.uleb128 0x3
 454 0051 C6010000 		.4byte	.LASF5
 455 0055 02       		.byte	0x2
 456 0056 4F       		.byte	0x4f
 457 0057 5B000000 		.4byte	0x5b
 458 005b 02       		.uleb128 0x2
 459 005c 04       		.byte	0x4
 460 005d 05       		.byte	0x5
 461 005e 6C000000 		.4byte	.LASF6
 462 0062 03       		.uleb128 0x3
 463 0063 19020000 		.4byte	.LASF7
 464 0067 02       		.byte	0x2
 465 0068 50       		.byte	0x50
 466 0069 6D000000 		.4byte	0x6d
 467 006d 02       		.uleb128 0x2
 468 006e 04       		.byte	0x4
 469 006f 07       		.byte	0x7
 470 0070 D0000000 		.4byte	.LASF8
 471 0074 02       		.uleb128 0x2
 472 0075 08       		.byte	0x8
 473 0076 05       		.byte	0x5
 474 0077 D7010000 		.4byte	.LASF9
 475 007b 02       		.uleb128 0x2
 476 007c 08       		.byte	0x8
 477 007d 07       		.byte	0x7
 478 007e 9A010000 		.4byte	.LASF10
 479 0082 04       		.uleb128 0x4
 480 0083 04       		.byte	0x4
 481 0084 05       		.byte	0x5
 482 0085 696E7400 		.ascii	"int\000"
 483 0089 02       		.uleb128 0x2
 484 008a 04       		.byte	0x4
 485 008b 07       		.byte	0x7
 486 008c 7B010000 		.4byte	.LASF11
 487 0090 02       		.uleb128 0x2
 488 0091 04       		.byte	0x4
 489 0092 07       		.byte	0x7
 490 0093 CE010000 		.4byte	.LASF12
 491 0097 05       		.uleb128 0x5
 492 0098 62000000 		.4byte	0x62
 493 009c 05       		.uleb128 0x5
 494 009d 50000000 		.4byte	0x50
 495 00a1 06       		.uleb128 0x6
 496 00a2 24       		.byte	0x24
 497 00a3 03       		.byte	0x3
 498 00a4 9403     		.2byte	0x394
 499 00a6 2F010000 		.4byte	0x12f
 500 00aa 07       		.uleb128 0x7
 501 00ab 41435200 		.ascii	"ACR\000"
 502 00af 03       		.byte	0x3
 503 00b0 9603     		.2byte	0x396
 504 00b2 97000000 		.4byte	0x97
 505 00b6 02       		.byte	0x2
 506 00b7 23       		.byte	0x23
 507 00b8 00       		.uleb128 0
 508 00b9 08       		.uleb128 0x8
 509 00ba 30020000 		.4byte	.LASF13
ARM GAS  /var/folders/pt/gxfsd_x53tx3h6kb8dkzftl80000gr/T//cciVC3gV.s 			page 10


 510 00be 03       		.byte	0x3
 511 00bf 9703     		.2byte	0x397
 512 00c1 97000000 		.4byte	0x97
 513 00c5 02       		.byte	0x2
 514 00c6 23       		.byte	0x23
 515 00c7 04       		.uleb128 0x4
 516 00c8 08       		.uleb128 0x8
 517 00c9 27010000 		.4byte	.LASF14
 518 00cd 03       		.byte	0x3
 519 00ce 9803     		.2byte	0x398
 520 00d0 97000000 		.4byte	0x97
 521 00d4 02       		.byte	0x2
 522 00d5 23       		.byte	0x23
 523 00d6 08       		.uleb128 0x8
 524 00d7 07       		.uleb128 0x7
 525 00d8 535200   		.ascii	"SR\000"
 526 00db 03       		.byte	0x3
 527 00dc 9903     		.2byte	0x399
 528 00de 97000000 		.4byte	0x97
 529 00e2 02       		.byte	0x2
 530 00e3 23       		.byte	0x23
 531 00e4 0C       		.uleb128 0xc
 532 00e5 07       		.uleb128 0x7
 533 00e6 435200   		.ascii	"CR\000"
 534 00e9 03       		.byte	0x3
 535 00ea 9A03     		.2byte	0x39a
 536 00ec 97000000 		.4byte	0x97
 537 00f0 02       		.byte	0x2
 538 00f1 23       		.byte	0x23
 539 00f2 10       		.uleb128 0x10
 540 00f3 07       		.uleb128 0x7
 541 00f4 415200   		.ascii	"AR\000"
 542 00f7 03       		.byte	0x3
 543 00f8 9B03     		.2byte	0x39b
 544 00fa 97000000 		.4byte	0x97
 545 00fe 02       		.byte	0x2
 546 00ff 23       		.byte	0x23
 547 0100 14       		.uleb128 0x14
 548 0101 08       		.uleb128 0x8
 549 0102 63010000 		.4byte	.LASF15
 550 0106 03       		.byte	0x3
 551 0107 9C03     		.2byte	0x39c
 552 0109 97000000 		.4byte	0x97
 553 010d 02       		.byte	0x2
 554 010e 23       		.byte	0x23
 555 010f 18       		.uleb128 0x18
 556 0110 07       		.uleb128 0x7
 557 0111 4F425200 		.ascii	"OBR\000"
 558 0115 03       		.byte	0x3
 559 0116 9D03     		.2byte	0x39d
 560 0118 97000000 		.4byte	0x97
 561 011c 02       		.byte	0x2
 562 011d 23       		.byte	0x23
 563 011e 1C       		.uleb128 0x1c
 564 011f 08       		.uleb128 0x8
 565 0120 C1010000 		.4byte	.LASF16
 566 0124 03       		.byte	0x3
ARM GAS  /var/folders/pt/gxfsd_x53tx3h6kb8dkzftl80000gr/T//cciVC3gV.s 			page 11


 567 0125 9E03     		.2byte	0x39e
 568 0127 97000000 		.4byte	0x97
 569 012b 02       		.byte	0x2
 570 012c 23       		.byte	0x23
 571 012d 20       		.uleb128 0x20
 572 012e 00       		.byte	0
 573 012f 09       		.uleb128 0x9
 574 0130 5E000000 		.4byte	.LASF17
 575 0134 03       		.byte	0x3
 576 0135 A703     		.2byte	0x3a7
 577 0137 A1000000 		.4byte	0xa1
 578 013b 0A       		.uleb128 0xa
 579 013c 01       		.byte	0x1
 580 013d 04       		.byte	0x4
 581 013e 33       		.byte	0x33
 582 013f 62010000 		.4byte	0x162
 583 0143 0B       		.uleb128 0xb
 584 0144 41020000 		.4byte	.LASF18
 585 0148 01       		.sleb128 1
 586 0149 0B       		.uleb128 0xb
 587 014a 6C010000 		.4byte	.LASF19
 588 014e 02       		.sleb128 2
 589 014f 0B       		.uleb128 0xb
 590 0150 B1010000 		.4byte	.LASF20
 591 0154 03       		.sleb128 3
 592 0155 0B       		.uleb128 0xb
 593 0156 28000000 		.4byte	.LASF21
 594 015a 04       		.sleb128 4
 595 015b 0B       		.uleb128 0xb
 596 015c 22020000 		.4byte	.LASF22
 597 0160 05       		.sleb128 5
 598 0161 00       		.byte	0
 599 0162 03       		.uleb128 0x3
 600 0163 E5010000 		.4byte	.LASF23
 601 0167 04       		.byte	0x4
 602 0168 39       		.byte	0x39
 603 0169 3B010000 		.4byte	0x13b
 604 016d 0C       		.uleb128 0xc
 605 016e 01       		.byte	0x1
 606 016f F5000000 		.4byte	.LASF37
 607 0173 01       		.byte	0x1
 608 0174 6D       		.byte	0x6d
 609 0175 01       		.byte	0x1
 610 0176 62010000 		.4byte	0x162
 611 017a 01       		.byte	0x1
 612 017b 8B010000 		.4byte	0x18b
 613 017f 0D       		.uleb128 0xd
 614 0180 35020000 		.4byte	.LASF38
 615 0184 01       		.byte	0x1
 616 0185 6F       		.byte	0x6f
 617 0186 62010000 		.4byte	0x162
 618 018a 00       		.byte	0
 619 018b 0E       		.uleb128 0xe
 620 018c 6D010000 		.4byte	0x16d
 621 0190 00000000 		.4byte	.LFB56
 622 0194 2A000000 		.4byte	.LFE56
 623 0198 02       		.byte	0x2
ARM GAS  /var/folders/pt/gxfsd_x53tx3h6kb8dkzftl80000gr/T//cciVC3gV.s 			page 12


 624 0199 7D       		.byte	0x7d
 625 019a 00       		.sleb128 0
 626 019b 01       		.byte	0x1
 627 019c C9010000 		.4byte	0x1c9
 628 01a0 0F       		.uleb128 0xf
 629 01a1 7F010000 		.4byte	0x17f
 630 01a5 00000000 		.4byte	.LLST0
 631 01a9 10       		.uleb128 0x10
 632 01aa 6D010000 		.4byte	0x16d
 633 01ae 18000000 		.4byte	.LBB4
 634 01b2 26000000 		.4byte	.LBE4
 635 01b6 01       		.byte	0x1
 636 01b7 6D       		.byte	0x6d
 637 01b8 11       		.uleb128 0x11
 638 01b9 18000000 		.4byte	.LBB5
 639 01bd 26000000 		.4byte	.LBE5
 640 01c1 12       		.uleb128 0x12
 641 01c2 7F010000 		.4byte	0x17f
 642 01c6 00       		.byte	0
 643 01c7 00       		.byte	0
 644 01c8 00       		.byte	0
 645 01c9 13       		.uleb128 0x13
 646 01ca 01       		.byte	0x1
 647 01cb 9E000000 		.4byte	.LASF24
 648 01cf 01       		.byte	0x1
 649 01d0 96       		.byte	0x96
 650 01d1 01       		.byte	0x1
 651 01d2 62010000 		.4byte	0x162
 652 01d6 00000000 		.4byte	.LFB57
 653 01da 3E000000 		.4byte	.LFE57
 654 01de 2B000000 		.4byte	.LLST1
 655 01e2 01       		.byte	0x1
 656 01e3 18020000 		.4byte	0x218
 657 01e7 14       		.uleb128 0x14
 658 01e8 4C020000 		.4byte	.LASF26
 659 01ec 01       		.byte	0x1
 660 01ed 96       		.byte	0x96
 661 01ee 62000000 		.4byte	0x62
 662 01f2 4B000000 		.4byte	.LLST2
 663 01f6 15       		.uleb128 0x15
 664 01f7 97000000 		.4byte	.LASF28
 665 01fb 01       		.byte	0x1
 666 01fc 98       		.byte	0x98
 667 01fd 62010000 		.4byte	0x162
 668 0201 81000000 		.4byte	.LLST3
 669 0205 16       		.uleb128 0x16
 670 0206 08000000 		.4byte	.LVL4
 671 020a 6D010000 		.4byte	0x16d
 672 020e 16       		.uleb128 0x16
 673 020f 20000000 		.4byte	.LVL6
 674 0213 6D010000 		.4byte	0x16d
 675 0217 00       		.byte	0
 676 0218 13       		.uleb128 0x13
 677 0219 01       		.byte	0x1
 678 021a 17010000 		.4byte	.LASF25
 679 021e 01       		.byte	0x1
 680 021f B0       		.byte	0xb0
ARM GAS  /var/folders/pt/gxfsd_x53tx3h6kb8dkzftl80000gr/T//cciVC3gV.s 			page 13


 681 0220 01       		.byte	0x1
 682 0221 62010000 		.4byte	0x162
 683 0225 00000000 		.4byte	.LFB58
 684 0229 40000000 		.4byte	.LFE58
 685 022d C2000000 		.4byte	.LLST4
 686 0231 01       		.byte	0x1
 687 0232 7B020000 		.4byte	0x27b
 688 0236 14       		.uleb128 0x14
 689 0237 16000000 		.4byte	.LASF27
 690 023b 01       		.byte	0x1
 691 023c B0       		.byte	0xb0
 692 023d 62000000 		.4byte	0x62
 693 0241 E2000000 		.4byte	.LLST5
 694 0245 15       		.uleb128 0x15
 695 0246 97000000 		.4byte	.LASF28
 696 024a 01       		.byte	0x1
 697 024b B2       		.byte	0xb2
 698 024c 62010000 		.4byte	0x162
 699 0250 00010000 		.4byte	.LLST6
 700 0254 17       		.uleb128 0x17
 701 0255 0C000000 		.4byte	.LVL12
 702 0259 C9010000 		.4byte	0x1c9
 703 025d 69020000 		.4byte	0x269
 704 0261 18       		.uleb128 0x18
 705 0262 01       		.byte	0x1
 706 0263 50       		.byte	0x50
 707 0264 03       		.byte	0x3
 708 0265 46       		.byte	0x46
 709 0266 3F       		.byte	0x3f
 710 0267 24       		.byte	0x24
 711 0268 00       		.byte	0
 712 0269 19       		.uleb128 0x19
 713 026a 34000000 		.4byte	.LVL14
 714 026e C9010000 		.4byte	0x1c9
 715 0272 18       		.uleb128 0x18
 716 0273 01       		.byte	0x1
 717 0274 50       		.byte	0x50
 718 0275 03       		.byte	0x3
 719 0276 46       		.byte	0x46
 720 0277 3F       		.byte	0x3f
 721 0278 24       		.byte	0x24
 722 0279 00       		.byte	0
 723 027a 00       		.byte	0
 724 027b 1A       		.uleb128 0x1a
 725 027c 01       		.byte	0x1
 726 027d 75000000 		.4byte	.LASF39
 727 0281 01       		.byte	0x1
 728 0282 D7       		.byte	0xd7
 729 0283 01       		.byte	0x1
 730 0284 00000000 		.4byte	.LFB59
 731 0288 0C000000 		.4byte	.LFE59
 732 028c 02       		.byte	0x2
 733 028d 7D       		.byte	0x7d
 734 028e 00       		.sleb128 0
 735 028f 01       		.byte	0x1
 736 0290 A2020000 		.4byte	0x2a2
 737 0294 1B       		.uleb128 0x1b
ARM GAS  /var/folders/pt/gxfsd_x53tx3h6kb8dkzftl80000gr/T//cciVC3gV.s 			page 14


 738 0295 B9000000 		.4byte	.LASF29
 739 0299 01       		.byte	0x1
 740 029a D7       		.byte	0xd7
 741 029b 62000000 		.4byte	0x62
 742 029f 01       		.byte	0x1
 743 02a0 50       		.byte	0x50
 744 02a1 00       		.byte	0
 745 02a2 13       		.uleb128 0x13
 746 02a3 01       		.byte	0x1
 747 02a4 85000000 		.4byte	.LASF30
 748 02a8 01       		.byte	0x1
 749 02a9 EA       		.byte	0xea
 750 02aa 01       		.byte	0x1
 751 02ab 62010000 		.4byte	0x162
 752 02af 00000000 		.4byte	.LFB60
 753 02b3 66000000 		.4byte	.LFE60
 754 02b7 2A010000 		.4byte	.LLST7
 755 02bb 01       		.byte	0x1
 756 02bc 38030000 		.4byte	0x338
 757 02c0 14       		.uleb128 0x14
 758 02c1 08020000 		.4byte	.LASF31
 759 02c5 01       		.byte	0x1
 760 02c6 EA       		.byte	0xea
 761 02c7 62000000 		.4byte	0x62
 762 02cb 56010000 		.4byte	.LLST8
 763 02cf 14       		.uleb128 0x14
 764 02d0 23000000 		.4byte	.LASF32
 765 02d4 01       		.byte	0x1
 766 02d5 EA       		.byte	0xea
 767 02d6 62000000 		.4byte	0x62
 768 02da 9A010000 		.4byte	.LLST9
 769 02de 15       		.uleb128 0x15
 770 02df 97000000 		.4byte	.LASF28
 771 02e3 01       		.byte	0x1
 772 02e4 EC       		.byte	0xec
 773 02e5 62010000 		.4byte	0x162
 774 02e9 DF010000 		.4byte	.LLST10
 775 02ed 1C       		.uleb128 0x1c
 776 02ee 746D7000 		.ascii	"tmp\000"
 777 02f2 01       		.byte	0x1
 778 02f3 ED       		.byte	0xed
 779 02f4 97000000 		.4byte	0x97
 780 02f8 14020000 		.4byte	.LLST11
 781 02fc 17       		.uleb128 0x17
 782 02fd 14000000 		.4byte	.LVL19
 783 0301 C9010000 		.4byte	0x1c9
 784 0305 11030000 		.4byte	0x311
 785 0309 18       		.uleb128 0x18
 786 030a 01       		.byte	0x1
 787 030b 50       		.byte	0x50
 788 030c 03       		.byte	0x3
 789 030d 0A       		.byte	0xa
 790 030e 0020     		.2byte	0x2000
 791 0310 00       		.byte	0
 792 0311 17       		.uleb128 0x17
 793 0312 38000000 		.4byte	.LVL23
 794 0316 C9010000 		.4byte	0x1c9
ARM GAS  /var/folders/pt/gxfsd_x53tx3h6kb8dkzftl80000gr/T//cciVC3gV.s 			page 15


 795 031a 26030000 		.4byte	0x326
 796 031e 18       		.uleb128 0x18
 797 031f 01       		.byte	0x1
 798 0320 50       		.byte	0x50
 799 0321 03       		.byte	0x3
 800 0322 0A       		.byte	0xa
 801 0323 0020     		.2byte	0x2000
 802 0325 00       		.byte	0
 803 0326 19       		.uleb128 0x19
 804 0327 5A000000 		.4byte	.LVL28
 805 032b C9010000 		.4byte	0x1c9
 806 032f 18       		.uleb128 0x18
 807 0330 01       		.byte	0x1
 808 0331 50       		.byte	0x50
 809 0332 03       		.byte	0x3
 810 0333 0A       		.byte	0xa
 811 0334 0020     		.2byte	0x2000
 812 0336 00       		.byte	0
 813 0337 00       		.byte	0
 814 0338 1D       		.uleb128 0x1d
 815 0339 01       		.byte	0x1
 816 033a 00000000 		.4byte	.LASF33
 817 033e 01       		.byte	0x1
 818 033f 2001     		.2byte	0x120
 819 0341 01       		.byte	0x1
 820 0342 62010000 		.4byte	0x162
 821 0346 00000000 		.4byte	.LFB61
 822 034a 3A000000 		.4byte	.LFE61
 823 034e 33020000 		.4byte	.LLST12
 824 0352 01       		.byte	0x1
 825 0353 AE030000 		.4byte	0x3ae
 826 0357 1E       		.uleb128 0x1e
 827 0358 08020000 		.4byte	.LASF31
 828 035c 01       		.byte	0x1
 829 035d 2001     		.2byte	0x120
 830 035f 62000000 		.4byte	0x62
 831 0363 53020000 		.4byte	.LLST13
 832 0367 1E       		.uleb128 0x1e
 833 0368 23000000 		.4byte	.LASF32
 834 036c 01       		.byte	0x1
 835 036d 2001     		.2byte	0x120
 836 036f 3E000000 		.4byte	0x3e
 837 0373 71020000 		.4byte	.LLST14
 838 0377 1F       		.uleb128 0x1f
 839 0378 97000000 		.4byte	.LASF28
 840 037c 01       		.byte	0x1
 841 037d 2201     		.2byte	0x122
 842 037f 62010000 		.4byte	0x162
 843 0383 92020000 		.4byte	.LLST15
 844 0387 17       		.uleb128 0x17
 845 0388 0E000000 		.4byte	.LVL31
 846 038c C9010000 		.4byte	0x1c9
 847 0390 9C030000 		.4byte	0x39c
 848 0394 18       		.uleb128 0x18
 849 0395 01       		.byte	0x1
 850 0396 50       		.byte	0x50
 851 0397 03       		.byte	0x3
ARM GAS  /var/folders/pt/gxfsd_x53tx3h6kb8dkzftl80000gr/T//cciVC3gV.s 			page 16


 852 0398 0A       		.byte	0xa
 853 0399 0020     		.2byte	0x2000
 854 039b 00       		.byte	0
 855 039c 19       		.uleb128 0x19
 856 039d 2E000000 		.4byte	.LVL33
 857 03a1 C9010000 		.4byte	0x1c9
 858 03a5 18       		.uleb128 0x18
 859 03a6 01       		.byte	0x1
 860 03a7 50       		.byte	0x50
 861 03a8 03       		.byte	0x3
 862 03a9 0A       		.byte	0xa
 863 03aa 0020     		.2byte	0x2000
 864 03ac 00       		.byte	0
 865 03ad 00       		.byte	0
 866 03ae 20       		.uleb128 0x20
 867 03af 01       		.byte	0x1
 868 03b0 88010000 		.4byte	.LASF40
 869 03b4 01       		.byte	0x1
 870 03b5 4201     		.2byte	0x142
 871 03b7 01       		.byte	0x1
 872 03b8 00000000 		.4byte	.LFB62
 873 03bc 1E000000 		.4byte	.LFE62
 874 03c0 02       		.byte	0x2
 875 03c1 7D       		.byte	0x7d
 876 03c2 00       		.sleb128 0
 877 03c3 01       		.byte	0x1
 878 03c4 21       		.uleb128 0x21
 879 03c5 0A010000 		.4byte	.LASF41
 880 03c9 05       		.byte	0x5
 881 03ca 0706     		.2byte	0x607
 882 03cc 9C000000 		.4byte	0x9c
 883 03d0 01       		.byte	0x1
 884 03d1 01       		.byte	0x1
 885 03d2 00       		.byte	0
 886              		.section	.debug_abbrev,"",%progbits
 887              	.Ldebug_abbrev0:
 888 0000 01       		.uleb128 0x1
 889 0001 11       		.uleb128 0x11
 890 0002 01       		.byte	0x1
 891 0003 25       		.uleb128 0x25
 892 0004 0E       		.uleb128 0xe
 893 0005 13       		.uleb128 0x13
 894 0006 0B       		.uleb128 0xb
 895 0007 03       		.uleb128 0x3
 896 0008 0E       		.uleb128 0xe
 897 0009 1B       		.uleb128 0x1b
 898 000a 0E       		.uleb128 0xe
 899 000b 55       		.uleb128 0x55
 900 000c 06       		.uleb128 0x6
 901 000d 11       		.uleb128 0x11
 902 000e 01       		.uleb128 0x1
 903 000f 52       		.uleb128 0x52
 904 0010 01       		.uleb128 0x1
 905 0011 10       		.uleb128 0x10
 906 0012 06       		.uleb128 0x6
 907 0013 00       		.byte	0
 908 0014 00       		.byte	0
ARM GAS  /var/folders/pt/gxfsd_x53tx3h6kb8dkzftl80000gr/T//cciVC3gV.s 			page 17


 909 0015 02       		.uleb128 0x2
 910 0016 24       		.uleb128 0x24
 911 0017 00       		.byte	0
 912 0018 0B       		.uleb128 0xb
 913 0019 0B       		.uleb128 0xb
 914 001a 3E       		.uleb128 0x3e
 915 001b 0B       		.uleb128 0xb
 916 001c 03       		.uleb128 0x3
 917 001d 0E       		.uleb128 0xe
 918 001e 00       		.byte	0
 919 001f 00       		.byte	0
 920 0020 03       		.uleb128 0x3
 921 0021 16       		.uleb128 0x16
 922 0022 00       		.byte	0
 923 0023 03       		.uleb128 0x3
 924 0024 0E       		.uleb128 0xe
 925 0025 3A       		.uleb128 0x3a
 926 0026 0B       		.uleb128 0xb
 927 0027 3B       		.uleb128 0x3b
 928 0028 0B       		.uleb128 0xb
 929 0029 49       		.uleb128 0x49
 930 002a 13       		.uleb128 0x13
 931 002b 00       		.byte	0
 932 002c 00       		.byte	0
 933 002d 04       		.uleb128 0x4
 934 002e 24       		.uleb128 0x24
 935 002f 00       		.byte	0
 936 0030 0B       		.uleb128 0xb
 937 0031 0B       		.uleb128 0xb
 938 0032 3E       		.uleb128 0x3e
 939 0033 0B       		.uleb128 0xb
 940 0034 03       		.uleb128 0x3
 941 0035 08       		.uleb128 0x8
 942 0036 00       		.byte	0
 943 0037 00       		.byte	0
 944 0038 05       		.uleb128 0x5
 945 0039 35       		.uleb128 0x35
 946 003a 00       		.byte	0
 947 003b 49       		.uleb128 0x49
 948 003c 13       		.uleb128 0x13
 949 003d 00       		.byte	0
 950 003e 00       		.byte	0
 951 003f 06       		.uleb128 0x6
 952 0040 13       		.uleb128 0x13
 953 0041 01       		.byte	0x1
 954 0042 0B       		.uleb128 0xb
 955 0043 0B       		.uleb128 0xb
 956 0044 3A       		.uleb128 0x3a
 957 0045 0B       		.uleb128 0xb
 958 0046 3B       		.uleb128 0x3b
 959 0047 05       		.uleb128 0x5
 960 0048 01       		.uleb128 0x1
 961 0049 13       		.uleb128 0x13
 962 004a 00       		.byte	0
 963 004b 00       		.byte	0
 964 004c 07       		.uleb128 0x7
 965 004d 0D       		.uleb128 0xd
ARM GAS  /var/folders/pt/gxfsd_x53tx3h6kb8dkzftl80000gr/T//cciVC3gV.s 			page 18


 966 004e 00       		.byte	0
 967 004f 03       		.uleb128 0x3
 968 0050 08       		.uleb128 0x8
 969 0051 3A       		.uleb128 0x3a
 970 0052 0B       		.uleb128 0xb
 971 0053 3B       		.uleb128 0x3b
 972 0054 05       		.uleb128 0x5
 973 0055 49       		.uleb128 0x49
 974 0056 13       		.uleb128 0x13
 975 0057 38       		.uleb128 0x38
 976 0058 0A       		.uleb128 0xa
 977 0059 00       		.byte	0
 978 005a 00       		.byte	0
 979 005b 08       		.uleb128 0x8
 980 005c 0D       		.uleb128 0xd
 981 005d 00       		.byte	0
 982 005e 03       		.uleb128 0x3
 983 005f 0E       		.uleb128 0xe
 984 0060 3A       		.uleb128 0x3a
 985 0061 0B       		.uleb128 0xb
 986 0062 3B       		.uleb128 0x3b
 987 0063 05       		.uleb128 0x5
 988 0064 49       		.uleb128 0x49
 989 0065 13       		.uleb128 0x13
 990 0066 38       		.uleb128 0x38
 991 0067 0A       		.uleb128 0xa
 992 0068 00       		.byte	0
 993 0069 00       		.byte	0
 994 006a 09       		.uleb128 0x9
 995 006b 16       		.uleb128 0x16
 996 006c 00       		.byte	0
 997 006d 03       		.uleb128 0x3
 998 006e 0E       		.uleb128 0xe
 999 006f 3A       		.uleb128 0x3a
 1000 0070 0B       		.uleb128 0xb
 1001 0071 3B       		.uleb128 0x3b
 1002 0072 05       		.uleb128 0x5
 1003 0073 49       		.uleb128 0x49
 1004 0074 13       		.uleb128 0x13
 1005 0075 00       		.byte	0
 1006 0076 00       		.byte	0
 1007 0077 0A       		.uleb128 0xa
 1008 0078 04       		.uleb128 0x4
 1009 0079 01       		.byte	0x1
 1010 007a 0B       		.uleb128 0xb
 1011 007b 0B       		.uleb128 0xb
 1012 007c 3A       		.uleb128 0x3a
 1013 007d 0B       		.uleb128 0xb
 1014 007e 3B       		.uleb128 0x3b
 1015 007f 0B       		.uleb128 0xb
 1016 0080 01       		.uleb128 0x1
 1017 0081 13       		.uleb128 0x13
 1018 0082 00       		.byte	0
 1019 0083 00       		.byte	0
 1020 0084 0B       		.uleb128 0xb
 1021 0085 28       		.uleb128 0x28
 1022 0086 00       		.byte	0
ARM GAS  /var/folders/pt/gxfsd_x53tx3h6kb8dkzftl80000gr/T//cciVC3gV.s 			page 19


 1023 0087 03       		.uleb128 0x3
 1024 0088 0E       		.uleb128 0xe
 1025 0089 1C       		.uleb128 0x1c
 1026 008a 0D       		.uleb128 0xd
 1027 008b 00       		.byte	0
 1028 008c 00       		.byte	0
 1029 008d 0C       		.uleb128 0xc
 1030 008e 2E       		.uleb128 0x2e
 1031 008f 01       		.byte	0x1
 1032 0090 3F       		.uleb128 0x3f
 1033 0091 0C       		.uleb128 0xc
 1034 0092 03       		.uleb128 0x3
 1035 0093 0E       		.uleb128 0xe
 1036 0094 3A       		.uleb128 0x3a
 1037 0095 0B       		.uleb128 0xb
 1038 0096 3B       		.uleb128 0x3b
 1039 0097 0B       		.uleb128 0xb
 1040 0098 27       		.uleb128 0x27
 1041 0099 0C       		.uleb128 0xc
 1042 009a 49       		.uleb128 0x49
 1043 009b 13       		.uleb128 0x13
 1044 009c 20       		.uleb128 0x20
 1045 009d 0B       		.uleb128 0xb
 1046 009e 01       		.uleb128 0x1
 1047 009f 13       		.uleb128 0x13
 1048 00a0 00       		.byte	0
 1049 00a1 00       		.byte	0
 1050 00a2 0D       		.uleb128 0xd
 1051 00a3 34       		.uleb128 0x34
 1052 00a4 00       		.byte	0
 1053 00a5 03       		.uleb128 0x3
 1054 00a6 0E       		.uleb128 0xe
 1055 00a7 3A       		.uleb128 0x3a
 1056 00a8 0B       		.uleb128 0xb
 1057 00a9 3B       		.uleb128 0x3b
 1058 00aa 0B       		.uleb128 0xb
 1059 00ab 49       		.uleb128 0x49
 1060 00ac 13       		.uleb128 0x13
 1061 00ad 00       		.byte	0
 1062 00ae 00       		.byte	0
 1063 00af 0E       		.uleb128 0xe
 1064 00b0 2E       		.uleb128 0x2e
 1065 00b1 01       		.byte	0x1
 1066 00b2 31       		.uleb128 0x31
 1067 00b3 13       		.uleb128 0x13
 1068 00b4 11       		.uleb128 0x11
 1069 00b5 01       		.uleb128 0x1
 1070 00b6 12       		.uleb128 0x12
 1071 00b7 01       		.uleb128 0x1
 1072 00b8 40       		.uleb128 0x40
 1073 00b9 0A       		.uleb128 0xa
 1074 00ba 9742     		.uleb128 0x2117
 1075 00bc 0C       		.uleb128 0xc
 1076 00bd 01       		.uleb128 0x1
 1077 00be 13       		.uleb128 0x13
 1078 00bf 00       		.byte	0
 1079 00c0 00       		.byte	0
ARM GAS  /var/folders/pt/gxfsd_x53tx3h6kb8dkzftl80000gr/T//cciVC3gV.s 			page 20


 1080 00c1 0F       		.uleb128 0xf
 1081 00c2 34       		.uleb128 0x34
 1082 00c3 00       		.byte	0
 1083 00c4 31       		.uleb128 0x31
 1084 00c5 13       		.uleb128 0x13
 1085 00c6 02       		.uleb128 0x2
 1086 00c7 06       		.uleb128 0x6
 1087 00c8 00       		.byte	0
 1088 00c9 00       		.byte	0
 1089 00ca 10       		.uleb128 0x10
 1090 00cb 1D       		.uleb128 0x1d
 1091 00cc 01       		.byte	0x1
 1092 00cd 31       		.uleb128 0x31
 1093 00ce 13       		.uleb128 0x13
 1094 00cf 11       		.uleb128 0x11
 1095 00d0 01       		.uleb128 0x1
 1096 00d1 12       		.uleb128 0x12
 1097 00d2 01       		.uleb128 0x1
 1098 00d3 58       		.uleb128 0x58
 1099 00d4 0B       		.uleb128 0xb
 1100 00d5 59       		.uleb128 0x59
 1101 00d6 0B       		.uleb128 0xb
 1102 00d7 00       		.byte	0
 1103 00d8 00       		.byte	0
 1104 00d9 11       		.uleb128 0x11
 1105 00da 0B       		.uleb128 0xb
 1106 00db 01       		.byte	0x1
 1107 00dc 11       		.uleb128 0x11
 1108 00dd 01       		.uleb128 0x1
 1109 00de 12       		.uleb128 0x12
 1110 00df 01       		.uleb128 0x1
 1111 00e0 00       		.byte	0
 1112 00e1 00       		.byte	0
 1113 00e2 12       		.uleb128 0x12
 1114 00e3 34       		.uleb128 0x34
 1115 00e4 00       		.byte	0
 1116 00e5 31       		.uleb128 0x31
 1117 00e6 13       		.uleb128 0x13
 1118 00e7 00       		.byte	0
 1119 00e8 00       		.byte	0
 1120 00e9 13       		.uleb128 0x13
 1121 00ea 2E       		.uleb128 0x2e
 1122 00eb 01       		.byte	0x1
 1123 00ec 3F       		.uleb128 0x3f
 1124 00ed 0C       		.uleb128 0xc
 1125 00ee 03       		.uleb128 0x3
 1126 00ef 0E       		.uleb128 0xe
 1127 00f0 3A       		.uleb128 0x3a
 1128 00f1 0B       		.uleb128 0xb
 1129 00f2 3B       		.uleb128 0x3b
 1130 00f3 0B       		.uleb128 0xb
 1131 00f4 27       		.uleb128 0x27
 1132 00f5 0C       		.uleb128 0xc
 1133 00f6 49       		.uleb128 0x49
 1134 00f7 13       		.uleb128 0x13
 1135 00f8 11       		.uleb128 0x11
 1136 00f9 01       		.uleb128 0x1
ARM GAS  /var/folders/pt/gxfsd_x53tx3h6kb8dkzftl80000gr/T//cciVC3gV.s 			page 21


 1137 00fa 12       		.uleb128 0x12
 1138 00fb 01       		.uleb128 0x1
 1139 00fc 40       		.uleb128 0x40
 1140 00fd 06       		.uleb128 0x6
 1141 00fe 9742     		.uleb128 0x2117
 1142 0100 0C       		.uleb128 0xc
 1143 0101 01       		.uleb128 0x1
 1144 0102 13       		.uleb128 0x13
 1145 0103 00       		.byte	0
 1146 0104 00       		.byte	0
 1147 0105 14       		.uleb128 0x14
 1148 0106 05       		.uleb128 0x5
 1149 0107 00       		.byte	0
 1150 0108 03       		.uleb128 0x3
 1151 0109 0E       		.uleb128 0xe
 1152 010a 3A       		.uleb128 0x3a
 1153 010b 0B       		.uleb128 0xb
 1154 010c 3B       		.uleb128 0x3b
 1155 010d 0B       		.uleb128 0xb
 1156 010e 49       		.uleb128 0x49
 1157 010f 13       		.uleb128 0x13
 1158 0110 02       		.uleb128 0x2
 1159 0111 06       		.uleb128 0x6
 1160 0112 00       		.byte	0
 1161 0113 00       		.byte	0
 1162 0114 15       		.uleb128 0x15
 1163 0115 34       		.uleb128 0x34
 1164 0116 00       		.byte	0
 1165 0117 03       		.uleb128 0x3
 1166 0118 0E       		.uleb128 0xe
 1167 0119 3A       		.uleb128 0x3a
 1168 011a 0B       		.uleb128 0xb
 1169 011b 3B       		.uleb128 0x3b
 1170 011c 0B       		.uleb128 0xb
 1171 011d 49       		.uleb128 0x49
 1172 011e 13       		.uleb128 0x13
 1173 011f 02       		.uleb128 0x2
 1174 0120 06       		.uleb128 0x6
 1175 0121 00       		.byte	0
 1176 0122 00       		.byte	0
 1177 0123 16       		.uleb128 0x16
 1178 0124 898201   		.uleb128 0x4109
 1179 0127 00       		.byte	0
 1180 0128 11       		.uleb128 0x11
 1181 0129 01       		.uleb128 0x1
 1182 012a 31       		.uleb128 0x31
 1183 012b 13       		.uleb128 0x13
 1184 012c 00       		.byte	0
 1185 012d 00       		.byte	0
 1186 012e 17       		.uleb128 0x17
 1187 012f 898201   		.uleb128 0x4109
 1188 0132 01       		.byte	0x1
 1189 0133 11       		.uleb128 0x11
 1190 0134 01       		.uleb128 0x1
 1191 0135 31       		.uleb128 0x31
 1192 0136 13       		.uleb128 0x13
 1193 0137 01       		.uleb128 0x1
ARM GAS  /var/folders/pt/gxfsd_x53tx3h6kb8dkzftl80000gr/T//cciVC3gV.s 			page 22


 1194 0138 13       		.uleb128 0x13
 1195 0139 00       		.byte	0
 1196 013a 00       		.byte	0
 1197 013b 18       		.uleb128 0x18
 1198 013c 8A8201   		.uleb128 0x410a
 1199 013f 00       		.byte	0
 1200 0140 02       		.uleb128 0x2
 1201 0141 0A       		.uleb128 0xa
 1202 0142 9142     		.uleb128 0x2111
 1203 0144 0A       		.uleb128 0xa
 1204 0145 00       		.byte	0
 1205 0146 00       		.byte	0
 1206 0147 19       		.uleb128 0x19
 1207 0148 898201   		.uleb128 0x4109
 1208 014b 01       		.byte	0x1
 1209 014c 11       		.uleb128 0x11
 1210 014d 01       		.uleb128 0x1
 1211 014e 31       		.uleb128 0x31
 1212 014f 13       		.uleb128 0x13
 1213 0150 00       		.byte	0
 1214 0151 00       		.byte	0
 1215 0152 1A       		.uleb128 0x1a
 1216 0153 2E       		.uleb128 0x2e
 1217 0154 01       		.byte	0x1
 1218 0155 3F       		.uleb128 0x3f
 1219 0156 0C       		.uleb128 0xc
 1220 0157 03       		.uleb128 0x3
 1221 0158 0E       		.uleb128 0xe
 1222 0159 3A       		.uleb128 0x3a
 1223 015a 0B       		.uleb128 0xb
 1224 015b 3B       		.uleb128 0x3b
 1225 015c 0B       		.uleb128 0xb
 1226 015d 27       		.uleb128 0x27
 1227 015e 0C       		.uleb128 0xc
 1228 015f 11       		.uleb128 0x11
 1229 0160 01       		.uleb128 0x1
 1230 0161 12       		.uleb128 0x12
 1231 0162 01       		.uleb128 0x1
 1232 0163 40       		.uleb128 0x40
 1233 0164 0A       		.uleb128 0xa
 1234 0165 9742     		.uleb128 0x2117
 1235 0167 0C       		.uleb128 0xc
 1236 0168 01       		.uleb128 0x1
 1237 0169 13       		.uleb128 0x13
 1238 016a 00       		.byte	0
 1239 016b 00       		.byte	0
 1240 016c 1B       		.uleb128 0x1b
 1241 016d 05       		.uleb128 0x5
 1242 016e 00       		.byte	0
 1243 016f 03       		.uleb128 0x3
 1244 0170 0E       		.uleb128 0xe
 1245 0171 3A       		.uleb128 0x3a
 1246 0172 0B       		.uleb128 0xb
 1247 0173 3B       		.uleb128 0x3b
 1248 0174 0B       		.uleb128 0xb
 1249 0175 49       		.uleb128 0x49
 1250 0176 13       		.uleb128 0x13
ARM GAS  /var/folders/pt/gxfsd_x53tx3h6kb8dkzftl80000gr/T//cciVC3gV.s 			page 23


 1251 0177 02       		.uleb128 0x2
 1252 0178 0A       		.uleb128 0xa
 1253 0179 00       		.byte	0
 1254 017a 00       		.byte	0
 1255 017b 1C       		.uleb128 0x1c
 1256 017c 34       		.uleb128 0x34
 1257 017d 00       		.byte	0
 1258 017e 03       		.uleb128 0x3
 1259 017f 08       		.uleb128 0x8
 1260 0180 3A       		.uleb128 0x3a
 1261 0181 0B       		.uleb128 0xb
 1262 0182 3B       		.uleb128 0x3b
 1263 0183 0B       		.uleb128 0xb
 1264 0184 49       		.uleb128 0x49
 1265 0185 13       		.uleb128 0x13
 1266 0186 02       		.uleb128 0x2
 1267 0187 06       		.uleb128 0x6
 1268 0188 00       		.byte	0
 1269 0189 00       		.byte	0
 1270 018a 1D       		.uleb128 0x1d
 1271 018b 2E       		.uleb128 0x2e
 1272 018c 01       		.byte	0x1
 1273 018d 3F       		.uleb128 0x3f
 1274 018e 0C       		.uleb128 0xc
 1275 018f 03       		.uleb128 0x3
 1276 0190 0E       		.uleb128 0xe
 1277 0191 3A       		.uleb128 0x3a
 1278 0192 0B       		.uleb128 0xb
 1279 0193 3B       		.uleb128 0x3b
 1280 0194 05       		.uleb128 0x5
 1281 0195 27       		.uleb128 0x27
 1282 0196 0C       		.uleb128 0xc
 1283 0197 49       		.uleb128 0x49
 1284 0198 13       		.uleb128 0x13
 1285 0199 11       		.uleb128 0x11
 1286 019a 01       		.uleb128 0x1
 1287 019b 12       		.uleb128 0x12
 1288 019c 01       		.uleb128 0x1
 1289 019d 40       		.uleb128 0x40
 1290 019e 06       		.uleb128 0x6
 1291 019f 9742     		.uleb128 0x2117
 1292 01a1 0C       		.uleb128 0xc
 1293 01a2 01       		.uleb128 0x1
 1294 01a3 13       		.uleb128 0x13
 1295 01a4 00       		.byte	0
 1296 01a5 00       		.byte	0
 1297 01a6 1E       		.uleb128 0x1e
 1298 01a7 05       		.uleb128 0x5
 1299 01a8 00       		.byte	0
 1300 01a9 03       		.uleb128 0x3
 1301 01aa 0E       		.uleb128 0xe
 1302 01ab 3A       		.uleb128 0x3a
 1303 01ac 0B       		.uleb128 0xb
 1304 01ad 3B       		.uleb128 0x3b
 1305 01ae 05       		.uleb128 0x5
 1306 01af 49       		.uleb128 0x49
 1307 01b0 13       		.uleb128 0x13
ARM GAS  /var/folders/pt/gxfsd_x53tx3h6kb8dkzftl80000gr/T//cciVC3gV.s 			page 24


 1308 01b1 02       		.uleb128 0x2
 1309 01b2 06       		.uleb128 0x6
 1310 01b3 00       		.byte	0
 1311 01b4 00       		.byte	0
 1312 01b5 1F       		.uleb128 0x1f
 1313 01b6 34       		.uleb128 0x34
 1314 01b7 00       		.byte	0
 1315 01b8 03       		.uleb128 0x3
 1316 01b9 0E       		.uleb128 0xe
 1317 01ba 3A       		.uleb128 0x3a
 1318 01bb 0B       		.uleb128 0xb
 1319 01bc 3B       		.uleb128 0x3b
 1320 01bd 05       		.uleb128 0x5
 1321 01be 49       		.uleb128 0x49
 1322 01bf 13       		.uleb128 0x13
 1323 01c0 02       		.uleb128 0x2
 1324 01c1 06       		.uleb128 0x6
 1325 01c2 00       		.byte	0
 1326 01c3 00       		.byte	0
 1327 01c4 20       		.uleb128 0x20
 1328 01c5 2E       		.uleb128 0x2e
 1329 01c6 00       		.byte	0
 1330 01c7 3F       		.uleb128 0x3f
 1331 01c8 0C       		.uleb128 0xc
 1332 01c9 03       		.uleb128 0x3
 1333 01ca 0E       		.uleb128 0xe
 1334 01cb 3A       		.uleb128 0x3a
 1335 01cc 0B       		.uleb128 0xb
 1336 01cd 3B       		.uleb128 0x3b
 1337 01ce 05       		.uleb128 0x5
 1338 01cf 27       		.uleb128 0x27
 1339 01d0 0C       		.uleb128 0xc
 1340 01d1 11       		.uleb128 0x11
 1341 01d2 01       		.uleb128 0x1
 1342 01d3 12       		.uleb128 0x12
 1343 01d4 01       		.uleb128 0x1
 1344 01d5 40       		.uleb128 0x40
 1345 01d6 0A       		.uleb128 0xa
 1346 01d7 9742     		.uleb128 0x2117
 1347 01d9 0C       		.uleb128 0xc
 1348 01da 00       		.byte	0
 1349 01db 00       		.byte	0
 1350 01dc 21       		.uleb128 0x21
 1351 01dd 34       		.uleb128 0x34
 1352 01de 00       		.byte	0
 1353 01df 03       		.uleb128 0x3
 1354 01e0 0E       		.uleb128 0xe
 1355 01e1 3A       		.uleb128 0x3a
 1356 01e2 0B       		.uleb128 0xb
 1357 01e3 3B       		.uleb128 0x3b
 1358 01e4 05       		.uleb128 0x5
 1359 01e5 49       		.uleb128 0x49
 1360 01e6 13       		.uleb128 0x13
 1361 01e7 3F       		.uleb128 0x3f
 1362 01e8 0C       		.uleb128 0xc
 1363 01e9 3C       		.uleb128 0x3c
 1364 01ea 0C       		.uleb128 0xc
ARM GAS  /var/folders/pt/gxfsd_x53tx3h6kb8dkzftl80000gr/T//cciVC3gV.s 			page 25


 1365 01eb 00       		.byte	0
 1366 01ec 00       		.byte	0
 1367 01ed 00       		.byte	0
 1368              		.section	.debug_loc,"",%progbits
 1369              	.Ldebug_loc0:
 1370              	.LLST0:
 1371 0000 00000000 		.4byte	.LVL0
 1372 0004 16000000 		.4byte	.LVL1
 1373 0008 0200     		.2byte	0x2
 1374 000a 34       		.byte	0x34
 1375 000b 9F       		.byte	0x9f
 1376 000c 16000000 		.4byte	.LVL1
 1377 0010 18000000 		.4byte	.LVL2
 1378 0014 0100     		.2byte	0x1
 1379 0016 50       		.byte	0x50
 1380 0017 18000000 		.4byte	.LVL2
 1381 001b 2A000000 		.4byte	.LFE56
 1382 001f 0200     		.2byte	0x2
 1383 0021 34       		.byte	0x34
 1384 0022 9F       		.byte	0x9f
 1385 0023 00000000 		.4byte	0
 1386 0027 00000000 		.4byte	0
 1387              	.LLST1:
 1388 002b 00000000 		.4byte	.LFB57
 1389 002f 02000000 		.4byte	.LCFI0
 1390 0033 0200     		.2byte	0x2
 1391 0035 7D       		.byte	0x7d
 1392 0036 00       		.sleb128 0
 1393 0037 02000000 		.4byte	.LCFI0
 1394 003b 3E000000 		.4byte	.LFE57
 1395 003f 0200     		.2byte	0x2
 1396 0041 7D       		.byte	0x7d
 1397 0042 08       		.sleb128 8
 1398 0043 00000000 		.4byte	0
 1399 0047 00000000 		.4byte	0
 1400              	.LLST2:
 1401 004b 00000000 		.4byte	.LVL3
 1402 004f 07000000 		.4byte	.LVL4-1
 1403 0053 0100     		.2byte	0x1
 1404 0055 50       		.byte	0x50
 1405 0056 07000000 		.4byte	.LVL4-1
 1406 005a 20000000 		.4byte	.LVL6
 1407 005e 0100     		.2byte	0x1
 1408 0060 54       		.byte	0x54
 1409 0061 20000000 		.4byte	.LVL6
 1410 0065 22000000 		.4byte	.LVL7
 1411 0069 0300     		.2byte	0x3
 1412 006b 74       		.byte	0x74
 1413 006c 7F       		.sleb128 -1
 1414 006d 9F       		.byte	0x9f
 1415 006e 22000000 		.4byte	.LVL7
 1416 0072 3E000000 		.4byte	.LFE57
 1417 0076 0100     		.2byte	0x1
 1418 0078 54       		.byte	0x54
 1419 0079 00000000 		.4byte	0
 1420 007d 00000000 		.4byte	0
 1421              	.LLST3:
ARM GAS  /var/folders/pt/gxfsd_x53tx3h6kb8dkzftl80000gr/T//cciVC3gV.s 			page 26


 1422 0081 00000000 		.4byte	.LVL3
 1423 0085 08000000 		.4byte	.LVL4
 1424 0089 0200     		.2byte	0x2
 1425 008b 34       		.byte	0x34
 1426 008c 9F       		.byte	0x9f
 1427 008d 08000000 		.4byte	.LVL4
 1428 0091 1C000000 		.4byte	.LVL5
 1429 0095 0100     		.2byte	0x1
 1430 0097 50       		.byte	0x50
 1431 0098 20000000 		.4byte	.LVL6
 1432 009c 36000000 		.4byte	.LVL8
 1433 00a0 0100     		.2byte	0x1
 1434 00a2 50       		.byte	0x50
 1435 00a3 36000000 		.4byte	.LVL8
 1436 00a7 3C000000 		.4byte	.LVL9
 1437 00ab 0D00     		.2byte	0xd
 1438 00ad 70       		.byte	0x70
 1439 00ae 00       		.sleb128 0
 1440 00af 35       		.byte	0x35
 1441 00b0 74       		.byte	0x74
 1442 00b1 00       		.sleb128 0
 1443 00b2 30       		.byte	0x30
 1444 00b3 2E       		.byte	0x2e
 1445 00b4 28       		.byte	0x28
 1446 00b5 0100     		.2byte	0x1
 1447 00b7 16       		.byte	0x16
 1448 00b8 13       		.byte	0x13
 1449 00b9 9F       		.byte	0x9f
 1450 00ba 00000000 		.4byte	0
 1451 00be 00000000 		.4byte	0
 1452              	.LLST4:
 1453 00c2 00000000 		.4byte	.LFB58
 1454 00c6 02000000 		.4byte	.LCFI1
 1455 00ca 0200     		.2byte	0x2
 1456 00cc 7D       		.byte	0x7d
 1457 00cd 00       		.sleb128 0
 1458 00ce 02000000 		.4byte	.LCFI1
 1459 00d2 40000000 		.4byte	.LFE58
 1460 00d6 0200     		.2byte	0x2
 1461 00d8 7D       		.byte	0x7d
 1462 00d9 10       		.sleb128 16
 1463 00da 00000000 		.4byte	0
 1464 00de 00000000 		.4byte	0
 1465              	.LLST5:
 1466 00e2 00000000 		.4byte	.LVL10
 1467 00e6 08000000 		.4byte	.LVL11
 1468 00ea 0100     		.2byte	0x1
 1469 00ec 50       		.byte	0x50
 1470 00ed 08000000 		.4byte	.LVL11
 1471 00f1 40000000 		.4byte	.LFE58
 1472 00f5 0100     		.2byte	0x1
 1473 00f7 55       		.byte	0x55
 1474 00f8 00000000 		.4byte	0
 1475 00fc 00000000 		.4byte	0
 1476              	.LLST6:
 1477 0100 00000000 		.4byte	.LVL10
 1478 0104 0C000000 		.4byte	.LVL12
ARM GAS  /var/folders/pt/gxfsd_x53tx3h6kb8dkzftl80000gr/T//cciVC3gV.s 			page 27


 1479 0108 0200     		.2byte	0x2
 1480 010a 34       		.byte	0x34
 1481 010b 9F       		.byte	0x9f
 1482 010c 0C000000 		.4byte	.LVL12
 1483 0110 20000000 		.4byte	.LVL13
 1484 0114 0100     		.2byte	0x1
 1485 0116 50       		.byte	0x50
 1486 0117 34000000 		.4byte	.LVL14
 1487 011b 40000000 		.4byte	.LFE58
 1488 011f 0100     		.2byte	0x1
 1489 0121 50       		.byte	0x50
 1490 0122 00000000 		.4byte	0
 1491 0126 00000000 		.4byte	0
 1492              	.LLST7:
 1493 012a 00000000 		.4byte	.LFB60
 1494 012e 02000000 		.4byte	.LCFI2
 1495 0132 0200     		.2byte	0x2
 1496 0134 7D       		.byte	0x7d
 1497 0135 00       		.sleb128 0
 1498 0136 02000000 		.4byte	.LCFI2
 1499 013a 06000000 		.4byte	.LCFI3
 1500 013e 0200     		.2byte	0x2
 1501 0140 7D       		.byte	0x7d
 1502 0141 10       		.sleb128 16
 1503 0142 06000000 		.4byte	.LCFI3
 1504 0146 66000000 		.4byte	.LFE60
 1505 014a 0200     		.2byte	0x2
 1506 014c 7D       		.byte	0x7d
 1507 014d 18       		.sleb128 24
 1508 014e 00000000 		.4byte	0
 1509 0152 00000000 		.4byte	0
 1510              	.LLST8:
 1511 0156 00000000 		.4byte	.LVL16
 1512 015a 0C000000 		.4byte	.LVL17
 1513 015e 0100     		.2byte	0x1
 1514 0160 50       		.byte	0x50
 1515 0161 0C000000 		.4byte	.LVL17
 1516 0165 18000000 		.4byte	.LVL20
 1517 0169 0100     		.2byte	0x1
 1518 016b 55       		.byte	0x55
 1519 016c 18000000 		.4byte	.LVL20
 1520 0170 1C000000 		.4byte	.LVL21
 1521 0174 0400     		.2byte	0x4
 1522 0176 F3       		.byte	0xf3
 1523 0177 01       		.uleb128 0x1
 1524 0178 50       		.byte	0x50
 1525 0179 9F       		.byte	0x9f
 1526 017a 1C000000 		.4byte	.LVL21
 1527 017e 4A000000 		.4byte	.LVL24
 1528 0182 0100     		.2byte	0x1
 1529 0184 55       		.byte	0x55
 1530 0185 4A000000 		.4byte	.LVL24
 1531 0189 66000000 		.4byte	.LFE60
 1532 018d 0300     		.2byte	0x3
 1533 018f 75       		.byte	0x75
 1534 0190 7E       		.sleb128 -2
 1535 0191 9F       		.byte	0x9f
ARM GAS  /var/folders/pt/gxfsd_x53tx3h6kb8dkzftl80000gr/T//cciVC3gV.s 			page 28


 1536 0192 00000000 		.4byte	0
 1537 0196 00000000 		.4byte	0
 1538              	.LLST9:
 1539 019a 00000000 		.4byte	.LVL16
 1540 019e 13000000 		.4byte	.LVL19-1
 1541 01a2 0100     		.2byte	0x1
 1542 01a4 51       		.byte	0x51
 1543 01a5 13000000 		.4byte	.LVL19-1
 1544 01a9 18000000 		.4byte	.LVL20
 1545 01ad 0100     		.2byte	0x1
 1546 01af 54       		.byte	0x54
 1547 01b0 18000000 		.4byte	.LVL20
 1548 01b4 1C000000 		.4byte	.LVL21
 1549 01b8 0400     		.2byte	0x4
 1550 01ba F3       		.byte	0xf3
 1551 01bb 01       		.uleb128 0x1
 1552 01bc 51       		.byte	0x51
 1553 01bd 9F       		.byte	0x9f
 1554 01be 1C000000 		.4byte	.LVL21
 1555 01c2 50000000 		.4byte	.LVL26
 1556 01c6 0100     		.2byte	0x1
 1557 01c8 54       		.byte	0x54
 1558 01c9 50000000 		.4byte	.LVL26
 1559 01cd 66000000 		.4byte	.LFE60
 1560 01d1 0400     		.2byte	0x4
 1561 01d3 F3       		.byte	0xf3
 1562 01d4 01       		.uleb128 0x1
 1563 01d5 51       		.byte	0x51
 1564 01d6 9F       		.byte	0x9f
 1565 01d7 00000000 		.4byte	0
 1566 01db 00000000 		.4byte	0
 1567              	.LLST10:
 1568 01df 00000000 		.4byte	.LVL16
 1569 01e3 14000000 		.4byte	.LVL19
 1570 01e7 0200     		.2byte	0x2
 1571 01e9 34       		.byte	0x34
 1572 01ea 9F       		.byte	0x9f
 1573 01eb 14000000 		.4byte	.LVL19
 1574 01ef 32000000 		.4byte	.LVL22
 1575 01f3 0100     		.2byte	0x1
 1576 01f5 50       		.byte	0x50
 1577 01f6 38000000 		.4byte	.LVL23
 1578 01fa 56000000 		.4byte	.LVL27
 1579 01fe 0100     		.2byte	0x1
 1580 0200 50       		.byte	0x50
 1581 0201 5A000000 		.4byte	.LVL28
 1582 0205 66000000 		.4byte	.LFE60
 1583 0209 0100     		.2byte	0x1
 1584 020b 50       		.byte	0x50
 1585 020c 00000000 		.4byte	0
 1586 0210 00000000 		.4byte	0
 1587              	.LLST11:
 1588 0214 10000000 		.4byte	.LVL18
 1589 0218 4A000000 		.4byte	.LVL24
 1590 021c 0200     		.2byte	0x2
 1591 021e 91       		.byte	0x91
 1592 021f 6C       		.sleb128 -20
ARM GAS  /var/folders/pt/gxfsd_x53tx3h6kb8dkzftl80000gr/T//cciVC3gV.s 			page 29


 1593 0220 4C000000 		.4byte	.LVL25
 1594 0224 66000000 		.4byte	.LFE60
 1595 0228 0100     		.2byte	0x1
 1596 022a 55       		.byte	0x55
 1597 022b 00000000 		.4byte	0
 1598 022f 00000000 		.4byte	0
 1599              	.LLST12:
 1600 0233 00000000 		.4byte	.LFB61
 1601 0237 02000000 		.4byte	.LCFI4
 1602 023b 0200     		.2byte	0x2
 1603 023d 7D       		.byte	0x7d
 1604 023e 00       		.sleb128 0
 1605 023f 02000000 		.4byte	.LCFI4
 1606 0243 3A000000 		.4byte	.LFE61
 1607 0247 0200     		.2byte	0x2
 1608 0249 7D       		.byte	0x7d
 1609 024a 10       		.sleb128 16
 1610 024b 00000000 		.4byte	0
 1611 024f 00000000 		.4byte	0
 1612              	.LLST13:
 1613 0253 00000000 		.4byte	.LVL29
 1614 0257 08000000 		.4byte	.LVL30
 1615 025b 0100     		.2byte	0x1
 1616 025d 50       		.byte	0x50
 1617 025e 08000000 		.4byte	.LVL30
 1618 0262 3A000000 		.4byte	.LFE61
 1619 0266 0100     		.2byte	0x1
 1620 0268 54       		.byte	0x54
 1621 0269 00000000 		.4byte	0
 1622 026d 00000000 		.4byte	0
 1623              	.LLST14:
 1624 0271 00000000 		.4byte	.LVL29
 1625 0275 0D000000 		.4byte	.LVL31-1
 1626 0279 0100     		.2byte	0x1
 1627 027b 51       		.byte	0x51
 1628 027c 0D000000 		.4byte	.LVL31-1
 1629 0280 3A000000 		.4byte	.LFE61
 1630 0284 0400     		.2byte	0x4
 1631 0286 F3       		.byte	0xf3
 1632 0287 01       		.uleb128 0x1
 1633 0288 51       		.byte	0x51
 1634 0289 9F       		.byte	0x9f
 1635 028a 00000000 		.4byte	0
 1636 028e 00000000 		.4byte	0
 1637              	.LLST15:
 1638 0292 00000000 		.4byte	.LVL29
 1639 0296 0E000000 		.4byte	.LVL31
 1640 029a 0200     		.2byte	0x2
 1641 029c 34       		.byte	0x34
 1642 029d 9F       		.byte	0x9f
 1643 029e 0E000000 		.4byte	.LVL31
 1644 02a2 22000000 		.4byte	.LVL32
 1645 02a6 0100     		.2byte	0x1
 1646 02a8 50       		.byte	0x50
 1647 02a9 2E000000 		.4byte	.LVL33
 1648 02ad 3A000000 		.4byte	.LFE61
 1649 02b1 0100     		.2byte	0x1
ARM GAS  /var/folders/pt/gxfsd_x53tx3h6kb8dkzftl80000gr/T//cciVC3gV.s 			page 30


 1650 02b3 50       		.byte	0x50
 1651 02b4 00000000 		.4byte	0
 1652 02b8 00000000 		.4byte	0
 1653              		.section	.debug_aranges,"",%progbits
 1654 0000 4C000000 		.4byte	0x4c
 1655 0004 0200     		.2byte	0x2
 1656 0006 00000000 		.4byte	.Ldebug_info0
 1657 000a 04       		.byte	0x4
 1658 000b 00       		.byte	0
 1659 000c 0000     		.2byte	0
 1660 000e 0000     		.2byte	0
 1661 0010 00000000 		.4byte	.LFB56
 1662 0014 2A000000 		.4byte	.LFE56-.LFB56
 1663 0018 00000000 		.4byte	.LFB57
 1664 001c 3E000000 		.4byte	.LFE57-.LFB57
 1665 0020 00000000 		.4byte	.LFB58
 1666 0024 40000000 		.4byte	.LFE58-.LFB58
 1667 0028 00000000 		.4byte	.LFB59
 1668 002c 0C000000 		.4byte	.LFE59-.LFB59
 1669 0030 00000000 		.4byte	.LFB60
 1670 0034 66000000 		.4byte	.LFE60-.LFB60
 1671 0038 00000000 		.4byte	.LFB61
 1672 003c 3A000000 		.4byte	.LFE61-.LFB61
 1673 0040 00000000 		.4byte	.LFB62
 1674 0044 1E000000 		.4byte	.LFE62-.LFB62
 1675 0048 00000000 		.4byte	0
 1676 004c 00000000 		.4byte	0
 1677              		.section	.debug_ranges,"",%progbits
 1678              	.Ldebug_ranges0:
 1679 0000 00000000 		.4byte	.LFB56
 1680 0004 2A000000 		.4byte	.LFE56
 1681 0008 00000000 		.4byte	.LFB57
 1682 000c 3E000000 		.4byte	.LFE57
 1683 0010 00000000 		.4byte	.LFB58
 1684 0014 40000000 		.4byte	.LFE58
 1685 0018 00000000 		.4byte	.LFB59
 1686 001c 0C000000 		.4byte	.LFE59
 1687 0020 00000000 		.4byte	.LFB60
 1688 0024 66000000 		.4byte	.LFE60
 1689 0028 00000000 		.4byte	.LFB61
 1690 002c 3A000000 		.4byte	.LFE61
 1691 0030 00000000 		.4byte	.LFB62
 1692 0034 1E000000 		.4byte	.LFE62
 1693 0038 00000000 		.4byte	0
 1694 003c 00000000 		.4byte	0
 1695              		.section	.debug_line,"",%progbits
 1696              	.Ldebug_line0:
 1697 0000 29020000 		.section	.debug_str,"MS",%progbits,1
 1697      02005501 
 1697      00000201 
 1697      FB0E0D00 
 1697      01010101 
 1698              	.LASF33:
 1699 0000 464C4153 		.ascii	"FLASH_ProgramHalfWord\000"
 1699      485F5072 
 1699      6F677261 
 1699      6D48616C 
ARM GAS  /var/folders/pt/gxfsd_x53tx3h6kb8dkzftl80000gr/T//cciVC3gV.s 			page 31


 1699      66576F72 
 1700              	.LASF27:
 1701 0016 50616765 		.ascii	"Page_Address\000"
 1701      5F416464 
 1701      72657373 
 1701      00
 1702              	.LASF32:
 1703 0023 44617461 		.ascii	"Data\000"
 1703      00
 1704              	.LASF21:
 1705 0028 464C4153 		.ascii	"FLASH_COMPLETE\000"
 1705      485F434F 
 1705      4D504C45 
 1705      544500
 1706              	.LASF35:
 1707 0037 636F6E76 		.ascii	"convex/convex/cortex/opt/stm32_flash.c\000"
 1707      65782F63 
 1707      6F6E7665 
 1707      782F636F 
 1707      72746578 
 1708              	.LASF17:
 1709 005e 464C4153 		.ascii	"FLASH_TypeDef\000"
 1709      485F5479 
 1709      70654465 
 1709      6600
 1710              	.LASF6:
 1711 006c 6C6F6E67 		.ascii	"long int\000"
 1711      20696E74 
 1711      00
 1712              	.LASF39:
 1713 0075 464C4153 		.ascii	"FLASH_ClearFlag\000"
 1713      485F436C 
 1713      65617246 
 1713      6C616700 
 1714              	.LASF30:
 1715 0085 464C4153 		.ascii	"FLASH_ProgramWord\000"
 1715      485F5072 
 1715      6F677261 
 1715      6D576F72 
 1715      6400
 1716              	.LASF28:
 1717 0097 73746174 		.ascii	"status\000"
 1717      757300
 1718              	.LASF24:
 1719 009e 464C4153 		.ascii	"FLASH_WaitForLastOperation\000"
 1719      485F5761 
 1719      6974466F 
 1719      724C6173 
 1719      744F7065 
 1720              	.LASF29:
 1721 00b9 464C4153 		.ascii	"FLASH_FLAG\000"
 1721      485F464C 
 1721      414700
 1722              	.LASF0:
 1723 00c4 7369676E 		.ascii	"signed char\000"
 1723      65642063 
 1723      68617200 
ARM GAS  /var/folders/pt/gxfsd_x53tx3h6kb8dkzftl80000gr/T//cciVC3gV.s 			page 32


 1724              	.LASF8:
 1725 00d0 6C6F6E67 		.ascii	"long unsigned int\000"
 1725      20756E73 
 1725      69676E65 
 1725      6420696E 
 1725      7400
 1726              	.LASF3:
 1727 00e2 73686F72 		.ascii	"short unsigned int\000"
 1727      7420756E 
 1727      7369676E 
 1727      65642069 
 1727      6E7400
 1728              	.LASF37:
 1729 00f5 464C4153 		.ascii	"FLASH_GetBank1Status\000"
 1729      485F4765 
 1729      7442616E 
 1729      6B315374 
 1729      61747573 
 1730              	.LASF41:
 1731 010a 49544D5F 		.ascii	"ITM_RxBuffer\000"
 1731      52784275 
 1731      66666572 
 1731      00
 1732              	.LASF25:
 1733 0117 464C4153 		.ascii	"FLASH_ErasePage\000"
 1733      485F4572 
 1733      61736550 
 1733      61676500 
 1734              	.LASF14:
 1735 0127 4F50544B 		.ascii	"OPTKEYR\000"
 1735      45595200 
 1736              	.LASF1:
 1737 012f 756E7369 		.ascii	"unsigned char\000"
 1737      676E6564 
 1737      20636861 
 1737      7200
 1738              	.LASF36:
 1739 013d 2F557365 		.ascii	"/Users/programmer/git/Prototypes/Jaws\000"
 1739      72732F70 
 1739      726F6772 
 1739      616D6D65 
 1739      722F6769 
 1740              	.LASF15:
 1741 0163 52455345 		.ascii	"RESERVED\000"
 1741      52564544 
 1741      00
 1742              	.LASF19:
 1743 016c 464C4153 		.ascii	"FLASH_ERROR_PG\000"
 1743      485F4552 
 1743      524F525F 
 1743      504700
 1744              	.LASF11:
 1745 017b 756E7369 		.ascii	"unsigned int\000"
 1745      676E6564 
 1745      20696E74 
 1745      00
 1746              	.LASF40:
ARM GAS  /var/folders/pt/gxfsd_x53tx3h6kb8dkzftl80000gr/T//cciVC3gV.s 			page 33


 1747 0188 464C4153 		.ascii	"FLASH_UnlockBank1\000"
 1747      485F556E 
 1747      6C6F636B 
 1747      42616E6B 
 1747      3100
 1748              	.LASF10:
 1749 019a 6C6F6E67 		.ascii	"long long unsigned int\000"
 1749      206C6F6E 
 1749      6720756E 
 1749      7369676E 
 1749      65642069 
 1750              	.LASF20:
 1751 01b1 464C4153 		.ascii	"FLASH_ERROR_WRP\000"
 1751      485F4552 
 1751      524F525F 
 1751      57525000 
 1752              	.LASF16:
 1753 01c1 57525052 		.ascii	"WRPR\000"
 1753      00
 1754              	.LASF5:
 1755 01c6 696E7433 		.ascii	"int32_t\000"
 1755      325F7400 
 1756              	.LASF12:
 1757 01ce 73697A65 		.ascii	"sizetype\000"
 1757      74797065 
 1757      00
 1758              	.LASF9:
 1759 01d7 6C6F6E67 		.ascii	"long long int\000"
 1759      206C6F6E 
 1759      6720696E 
 1759      7400
 1760              	.LASF23:
 1761 01e5 464C4153 		.ascii	"FLASH_Status\000"
 1761      485F5374 
 1761      61747573 
 1761      00
 1762              	.LASF34:
 1763 01f2 474E5520 		.ascii	"GNU C 4.7.2\000"
 1763      4320342E 
 1763      372E3200 
 1764              	.LASF2:
 1765 01fe 73686F72 		.ascii	"short int\000"
 1765      7420696E 
 1765      7400
 1766              	.LASF31:
 1767 0208 41646472 		.ascii	"Address\000"
 1767      65737300 
 1768              	.LASF4:
 1769 0210 75696E74 		.ascii	"uint16_t\000"
 1769      31365F74 
 1769      00
 1770              	.LASF7:
 1771 0219 75696E74 		.ascii	"uint32_t\000"
 1771      33325F74 
 1771      00
 1772              	.LASF22:
 1773 0222 464C4153 		.ascii	"FLASH_TIMEOUT\000"
ARM GAS  /var/folders/pt/gxfsd_x53tx3h6kb8dkzftl80000gr/T//cciVC3gV.s 			page 34


 1773      485F5449 
 1773      4D454F55 
 1773      5400
 1774              	.LASF13:
 1775 0230 4B455952 		.ascii	"KEYR\000"
 1775      00
 1776              	.LASF38:
 1777 0235 666C6173 		.ascii	"flashstatus\000"
 1777      68737461 
 1777      74757300 
 1778              	.LASF18:
 1779 0241 464C4153 		.ascii	"FLASH_BUSY\000"
 1779      485F4255 
 1779      535900
 1780              	.LASF26:
 1781 024c 54696D65 		.ascii	"Timeout\000"
 1781      6F757400 
 1782              		.ident	"GCC: (GNU) 4.7.2"
ARM GAS  /var/folders/pt/gxfsd_x53tx3h6kb8dkzftl80000gr/T//cciVC3gV.s 			page 35


DEFINED SYMBOLS
                            *ABS*:0000000000000000 stm32_flash.c
/var/folders/pt/gxfsd_x53tx3h6kb8dkzftl80000gr/T//cciVC3gV.s:19     .text.FLASH_GetBank1Status:0000000000000000 $t
/var/folders/pt/gxfsd_x53tx3h6kb8dkzftl80000gr/T//cciVC3gV.s:25     .text.FLASH_GetBank1Status:0000000000000000 FLASH_GetBank1Status
/var/folders/pt/gxfsd_x53tx3h6kb8dkzftl80000gr/T//cciVC3gV.s:71     .text.FLASH_WaitForLastOperation:0000000000000000 $t
/var/folders/pt/gxfsd_x53tx3h6kb8dkzftl80000gr/T//cciVC3gV.s:77     .text.FLASH_WaitForLastOperation:0000000000000000 FLASH_WaitForLastOperation
/var/folders/pt/gxfsd_x53tx3h6kb8dkzftl80000gr/T//cciVC3gV.s:131    .text.FLASH_ErasePage:0000000000000000 $t
/var/folders/pt/gxfsd_x53tx3h6kb8dkzftl80000gr/T//cciVC3gV.s:137    .text.FLASH_ErasePage:0000000000000000 FLASH_ErasePage
/var/folders/pt/gxfsd_x53tx3h6kb8dkzftl80000gr/T//cciVC3gV.s:194    .text.FLASH_ClearFlag:0000000000000000 $t
/var/folders/pt/gxfsd_x53tx3h6kb8dkzftl80000gr/T//cciVC3gV.s:200    .text.FLASH_ClearFlag:0000000000000000 FLASH_ClearFlag
/var/folders/pt/gxfsd_x53tx3h6kb8dkzftl80000gr/T//cciVC3gV.s:217    .text.FLASH_ProgramWord:0000000000000000 $t
/var/folders/pt/gxfsd_x53tx3h6kb8dkzftl80000gr/T//cciVC3gV.s:223    .text.FLASH_ProgramWord:0000000000000000 FLASH_ProgramWord
/var/folders/pt/gxfsd_x53tx3h6kb8dkzftl80000gr/T//cciVC3gV.s:318    .text.FLASH_ProgramHalfWord:0000000000000000 $t
/var/folders/pt/gxfsd_x53tx3h6kb8dkzftl80000gr/T//cciVC3gV.s:324    .text.FLASH_ProgramHalfWord:0000000000000000 FLASH_ProgramHalfWord
/var/folders/pt/gxfsd_x53tx3h6kb8dkzftl80000gr/T//cciVC3gV.s:380    .text.FLASH_UnlockBank1:0000000000000000 $t
/var/folders/pt/gxfsd_x53tx3h6kb8dkzftl80000gr/T//cciVC3gV.s:386    .text.FLASH_UnlockBank1:0000000000000000 FLASH_UnlockBank1
                     .debug_frame:0000000000000010 $d

NO UNDEFINED SYMBOLS
