ARM GAS  /var/folders/pt/gxfsd_x53tx3h6kb8dkzftl80000gr/T//cc0Go2Xs.s 			page 1


   1              		.syntax unified
   2              		.cpu cortex-m3
   3              		.fpu softvfp
   4              		.eabi_attribute 20, 1
   5              		.eabi_attribute 21, 1
   6              		.eabi_attribute 23, 3
   7              		.eabi_attribute 24, 1
   8              		.eabi_attribute 25, 1
   9              		.eabi_attribute 26, 1
  10              		.eabi_attribute 30, 2
  11              		.eabi_attribute 34, 1
  12              		.eabi_attribute 18, 4
  13              		.thumb
  14              		.file	"stm32_dma.c"
  15              		.text
  16              	.Ltext0:
  17              		.cfi_sections	.debug_frame
  18              		.section	.text.Vector6C,"ax",%progbits
  19              		.align	2
  20              		.p2align 4,,15
  21              		.global	Vector6C
  22              		.thumb
  23              		.thumb_func
  24              		.type	Vector6C, %function
  25              	Vector6C:
  26              	.LFB63:
  27              		.file 1 "convex/ChibiOS_2.6.2/os/hal/platforms/STM32F1xx/stm32_dma.c"
  28              		.loc 1 126 0
  29              		.cfi_startproc
  30              		@ args = 0, pretend = 0, frame = 0
  31              		@ frame_needed = 0, uses_anonymous_args = 0
  32 0000 08B5     		push	{r3, lr}
  33              	.LCFI0:
  34              		.cfi_def_cfa_offset 8
  35              		.cfi_offset 3, -8
  36              		.cfi_offset 14, -4
  37              		.loc 1 131 0
  38 0002 0023     		movs	r3, #0
  39 0004 C4F20203 		movt	r3, 16386
  40              		.loc 1 133 0
  41 0008 0648     		ldr	r0, .L7
  42              		.loc 1 131 0
  43 000a 1968     		ldr	r1, [r3, #0]
  44              		.loc 1 133 0
  45 000c 0268     		ldr	r2, [r0, #0]
  46              		.loc 1 131 0
  47 000e 01F00F01 		and	r1, r1, #15
  48              	.LVL0:
  49              		.loc 1 132 0
  50 0012 5960     		str	r1, [r3, #4]
  51              		.loc 1 133 0
  52 0014 0AB1     		cbz	r2, .L2
  53              		.loc 1 134 0
  54 0016 4068     		ldr	r0, [r0, #4]
  55 0018 9047     		blx	r2
  56              	.LVL1:
  57              	.L2:
ARM GAS  /var/folders/pt/gxfsd_x53tx3h6kb8dkzftl80000gr/T//cc0Go2Xs.s 			page 2


  58              		.loc 1 137 0
  59 001a BDE80840 		pop	{r3, lr}
  60              		.loc 1 136 0
  61 001e FFF7FEBF 		b	_port_irq_epilogue
  62              	.LVL2:
  63              	.L8:
  64 0022 00BF     		.align	2
  65              	.L7:
  66 0024 00000000 		.word	.LANCHOR0
  67              		.cfi_endproc
  68              	.LFE63:
  69              		.size	Vector6C, .-Vector6C
  70 0028 AFF30080 		.section	.text.Vector70,"ax",%progbits
  70      AFF30080 
  71              		.align	2
  72              		.p2align 4,,15
  73              		.global	Vector70
  74              		.thumb
  75              		.thumb_func
  76              		.type	Vector70, %function
  77              	Vector70:
  78              	.LFB64:
  79              		.loc 1 144 0
  80              		.cfi_startproc
  81              		@ args = 0, pretend = 0, frame = 0
  82              		@ frame_needed = 0, uses_anonymous_args = 0
  83              		.loc 1 149 0
  84 0000 0023     		movs	r3, #0
  85 0002 C4F20203 		movt	r3, 16386
  86 0006 1968     		ldr	r1, [r3, #0]
  87              		.loc 1 151 0
  88 0008 0648     		ldr	r0, .L14
  89              		.loc 1 149 0
  90 000a C1F30311 		ubfx	r1, r1, #4, #4
  91              	.LVL3:
  92              		.loc 1 151 0
  93 000e 8268     		ldr	r2, [r0, #8]
  94              		.loc 1 144 0
  95 0010 10B5     		push	{r4, lr}
  96              	.LCFI1:
  97              		.cfi_def_cfa_offset 8
  98              		.cfi_offset 4, -8
  99              		.cfi_offset 14, -4
 100              		.loc 1 150 0
 101 0012 0C01     		lsls	r4, r1, #4
 102 0014 5C60     		str	r4, [r3, #4]
 103              		.loc 1 151 0
 104 0016 0AB1     		cbz	r2, .L10
 105              		.loc 1 152 0
 106 0018 C068     		ldr	r0, [r0, #12]
 107 001a 9047     		blx	r2
 108              	.LVL4:
 109              	.L10:
 110              		.loc 1 155 0
 111 001c BDE81040 		pop	{r4, lr}
 112              		.loc 1 154 0
 113 0020 FFF7FEBF 		b	_port_irq_epilogue
ARM GAS  /var/folders/pt/gxfsd_x53tx3h6kb8dkzftl80000gr/T//cc0Go2Xs.s 			page 3


 114              	.LVL5:
 115              	.L15:
 116              		.align	2
 117              	.L14:
 118 0024 00000000 		.word	.LANCHOR0
 119              		.cfi_endproc
 120              	.LFE64:
 121              		.size	Vector70, .-Vector70
 122 0028 AFF30080 		.section	.text.Vector74,"ax",%progbits
 122      AFF30080 
 123              		.align	2
 124              		.p2align 4,,15
 125              		.global	Vector74
 126              		.thumb
 127              		.thumb_func
 128              		.type	Vector74, %function
 129              	Vector74:
 130              	.LFB65:
 131              		.loc 1 162 0
 132              		.cfi_startproc
 133              		@ args = 0, pretend = 0, frame = 0
 134              		@ frame_needed = 0, uses_anonymous_args = 0
 135              		.loc 1 167 0
 136 0000 0023     		movs	r3, #0
 137 0002 C4F20203 		movt	r3, 16386
 138 0006 1968     		ldr	r1, [r3, #0]
 139              		.loc 1 169 0
 140 0008 0648     		ldr	r0, .L21
 141              		.loc 1 167 0
 142 000a C1F30321 		ubfx	r1, r1, #8, #4
 143              	.LVL6:
 144              		.loc 1 169 0
 145 000e 0269     		ldr	r2, [r0, #16]
 146              		.loc 1 162 0
 147 0010 10B5     		push	{r4, lr}
 148              	.LCFI2:
 149              		.cfi_def_cfa_offset 8
 150              		.cfi_offset 4, -8
 151              		.cfi_offset 14, -4
 152              		.loc 1 168 0
 153 0012 0C02     		lsls	r4, r1, #8
 154 0014 5C60     		str	r4, [r3, #4]
 155              		.loc 1 169 0
 156 0016 0AB1     		cbz	r2, .L17
 157              		.loc 1 170 0
 158 0018 4069     		ldr	r0, [r0, #20]
 159 001a 9047     		blx	r2
 160              	.LVL7:
 161              	.L17:
 162              		.loc 1 173 0
 163 001c BDE81040 		pop	{r4, lr}
 164              		.loc 1 172 0
 165 0020 FFF7FEBF 		b	_port_irq_epilogue
 166              	.LVL8:
 167              	.L22:
 168              		.align	2
 169              	.L21:
ARM GAS  /var/folders/pt/gxfsd_x53tx3h6kb8dkzftl80000gr/T//cc0Go2Xs.s 			page 4


 170 0024 00000000 		.word	.LANCHOR0
 171              		.cfi_endproc
 172              	.LFE65:
 173              		.size	Vector74, .-Vector74
 174 0028 AFF30080 		.section	.text.Vector78,"ax",%progbits
 174      AFF30080 
 175              		.align	2
 176              		.p2align 4,,15
 177              		.global	Vector78
 178              		.thumb
 179              		.thumb_func
 180              		.type	Vector78, %function
 181              	Vector78:
 182              	.LFB66:
 183              		.loc 1 180 0
 184              		.cfi_startproc
 185              		@ args = 0, pretend = 0, frame = 0
 186              		@ frame_needed = 0, uses_anonymous_args = 0
 187              		.loc 1 185 0
 188 0000 0023     		movs	r3, #0
 189 0002 C4F20203 		movt	r3, 16386
 190 0006 1968     		ldr	r1, [r3, #0]
 191              		.loc 1 187 0
 192 0008 0648     		ldr	r0, .L28
 193              		.loc 1 185 0
 194 000a C1F30331 		ubfx	r1, r1, #12, #4
 195              	.LVL9:
 196              		.loc 1 187 0
 197 000e 8269     		ldr	r2, [r0, #24]
 198              		.loc 1 180 0
 199 0010 10B5     		push	{r4, lr}
 200              	.LCFI3:
 201              		.cfi_def_cfa_offset 8
 202              		.cfi_offset 4, -8
 203              		.cfi_offset 14, -4
 204              		.loc 1 186 0
 205 0012 0C03     		lsls	r4, r1, #12
 206 0014 5C60     		str	r4, [r3, #4]
 207              		.loc 1 187 0
 208 0016 0AB1     		cbz	r2, .L24
 209              		.loc 1 188 0
 210 0018 C069     		ldr	r0, [r0, #28]
 211 001a 9047     		blx	r2
 212              	.LVL10:
 213              	.L24:
 214              		.loc 1 191 0
 215 001c BDE81040 		pop	{r4, lr}
 216              		.loc 1 190 0
 217 0020 FFF7FEBF 		b	_port_irq_epilogue
 218              	.LVL11:
 219              	.L29:
 220              		.align	2
 221              	.L28:
 222 0024 00000000 		.word	.LANCHOR0
 223              		.cfi_endproc
 224              	.LFE66:
 225              		.size	Vector78, .-Vector78
ARM GAS  /var/folders/pt/gxfsd_x53tx3h6kb8dkzftl80000gr/T//cc0Go2Xs.s 			page 5


 226 0028 AFF30080 		.section	.text.Vector7C,"ax",%progbits
 226      AFF30080 
 227              		.align	2
 228              		.p2align 4,,15
 229              		.global	Vector7C
 230              		.thumb
 231              		.thumb_func
 232              		.type	Vector7C, %function
 233              	Vector7C:
 234              	.LFB67:
 235              		.loc 1 198 0
 236              		.cfi_startproc
 237              		@ args = 0, pretend = 0, frame = 0
 238              		@ frame_needed = 0, uses_anonymous_args = 0
 239              		.loc 1 203 0
 240 0000 0023     		movs	r3, #0
 241 0002 C4F20203 		movt	r3, 16386
 242 0006 1968     		ldr	r1, [r3, #0]
 243              		.loc 1 205 0
 244 0008 0648     		ldr	r0, .L35
 245              		.loc 1 203 0
 246 000a C1F30341 		ubfx	r1, r1, #16, #4
 247              	.LVL12:
 248              		.loc 1 205 0
 249 000e 026A     		ldr	r2, [r0, #32]
 250              		.loc 1 198 0
 251 0010 10B5     		push	{r4, lr}
 252              	.LCFI4:
 253              		.cfi_def_cfa_offset 8
 254              		.cfi_offset 4, -8
 255              		.cfi_offset 14, -4
 256              		.loc 1 204 0
 257 0012 0C04     		lsls	r4, r1, #16
 258 0014 5C60     		str	r4, [r3, #4]
 259              		.loc 1 205 0
 260 0016 0AB1     		cbz	r2, .L31
 261              		.loc 1 206 0
 262 0018 406A     		ldr	r0, [r0, #36]
 263 001a 9047     		blx	r2
 264              	.LVL13:
 265              	.L31:
 266              		.loc 1 209 0
 267 001c BDE81040 		pop	{r4, lr}
 268              		.loc 1 208 0
 269 0020 FFF7FEBF 		b	_port_irq_epilogue
 270              	.LVL14:
 271              	.L36:
 272              		.align	2
 273              	.L35:
 274 0024 00000000 		.word	.LANCHOR0
 275              		.cfi_endproc
 276              	.LFE67:
 277              		.size	Vector7C, .-Vector7C
 278 0028 AFF30080 		.section	.text.Vector80,"ax",%progbits
 278      AFF30080 
 279              		.align	2
 280              		.p2align 4,,15
ARM GAS  /var/folders/pt/gxfsd_x53tx3h6kb8dkzftl80000gr/T//cc0Go2Xs.s 			page 6


 281              		.global	Vector80
 282              		.thumb
 283              		.thumb_func
 284              		.type	Vector80, %function
 285              	Vector80:
 286              	.LFB68:
 287              		.loc 1 216 0
 288              		.cfi_startproc
 289              		@ args = 0, pretend = 0, frame = 0
 290              		@ frame_needed = 0, uses_anonymous_args = 0
 291              		.loc 1 221 0
 292 0000 0023     		movs	r3, #0
 293 0002 C4F20203 		movt	r3, 16386
 294 0006 1968     		ldr	r1, [r3, #0]
 295              		.loc 1 223 0
 296 0008 0648     		ldr	r0, .L42
 297              		.loc 1 221 0
 298 000a C1F30351 		ubfx	r1, r1, #20, #4
 299              	.LVL15:
 300              		.loc 1 223 0
 301 000e 826A     		ldr	r2, [r0, #40]
 302              		.loc 1 216 0
 303 0010 10B5     		push	{r4, lr}
 304              	.LCFI5:
 305              		.cfi_def_cfa_offset 8
 306              		.cfi_offset 4, -8
 307              		.cfi_offset 14, -4
 308              		.loc 1 222 0
 309 0012 0C05     		lsls	r4, r1, #20
 310 0014 5C60     		str	r4, [r3, #4]
 311              		.loc 1 223 0
 312 0016 0AB1     		cbz	r2, .L38
 313              		.loc 1 224 0
 314 0018 C06A     		ldr	r0, [r0, #44]
 315 001a 9047     		blx	r2
 316              	.LVL16:
 317              	.L38:
 318              		.loc 1 227 0
 319 001c BDE81040 		pop	{r4, lr}
 320              		.loc 1 226 0
 321 0020 FFF7FEBF 		b	_port_irq_epilogue
 322              	.LVL17:
 323              	.L43:
 324              		.align	2
 325              	.L42:
 326 0024 00000000 		.word	.LANCHOR0
 327              		.cfi_endproc
 328              	.LFE68:
 329              		.size	Vector80, .-Vector80
 330 0028 AFF30080 		.section	.text.Vector84,"ax",%progbits
 330      AFF30080 
 331              		.align	2
 332              		.p2align 4,,15
 333              		.global	Vector84
 334              		.thumb
 335              		.thumb_func
 336              		.type	Vector84, %function
ARM GAS  /var/folders/pt/gxfsd_x53tx3h6kb8dkzftl80000gr/T//cc0Go2Xs.s 			page 7


 337              	Vector84:
 338              	.LFB69:
 339              		.loc 1 234 0
 340              		.cfi_startproc
 341              		@ args = 0, pretend = 0, frame = 0
 342              		@ frame_needed = 0, uses_anonymous_args = 0
 343              		.loc 1 239 0
 344 0000 0023     		movs	r3, #0
 345 0002 C4F20203 		movt	r3, 16386
 346 0006 1968     		ldr	r1, [r3, #0]
 347              		.loc 1 241 0
 348 0008 0648     		ldr	r0, .L49
 349              		.loc 1 239 0
 350 000a C1F30361 		ubfx	r1, r1, #24, #4
 351              	.LVL18:
 352              		.loc 1 241 0
 353 000e 026B     		ldr	r2, [r0, #48]
 354              		.loc 1 234 0
 355 0010 10B5     		push	{r4, lr}
 356              	.LCFI6:
 357              		.cfi_def_cfa_offset 8
 358              		.cfi_offset 4, -8
 359              		.cfi_offset 14, -4
 360              		.loc 1 240 0
 361 0012 0C06     		lsls	r4, r1, #24
 362 0014 5C60     		str	r4, [r3, #4]
 363              		.loc 1 241 0
 364 0016 0AB1     		cbz	r2, .L45
 365              		.loc 1 242 0
 366 0018 406B     		ldr	r0, [r0, #52]
 367 001a 9047     		blx	r2
 368              	.LVL19:
 369              	.L45:
 370              		.loc 1 245 0
 371 001c BDE81040 		pop	{r4, lr}
 372              		.loc 1 244 0
 373 0020 FFF7FEBF 		b	_port_irq_epilogue
 374              	.LVL20:
 375              	.L50:
 376              		.align	2
 377              	.L49:
 378 0024 00000000 		.word	.LANCHOR0
 379              		.cfi_endproc
 380              	.LFE69:
 381              		.size	Vector84, .-Vector84
 382 0028 AFF30080 		.section	.text.Vector120,"ax",%progbits
 382      AFF30080 
 383              		.align	2
 384              		.p2align 4,,15
 385              		.global	Vector120
 386              		.thumb
 387              		.thumb_func
 388              		.type	Vector120, %function
 389              	Vector120:
 390              	.LFB70:
 391              		.loc 1 253 0
 392              		.cfi_startproc
ARM GAS  /var/folders/pt/gxfsd_x53tx3h6kb8dkzftl80000gr/T//cc0Go2Xs.s 			page 8


 393              		@ args = 0, pretend = 0, frame = 0
 394              		@ frame_needed = 0, uses_anonymous_args = 0
 395 0000 08B5     		push	{r3, lr}
 396              	.LCFI7:
 397              		.cfi_def_cfa_offset 8
 398              		.cfi_offset 3, -8
 399              		.cfi_offset 14, -4
 400              		.loc 1 258 0
 401 0002 4FF48063 		mov	r3, #1024
 402 0006 C4F20203 		movt	r3, 16386
 403              		.loc 1 260 0
 404 000a 0648     		ldr	r0, .L56
 405              		.loc 1 258 0
 406 000c 1968     		ldr	r1, [r3, #0]
 407              		.loc 1 260 0
 408 000e 826B     		ldr	r2, [r0, #56]
 409              		.loc 1 258 0
 410 0010 01F00F01 		and	r1, r1, #15
 411              	.LVL21:
 412              		.loc 1 259 0
 413 0014 5960     		str	r1, [r3, #4]
 414              		.loc 1 260 0
 415 0016 0AB1     		cbz	r2, .L52
 416              		.loc 1 261 0
 417 0018 C06B     		ldr	r0, [r0, #60]
 418 001a 9047     		blx	r2
 419              	.LVL22:
 420              	.L52:
 421              		.loc 1 264 0
 422 001c BDE80840 		pop	{r3, lr}
 423              		.loc 1 263 0
 424 0020 FFF7FEBF 		b	_port_irq_epilogue
 425              	.LVL23:
 426              	.L57:
 427              		.align	2
 428              	.L56:
 429 0024 00000000 		.word	.LANCHOR0
 430              		.cfi_endproc
 431              	.LFE70:
 432              		.size	Vector120, .-Vector120
 433 0028 AFF30080 		.section	.text.Vector124,"ax",%progbits
 433      AFF30080 
 434              		.align	2
 435              		.p2align 4,,15
 436              		.global	Vector124
 437              		.thumb
 438              		.thumb_func
 439              		.type	Vector124, %function
 440              	Vector124:
 441              	.LFB71:
 442              		.loc 1 271 0
 443              		.cfi_startproc
 444              		@ args = 0, pretend = 0, frame = 0
 445              		@ frame_needed = 0, uses_anonymous_args = 0
 446              		.loc 1 276 0
 447 0000 4FF48063 		mov	r3, #1024
 448 0004 C4F20203 		movt	r3, 16386
ARM GAS  /var/folders/pt/gxfsd_x53tx3h6kb8dkzftl80000gr/T//cc0Go2Xs.s 			page 9


 449 0008 1968     		ldr	r1, [r3, #0]
 450              		.loc 1 278 0
 451 000a 0748     		ldr	r0, .L63
 452              		.loc 1 276 0
 453 000c C1F30311 		ubfx	r1, r1, #4, #4
 454              	.LVL24:
 455              		.loc 1 278 0
 456 0010 026C     		ldr	r2, [r0, #64]
 457              		.loc 1 271 0
 458 0012 10B5     		push	{r4, lr}
 459              	.LCFI8:
 460              		.cfi_def_cfa_offset 8
 461              		.cfi_offset 4, -8
 462              		.cfi_offset 14, -4
 463              		.loc 1 277 0
 464 0014 0C01     		lsls	r4, r1, #4
 465 0016 5C60     		str	r4, [r3, #4]
 466              		.loc 1 278 0
 467 0018 0AB1     		cbz	r2, .L59
 468              		.loc 1 279 0
 469 001a 406C     		ldr	r0, [r0, #68]
 470 001c 9047     		blx	r2
 471              	.LVL25:
 472              	.L59:
 473              		.loc 1 282 0
 474 001e BDE81040 		pop	{r4, lr}
 475              		.loc 1 281 0
 476 0022 FFF7FEBF 		b	_port_irq_epilogue
 477              	.LVL26:
 478              	.L64:
 479 0026 00BF     		.align	2
 480              	.L63:
 481 0028 00000000 		.word	.LANCHOR0
 482              		.cfi_endproc
 483              	.LFE71:
 484              		.size	Vector124, .-Vector124
 485 002c AFF30080 		.section	.text.Vector128,"ax",%progbits
 486              		.align	2
 487              		.p2align 4,,15
 488              		.global	Vector128
 489              		.thumb
 490              		.thumb_func
 491              		.type	Vector128, %function
 492              	Vector128:
 493              	.LFB72:
 494              		.loc 1 289 0
 495              		.cfi_startproc
 496              		@ args = 0, pretend = 0, frame = 0
 497              		@ frame_needed = 0, uses_anonymous_args = 0
 498              		.loc 1 294 0
 499 0000 4FF48063 		mov	r3, #1024
 500 0004 C4F20203 		movt	r3, 16386
 501 0008 1968     		ldr	r1, [r3, #0]
 502              		.loc 1 296 0
 503 000a 0748     		ldr	r0, .L70
 504              		.loc 1 294 0
 505 000c C1F30321 		ubfx	r1, r1, #8, #4
ARM GAS  /var/folders/pt/gxfsd_x53tx3h6kb8dkzftl80000gr/T//cc0Go2Xs.s 			page 10


 506              	.LVL27:
 507              		.loc 1 296 0
 508 0010 826C     		ldr	r2, [r0, #72]
 509              		.loc 1 289 0
 510 0012 10B5     		push	{r4, lr}
 511              	.LCFI9:
 512              		.cfi_def_cfa_offset 8
 513              		.cfi_offset 4, -8
 514              		.cfi_offset 14, -4
 515              		.loc 1 295 0
 516 0014 0C02     		lsls	r4, r1, #8
 517 0016 5C60     		str	r4, [r3, #4]
 518              		.loc 1 296 0
 519 0018 0AB1     		cbz	r2, .L66
 520              		.loc 1 297 0
 521 001a C06C     		ldr	r0, [r0, #76]
 522 001c 9047     		blx	r2
 523              	.LVL28:
 524              	.L66:
 525              		.loc 1 300 0
 526 001e BDE81040 		pop	{r4, lr}
 527              		.loc 1 299 0
 528 0022 FFF7FEBF 		b	_port_irq_epilogue
 529              	.LVL29:
 530              	.L71:
 531 0026 00BF     		.align	2
 532              	.L70:
 533 0028 00000000 		.word	.LANCHOR0
 534              		.cfi_endproc
 535              	.LFE72:
 536              		.size	Vector128, .-Vector128
 537 002c AFF30080 		.section	.text.Vector12C,"ax",%progbits
 538              		.align	2
 539              		.p2align 4,,15
 540              		.global	Vector12C
 541              		.thumb
 542              		.thumb_func
 543              		.type	Vector12C, %function
 544              	Vector12C:
 545              	.LFB73:
 546              		.loc 1 346 0
 547              		.cfi_startproc
 548              		@ args = 0, pretend = 0, frame = 0
 549              		@ frame_needed = 0, uses_anonymous_args = 0
 550              		.loc 1 352 0
 551 0000 4FF48063 		mov	r3, #1024
 552 0004 C4F20203 		movt	r3, 16386
 553 0008 1968     		ldr	r1, [r3, #0]
 554              		.loc 1 346 0
 555 000a 10B5     		push	{r4, lr}
 556              	.LCFI10:
 557              		.cfi_def_cfa_offset 8
 558              		.cfi_offset 4, -8
 559              		.cfi_offset 14, -4
 560              		.loc 1 352 0
 561 000c C1F30331 		ubfx	r1, r1, #12, #4
 562              	.LVL30:
ARM GAS  /var/folders/pt/gxfsd_x53tx3h6kb8dkzftl80000gr/T//cc0Go2Xs.s 			page 11


 563              		.loc 1 353 0
 564 0010 31B1     		cbz	r1, .L74
 565              		.loc 1 355 0
 566 0012 0D48     		ldr	r0, .L85
 567              		.loc 1 354 0
 568 0014 0C03     		lsls	r4, r1, #12
 569              		.loc 1 355 0
 570 0016 026D     		ldr	r2, [r0, #80]
 571              		.loc 1 354 0
 572 0018 5C60     		str	r4, [r3, #4]
 573              		.loc 1 355 0
 574 001a 0AB1     		cbz	r2, .L74
 575              		.loc 1 356 0
 576 001c 406D     		ldr	r0, [r0, #84]
 577 001e 9047     		blx	r2
 578              	.LVL31:
 579              	.L74:
 580              		.loc 1 360 0
 581 0020 4FF48063 		mov	r3, #1024
 582 0024 C4F20203 		movt	r3, 16386
 583 0028 1968     		ldr	r1, [r3, #0]
 584 002a C1F30341 		ubfx	r1, r1, #16, #4
 585              	.LVL32:
 586              		.loc 1 361 0
 587 002e 31B1     		cbz	r1, .L77
 588              		.loc 1 363 0
 589 0030 0548     		ldr	r0, .L85
 590              		.loc 1 362 0
 591 0032 0C04     		lsls	r4, r1, #16
 592              		.loc 1 363 0
 593 0034 826D     		ldr	r2, [r0, #88]
 594              		.loc 1 362 0
 595 0036 5C60     		str	r4, [r3, #4]
 596              		.loc 1 363 0
 597 0038 0AB1     		cbz	r2, .L77
 598              		.loc 1 364 0
 599 003a C06D     		ldr	r0, [r0, #92]
 600 003c 9047     		blx	r2
 601              	.LVL33:
 602              	.L77:
 603              		.loc 1 368 0
 604 003e BDE81040 		pop	{r4, lr}
 605              		.loc 1 367 0
 606 0042 FFF7FEBF 		b	_port_irq_epilogue
 607              	.LVL34:
 608              	.L86:
 609 0046 00BF     		.align	2
 610              	.L85:
 611 0048 00000000 		.word	.LANCHOR0
 612              		.cfi_endproc
 613              	.LFE73:
 614              		.size	Vector12C, .-Vector12C
 615 004c AFF30080 		.section	.text.dmaInit,"ax",%progbits
 616              		.align	2
 617              		.p2align 4,,15
 618              		.global	dmaInit
 619              		.thumb
ARM GAS  /var/folders/pt/gxfsd_x53tx3h6kb8dkzftl80000gr/T//cc0Go2Xs.s 			page 12


 620              		.thumb_func
 621              		.type	dmaInit, %function
 622              	dmaInit:
 623              	.LFB74:
 624              		.loc 1 381 0
 625              		.cfi_startproc
 626              		@ args = 0, pretend = 0, frame = 0
 627              		@ frame_needed = 0, uses_anonymous_args = 0
 628              		@ link register save eliminated.
 629              		.loc 1 384 0
 630 0000 0D49     		ldr	r1, .L90
 631              		.loc 1 381 0
 632 0002 30B4     		push	{r4, r5}
 633              	.LCFI11:
 634              		.cfi_def_cfa_offset 8
 635              		.cfi_offset 4, -8
 636              		.cfi_offset 5, -4
 637              		.loc 1 384 0
 638 0004 0023     		movs	r3, #0
 639 0006 0D4D     		ldr	r5, .L90+4
 640 0008 0D4C     		ldr	r4, .L90+8
 641 000a 0B60     		str	r3, [r1, #0]
 642              	.LVL35:
 643 000c 1A46     		mov	r2, r3
 644              		.loc 1 386 0
 645 000e 1946     		mov	r1, r3
 646              	.LVL36:
 647              	.L88:
 648              		.loc 1 386 0 is_stmt 0 discriminator 2
 649 0010 E858     		ldr	r0, [r5, r3]
 650 0012 0C33     		adds	r3, r3, #12
 651 0014 0160     		str	r1, [r0, #0]
 652              		.loc 1 387 0 is_stmt 1 discriminator 2
 653 0016 A150     		str	r1, [r4, r2]
 654 0018 0832     		adds	r2, r2, #8
 655              		.loc 1 385 0 discriminator 2
 656 001a 902B     		cmp	r3, #144
 657 001c F8D1     		bne	.L88
 658              		.loc 1 389 0
 659 001e 0021     		movs	r1, #0
 660              		.loc 1 391 0
 661 0020 4FF48063 		mov	r3, #1024
 662              		.loc 1 389 0
 663 0024 4FF0FF32 		mov	r2, #-1
 664 0028 C4F20201 		movt	r1, 16386
 665              		.loc 1 391 0
 666 002c C4F20203 		movt	r3, 16386
 667              		.loc 1 389 0
 668 0030 4A60     		str	r2, [r1, #4]
 669              		.loc 1 391 0
 670 0032 5A60     		str	r2, [r3, #4]
 671              		.loc 1 393 0
 672 0034 30BC     		pop	{r4, r5}
 673 0036 7047     		bx	lr
 674              	.L91:
 675              		.align	2
 676              	.L90:
ARM GAS  /var/folders/pt/gxfsd_x53tx3h6kb8dkzftl80000gr/T//cc0Go2Xs.s 			page 13


 677 0038 00000000 		.word	.LANCHOR1
 678 003c 00000000 		.word	.LANCHOR2
 679 0040 00000000 		.word	.LANCHOR0
 680              		.cfi_endproc
 681              	.LFE74:
 682              		.size	dmaInit, .-dmaInit
 683 0044 AFF30080 		.section	.text.dmaStreamAllocate,"ax",%progbits
 683      AFF30080 
 683      AFF30080 
 684              		.align	2
 685              		.p2align 4,,15
 686              		.global	dmaStreamAllocate
 687              		.thumb
 688              		.thumb_func
 689              		.type	dmaStreamAllocate, %function
 690              	dmaStreamAllocate:
 691              	.LFB75:
 692              		.loc 1 422 0
 693              		.cfi_startproc
 694              		@ args = 0, pretend = 0, frame = 0
 695              		@ frame_needed = 0, uses_anonymous_args = 0
 696              	.LVL37:
 697 0000 F8B5     		push	{r3, r4, r5, r6, r7, lr}
 698              	.LCFI12:
 699              		.cfi_def_cfa_offset 24
 700              		.cfi_offset 3, -24
 701              		.cfi_offset 4, -20
 702              		.cfi_offset 5, -16
 703              		.cfi_offset 6, -12
 704              		.cfi_offset 7, -8
 705              		.cfi_offset 14, -4
 706              		.loc 1 427 0
 707 0002 447A     		ldrb	r4, [r0, #9]	@ zero_extendqisi2
 708 0004 4FF0010C 		mov	ip, #1
 709 0008 0CFA04F6 		lsl	r6, ip, r4
 710 000c 1E4D     		ldr	r5, .L104
 711 000e 2F68     		ldr	r7, [r5, #0]
 712 0010 3E42     		tst	r6, r7
 713 0012 34D1     		bne	.L96
 714              		.loc 1 431 0
 715 0014 DFF874C0 		ldr	ip, .L104+4
 716              		.loc 1 433 0
 717 0018 3E43     		orrs	r6, r6, r7
 718              		.loc 1 432 0
 719 001a 0CEBC407 		add	r7, ip, r4, lsl #3
 720 001e 7B60     		str	r3, [r7, #4]
 721              		.loc 1 436 0
 722 0020 7306     		lsls	r3, r6, #25
 723              	.LVL38:
 724              		.loc 1 437 0
 725 0022 1CBF     		itt	ne
 726 0024 4FF48053 		movne	r3, #4096
 727 0028 C4F20203 		movtne	r3, 16386
 728              		.loc 1 433 0
 729 002c 2E60     		str	r6, [r5, #0]
 730              		.loc 1 431 0
 731 002e 4CF83420 		str	r2, [ip, r4, lsl #3]
ARM GAS  /var/folders/pt/gxfsd_x53tx3h6kb8dkzftl80000gr/T//cc0Go2Xs.s 			page 14


 732              		.loc 1 437 0
 733 0032 18BF     		it	ne
 734 0034 5C69     		ldrne	r4, [r3, #20]
 735              		.loc 1 444 0
 736 0036 4568     		ldr	r5, [r0, #4]
 737              		.loc 1 437 0
 738 0038 1CBF     		itt	ne
 739 003a 44F00104 		orrne	r4, r4, #1
 740 003e 5C61     		strne	r4, [r3, #20]
 741              		.loc 1 439 0
 742 0040 16F4786F 		tst	r6, #3968
 743              		.loc 1 440 0
 744 0044 1FBF     		itttt	ne
 745 0046 4FF48053 		movne	r3, #4096
 746 004a C4F20203 		movtne	r3, 16386
 747 004e 5C69     		ldrne	r4, [r3, #20]
 748 0050 44F00204 		orrne	r4, r4, #2
 749 0054 18BF     		it	ne
 750 0056 5C61     		strne	r4, [r3, #20]
 751              		.loc 1 444 0
 752 0058 0368     		ldr	r3, [r0, #0]
 753 005a 0F27     		movs	r7, #15
 754              	.LVL39:
 755 005c 1C68     		ldr	r4, [r3, #0]
 756 005e 24F00F04 		bic	r4, r4, #15
 757 0062 1C60     		str	r4, [r3, #0]
 758 0064 067A     		ldrb	r6, [r0, #8]	@ zero_extendqisi2
 759              		.loc 1 445 0
 760 0066 0024     		movs	r4, #0
 761              		.loc 1 444 0
 762 0068 07FA06F6 		lsl	r6, r7, r6
 763 006c 2E60     		str	r6, [r5, #0]
 764              		.loc 1 445 0
 765 006e 1C60     		str	r4, [r3, #0]
 766              		.loc 1 448 0
 767 0070 3AB1     		cbz	r2, .L97
 768              		.loc 1 449 0
 769 0072 807A     		ldrb	r0, [r0, #10]	@ zero_extendqisi2
 770              	.LVL40:
 771 0074 0901     		lsls	r1, r1, #4
 772              	.LVL41:
 773 0076 FFF7FEFF 		bl	nvicEnableVector
 774              	.LVL42:
 775              		.loc 1 451 0
 776 007a 2046     		mov	r0, r4
 777 007c F8BD     		pop	{r3, r4, r5, r6, r7, pc}
 778              	.LVL43:
 779              	.L96:
 780              		.loc 1 428 0
 781 007e 6046     		mov	r0, ip
 782              	.LVL44:
 783 0080 F8BD     		pop	{r3, r4, r5, r6, r7, pc}
 784              	.LVL45:
 785              	.L97:
 786              		.loc 1 451 0
 787 0082 1046     		mov	r0, r2
 788              	.LVL46:
ARM GAS  /var/folders/pt/gxfsd_x53tx3h6kb8dkzftl80000gr/T//cc0Go2Xs.s 			page 15


 789              		.loc 1 452 0
 790 0084 F8BD     		pop	{r3, r4, r5, r6, r7, pc}
 791              	.L105:
 792 0086 00BF     		.align	2
 793              	.L104:
 794 0088 00000000 		.word	.LANCHOR1
 795 008c 00000000 		.word	.LANCHOR0
 796              		.cfi_endproc
 797              	.LFE75:
 798              		.size	dmaStreamAllocate, .-dmaStreamAllocate
 799              		.section	.text.dmaStreamRelease,"ax",%progbits
 800              		.align	2
 801              		.p2align 4,,15
 802              		.global	dmaStreamRelease
 803              		.thumb
 804              		.thumb_func
 805              		.type	dmaStreamRelease, %function
 806              	dmaStreamRelease:
 807              	.LFB76:
 808              		.loc 1 467 0
 809              		.cfi_startproc
 810              		@ args = 0, pretend = 0, frame = 0
 811              		@ frame_needed = 0, uses_anonymous_args = 0
 812              	.LVL47:
 813 0000 10B5     		push	{r4, lr}
 814              	.LCFI13:
 815              		.cfi_def_cfa_offset 8
 816              		.cfi_offset 4, -8
 817              		.cfi_offset 14, -4
 818              		.loc 1 467 0
 819 0002 0446     		mov	r4, r0
 820              		.loc 1 476 0
 821 0004 807A     		ldrb	r0, [r0, #10]	@ zero_extendqisi2
 822              	.LVL48:
 823 0006 FFF7FEFF 		bl	nvicDisableVector
 824              	.LVL49:
 825              		.loc 1 479 0
 826 000a 637A     		ldrb	r3, [r4, #9]	@ zero_extendqisi2
 827 000c 0122     		movs	r2, #1
 828 000e 02FA03F3 		lsl	r3, r2, r3
 829 0012 0E4A     		ldr	r2, .L109
 830 0014 1168     		ldr	r1, [r2, #0]
 831 0016 21EA0303 		bic	r3, r1, r3
 832 001a 1360     		str	r3, [r2, #0]
 833              		.loc 1 482 0
 834 001c 5A06     		lsls	r2, r3, #25
 835              		.loc 1 483 0
 836 001e 01BF     		itttt	eq
 837 0020 4FF48052 		moveq	r2, #4096
 838 0024 C4F20202 		movteq	r2, 16386
 839 0028 5169     		ldreq	r1, [r2, #20]
 840 002a 21F00101 		biceq	r1, r1, #1
 841 002e 08BF     		it	eq
 842 0030 5161     		streq	r1, [r2, #20]
 843              		.loc 1 485 0
 844 0032 13F4786F 		tst	r3, #3968
 845              		.loc 1 486 0
ARM GAS  /var/folders/pt/gxfsd_x53tx3h6kb8dkzftl80000gr/T//cc0Go2Xs.s 			page 16


 846 0036 01BF     		itttt	eq
 847 0038 4FF48053 		moveq	r3, #4096
 848 003c C4F20203 		movteq	r3, 16386
 849 0040 5A69     		ldreq	r2, [r3, #20]
 850 0042 22F00202 		biceq	r2, r2, #2
 851 0046 08BF     		it	eq
 852 0048 5A61     		streq	r2, [r3, #20]
 853 004a 10BD     		pop	{r4, pc}
 854              	.L110:
 855              		.align	2
 856              	.L109:
 857 004c 00000000 		.word	.LANCHOR1
 858              		.cfi_endproc
 859              	.LFE76:
 860              		.size	dmaStreamRelease, .-dmaStreamRelease
 861              		.global	_stm32_dma_streams
 862              		.section	.bss.dma_isr_redir,"aw",%nobits
 863              		.align	2
 864              		.set	.LANCHOR0,. + 0
 865              		.type	dma_isr_redir, %object
 866              		.size	dma_isr_redir, 96
 867              	dma_isr_redir:
 868 0000 00000000 		.space	96
 868      00000000 
 868      00000000 
 868      00000000 
 868      00000000 
 869              		.section	.rodata._stm32_dma_streams,"a",%progbits
 870              		.align	2
 871              		.set	.LANCHOR2,. + 0
 872              		.type	_stm32_dma_streams, %object
 873              		.size	_stm32_dma_streams, 144
 874              	_stm32_dma_streams:
 875 0000 08000240 		.word	1073872904
 876 0004 04000240 		.word	1073872900
 877 0008 00       		.byte	0
 878 0009 00       		.byte	0
 879 000a 0B       		.byte	11
 880 000b 00       		.space	1
 881 000c 1C000240 		.word	1073872924
 882 0010 04000240 		.word	1073872900
 883 0014 04       		.byte	4
 884 0015 01       		.byte	1
 885 0016 0C       		.byte	12
 886 0017 00       		.space	1
 887 0018 30000240 		.word	1073872944
 888 001c 04000240 		.word	1073872900
 889 0020 08       		.byte	8
 890 0021 02       		.byte	2
 891 0022 0D       		.byte	13
 892 0023 00       		.space	1
 893 0024 44000240 		.word	1073872964
 894 0028 04000240 		.word	1073872900
 895 002c 0C       		.byte	12
 896 002d 03       		.byte	3
 897 002e 0E       		.byte	14
 898 002f 00       		.space	1
ARM GAS  /var/folders/pt/gxfsd_x53tx3h6kb8dkzftl80000gr/T//cc0Go2Xs.s 			page 17


 899 0030 58000240 		.word	1073872984
 900 0034 04000240 		.word	1073872900
 901 0038 10       		.byte	16
 902 0039 04       		.byte	4
 903 003a 0F       		.byte	15
 904 003b 00       		.space	1
 905 003c 6C000240 		.word	1073873004
 906 0040 04000240 		.word	1073872900
 907 0044 14       		.byte	20
 908 0045 05       		.byte	5
 909 0046 10       		.byte	16
 910 0047 00       		.space	1
 911 0048 80000240 		.word	1073873024
 912 004c 04000240 		.word	1073872900
 913 0050 18       		.byte	24
 914 0051 06       		.byte	6
 915 0052 11       		.byte	17
 916 0053 00       		.space	1
 917 0054 08040240 		.word	1073873928
 918 0058 04040240 		.word	1073873924
 919 005c 00       		.byte	0
 920 005d 07       		.byte	7
 921 005e 38       		.byte	56
 922 005f 00       		.space	1
 923 0060 1C040240 		.word	1073873948
 924 0064 04040240 		.word	1073873924
 925 0068 04       		.byte	4
 926 0069 08       		.byte	8
 927 006a 39       		.byte	57
 928 006b 00       		.space	1
 929 006c 30040240 		.word	1073873968
 930 0070 04040240 		.word	1073873924
 931 0074 08       		.byte	8
 932 0075 09       		.byte	9
 933 0076 3A       		.byte	58
 934 0077 00       		.space	1
 935 0078 44040240 		.word	1073873988
 936 007c 04040240 		.word	1073873924
 937 0080 0C       		.byte	12
 938 0081 0A       		.byte	10
 939 0082 3B       		.byte	59
 940 0083 00       		.space	1
 941 0084 58040240 		.word	1073874008
 942 0088 04040240 		.word	1073873924
 943 008c 10       		.byte	16
 944 008d 0B       		.byte	11
 945 008e 3B       		.byte	59
 946 008f 00       		.space	1
 947              		.section	.bss.dma_streams_mask,"aw",%nobits
 948              		.align	2
 949              		.set	.LANCHOR1,. + 0
 950              		.type	dma_streams_mask, %object
 951              		.size	dma_streams_mask, 4
 952              	dma_streams_mask:
 953 0000 00000000 		.space	4
 954              		.text
 955              	.Letext0:
ARM GAS  /var/folders/pt/gxfsd_x53tx3h6kb8dkzftl80000gr/T//cc0Go2Xs.s 			page 18


 956              		.file 2 "/Users/programmer/ConVEX/yagarto-4.7.2/bin/../lib/gcc/arm-none-eabi/4.7.2/../../../../arm
 957              		.file 3 "convex/ChibiOS_2.6.2/os/ports/GCC/ARMCMx/chtypes.h"
 958              		.file 4 "convex/ChibiOS_2.6.2/os/hal/platforms/STM32F1xx/stm32f10x.h"
 959              		.file 5 "convex/ChibiOS_2.6.2/os/hal/platforms/STM32F1xx/stm32_dma.h"
 960              		.file 6 "convex/ChibiOS_2.6.2/os/ports/common/ARMCMx/CMSIS/include/core_cm3.h"
 961              		.file 7 "convex/ChibiOS_2.6.2/os/ports/GCC/ARMCMx/chcore_v7m.h"
 962              		.file 8 "convex/ChibiOS_2.6.2/os/ports/common/ARMCMx/nvic.h"