ARM GAS  /var/folders/pt/gxfsd_x53tx3h6kb8dkzftl80000gr/T//cciVC3gV.s 			page 1


   1              		.syntax unified
   2              		.cpu cortex-m3
   3              		.fpu softvfp
   4              		.eabi_attribute 20, 1
   5              		.eabi_attribute 21, 1
   6              		.eabi_attribute 23, 3
   7              		.eabi_attribute 24, 1
   8              		.eabi_attribute 25, 1
   9              		.eabi_attribute 26, 1
  10              		.eabi_attribute 30, 2
  11              		.eabi_attribute 34, 1
  12              		.eabi_attribute 18, 4
  13              		.thumb
  14              		.file	"stm32_flash.c"
  15              		.text
  16              	.Ltext0:
  17              		.cfi_sections	.debug_frame
  18              		.section	.text.FLASH_GetBank1Status,"ax",%progbits
  19              		.align	2
  20              		.p2align 4,,15
  21              		.global	FLASH_GetBank1Status
  22              		.thumb
  23              		.thumb_func
  24              		.type	FLASH_GetBank1Status, %function
  25              	FLASH_GetBank1Status:
  26              	.LFB56:
  27              		.file 1 "convex/convex/cortex/opt/stm32_flash.c"
  28              		.loc 1 110 0
  29              		.cfi_startproc
  30              		@ args = 0, pretend = 0, frame = 0
  31              		@ frame_needed = 0, uses_anonymous_args = 0
  32              		@ link register save eliminated.
  33              	.LVL0:
  34              		.loc 1 113 0
  35 0000 4FF40053 		mov	r3, #8192
  36 0004 C4F20203 		movt	r3, 16386
  37 0008 DA68     		ldr	r2, [r3, #12]
  38 000a D107     		lsls	r1, r2, #31
  39 000c 0BD4     		bmi	.L4
  40              		.loc 1 119 0
  41 000e DA68     		ldr	r2, [r3, #12]
  42 0010 5207     		lsls	r2, r2, #29
  43 0012 01D5     		bpl	.L8
  44              		.loc 1 121 0
  45 0014 0220     		movs	r0, #2
  46              	.LVL1:
  47              		.loc 1 137 0
  48 0016 7047     		bx	lr
  49              	.LVL2:
  50              	.L8:
  51              	.LBB4:
  52              	.LBB5:
  53              		.loc 1 125 0
  54 0018 DB68     		ldr	r3, [r3, #12]
  55 001a 13F0100F 		tst	r3, #16
  56              		.loc 1 127 0
  57 001e 0CBF     		ite	eq
ARM GAS  /var/folders/pt/gxfsd_x53tx3h6kb8dkzftl80000gr/T//cciVC3gV.s 			page 2


  58 0020 0420     		moveq	r0, #4
  59 0022 0320     		movne	r0, #3
  60 0024 7047     		bx	lr
  61              	.L4:
  62              	.LBE5:
  63              	.LBE4:
  64              		.loc 1 115 0
  65 0026 0120     		movs	r0, #1
  66 0028 7047     		bx	lr
  67              		.cfi_endproc
  68              	.LFE56:
  69              		.size	FLASH_GetBank1Status, .-FLASH_GetBank1Status
  70 002a 00BFAFF3 		.section	.text.FLASH_WaitForLastOperation,"ax",%progbits
  70      0080
  71              		.align	2
  72              		.p2align 4,,15
  73              		.global	FLASH_WaitForLastOperation
  74              		.thumb
  75              		.thumb_func
  76              		.type	FLASH_WaitForLastOperation, %function
  77              	FLASH_WaitForLastOperation:
  78              	.LFB57:
  79              		.loc 1 151 0
  80              		.cfi_startproc
  81              		@ args = 0, pretend = 0, frame = 0
  82              		@ frame_needed = 0, uses_anonymous_args = 0
  83              	.LVL3:
  84 0000 10B5     		push	{r4, lr}
  85              	.LCFI0:
  86              		.cfi_def_cfa_offset 8
  87              		.cfi_offset 4, -8
  88              		.cfi_offset 14, -4
  89              		.loc 1 151 0
  90 0002 0446     		mov	r4, r0
  91              		.loc 1 155 0
  92 0004 FFF7FEFF 		bl	FLASH_GetBank1Status
  93              	.LVL4:
  94              		.loc 1 157 0
  95 0008 B0F1010E 		subs	lr, r0, #1
  96 000c DEF10003 		rsbs	r3, lr, #0
  97 0010 53EB0E03 		adcs	r3, r3, lr
  98 0014 002C     		cmp	r4, #0
  99 0016 08BF     		it	eq
 100 0018 0023     		moveq	r3, #0
 101 001a 63B1     		cbz	r3, .L10
 102              	.LVL5:
 103              	.L16:
 104              		.loc 1 159 0
 105 001c FFF7FEFF 		bl	FLASH_GetBank1Status
 106              	.LVL6:
 107              		.loc 1 157 0
 108 0020 013C     		subs	r4, r4, #1
 109              	.LVL7:
 110 0022 0CBF     		ite	eq
 111 0024 0023     		moveq	r3, #0
 112 0026 0123     		movne	r3, #1
 113 0028 0128     		cmp	r0, #1
ARM GAS  /var/folders/pt/gxfsd_x53tx3h6kb8dkzftl80000gr/T//cciVC3gV.s 			page 3


 114 002a 14BF     		ite	ne
 115 002c 0023     		movne	r3, #0
 116 002e 03F00103 		andeq	r3, r3, #1
 117 0032 002B     		cmp	r3, #0
 118 0034 F2D1     		bne	.L16
 119              	.LVL8:
 120              	.L10:
 121              		.loc 1 168 0
 122 0036 002C     		cmp	r4, #0
 123 0038 08BF     		it	eq
 124 003a 0520     		moveq	r0, #5
 125              	.LVL9:
 126 003c 10BD     		pop	{r4, pc}
 127              		.cfi_endproc
 128              	.LFE57:
 129              		.size	FLASH_WaitForLastOperation, .-FLASH_WaitForLastOperation
 130 003e 00BF     		.section	.text.FLASH_ErasePage,"ax",%progbits
 131              		.align	2
 132              		.p2align 4,,15
 133              		.global	FLASH_ErasePage
 134              		.thumb
 135              		.thumb_func
 136              		.type	FLASH_ErasePage, %function
 137              	FLASH_ErasePage:
 138              	.LFB58:
 139              		.loc 1 177 0
 140              		.cfi_startproc
 141              		@ args = 0, pretend = 0, frame = 0
 142              		@ frame_needed = 0, uses_anonymous_args = 0
 143              	.LVL10:
 144 0000 38B5     		push	{r3, r4, r5, lr}
 145              	.LCFI1:
 146              		.cfi_def_cfa_offset 16
 147              		.cfi_offset 3, -16
 148              		.cfi_offset 4, -12
 149              		.cfi_offset 5, -8
 150              		.cfi_offset 14, -4
 151              		.loc 1 177 0
 152 0002 0546     		mov	r5, r0
 153              		.loc 1 183 0
 154 0004 4FF43020 		mov	r0, #720896
 155              	.LVL11:
 156 0008 FFF7FEFF 		bl	FLASH_WaitForLastOperation
 157              	.LVL12:
 158              		.loc 1 185 0
 159 000c 0428     		cmp	r0, #4
 160 000e 00D0     		beq	.L21
 161              		.loc 1 201 0
 162 0010 38BD     		pop	{r3, r4, r5, pc}
 163              	.L21:
 164              		.loc 1 188 0
 165 0012 4FF40054 		mov	r4, #8192
 166 0016 C4F20204 		movt	r4, 16386
 167 001a 2369     		ldr	r3, [r4, #16]
 168              		.loc 1 193 0
 169 001c 4FF43020 		mov	r0, #720896
 170              	.LVL13:
ARM GAS  /var/folders/pt/gxfsd_x53tx3h6kb8dkzftl80000gr/T//cciVC3gV.s 			page 4


 171              		.loc 1 188 0
 172 0020 43F00203 		orr	r3, r3, #2
 173 0024 2361     		str	r3, [r4, #16]
 174              		.loc 1 189 0
 175 0026 6561     		str	r5, [r4, #20]
 176              		.loc 1 190 0
 177 0028 2369     		ldr	r3, [r4, #16]
 178 002a 43F04003 		orr	r3, r3, #64
 179 002e 2361     		str	r3, [r4, #16]
 180              		.loc 1 193 0
 181 0030 FFF7FEFF 		bl	FLASH_WaitForLastOperation
 182              	.LVL14:
 183              		.loc 1 196 0
 184 0034 2269     		ldr	r2, [r4, #16]
 185 0036 41F6FD73 		movw	r3, #8189
 186 003a 1340     		ands	r3, r3, r2
 187 003c 2361     		str	r3, [r4, #16]
 188              		.loc 1 201 0
 189 003e 38BD     		pop	{r3, r4, r5, pc}
 190              		.cfi_endproc
 191              	.LFE58:
 192              		.size	FLASH_ErasePage, .-FLASH_ErasePage
 193              		.section	.text.FLASH_ClearFlag,"ax",%progbits
 194              		.align	2
 195              		.p2align 4,,15
 196              		.global	FLASH_ClearFlag
 197              		.thumb
 198              		.thumb_func
 199              		.type	FLASH_ClearFlag, %function
 200              	FLASH_ClearFlag:
 201              	.LFB59:
 202              		.loc 1 216 0
 203              		.cfi_startproc
 204              		@ args = 0, pretend = 0, frame = 0
 205              		@ frame_needed = 0, uses_anonymous_args = 0
 206              		@ link register save eliminated.
 207              	.LVL15:
 208              		.loc 1 221 0
 209 0000 4FF40053 		mov	r3, #8192
 210 0004 C4F20203 		movt	r3, 16386
 211 0008 D860     		str	r0, [r3, #12]
 212 000a 7047     		bx	lr
 213              		.cfi_endproc
 214              	.LFE59:
 215              		.size	FLASH_ClearFlag, .-FLASH_ClearFlag
 216 000c AFF30080 		.section	.text.FLASH_ProgramWord,"ax",%progbits
 217              		.align	2
 218              		.p2align 4,,15
 219              		.global	FLASH_ProgramWord
 220              		.thumb
 221              		.thumb_func
 222              		.type	FLASH_ProgramWord, %function
 223              	FLASH_ProgramWord:
 224              	.LFB60:
 225              		.loc 1 235 0
 226              		.cfi_startproc
 227              		@ args = 0, pretend = 0, frame = 8
ARM GAS  /var/folders/pt/gxfsd_x53tx3h6kb8dkzftl80000gr/T//cciVC3gV.s 			page 5


 228              		@ frame_needed = 0, uses_anonymous_args = 0
 229              	.LVL16:
 230 0000 70B5     		push	{r4, r5, r6, lr}
 231              	.LCFI2:
 232              		.cfi_def_cfa_offset 16
 233              		.cfi_offset 4, -16
 234              		.cfi_offset 5, -12
 235              		.cfi_offset 6, -8
 236              		.cfi_offset 14, -4
 237              		.loc 1 237 0
 238 0002 0023     		movs	r3, #0
 239              		.loc 1 235 0
 240 0004 82B0     		sub	sp, sp, #8
 241              	.LCFI3:
 242              		.cfi_def_cfa_offset 24
 243              		.loc 1 235 0
 244 0006 0546     		mov	r5, r0
 245              		.loc 1 243 0
 246 0008 4FF40050 		mov	r0, #8192
 247              	.LVL17:
 248              		.loc 1 235 0
 249 000c 0C46     		mov	r4, r1
 250              		.loc 1 237 0
 251 000e 0193     		str	r3, [sp, #4]
 252              	.LVL18:
 253              		.loc 1 243 0
 254 0010 FFF7FEFF 		bl	FLASH_WaitForLastOperation
 255              	.LVL19:
 256              		.loc 1 245 0
 257 0014 0428     		cmp	r0, #4
 258 0016 01D0     		beq	.L26
 259              	.LVL20:
 260              	.L24:
 261              		.loc 1 278 0
 262 0018 02B0     		add	sp, sp, #8
 263 001a 70BD     		pop	{r4, r5, r6, pc}
 264              	.LVL21:
 265              	.L26:
 266              		.loc 1 249 0
 267 001c 4FF40056 		mov	r6, #8192
 268 0020 C4F20206 		movt	r6, 16386
 269 0024 3269     		ldr	r2, [r6, #16]
 270              		.loc 1 251 0
 271 0026 A3B2     		uxth	r3, r4
 272              		.loc 1 249 0
 273 0028 42F00102 		orr	r2, r2, #1
 274 002c 3261     		str	r2, [r6, #16]
 275              		.loc 1 253 0
 276 002e 4FF40050 		mov	r0, #8192
 277              	.LVL22:
 278              		.loc 1 251 0
 279 0032 2B80     		strh	r3, [r5, #0]	@ movhi
 280              		.loc 1 253 0
 281 0034 FFF7FEFF 		bl	FLASH_WaitForLastOperation
 282              	.LVL23:
 283              		.loc 1 255 0
 284 0038 0428     		cmp	r0, #4
ARM GAS  /var/folders/pt/gxfsd_x53tx3h6kb8dkzftl80000gr/T//cciVC3gV.s 			page 6


 285 003a 05D0     		beq	.L27
 286              		.loc 1 272 0
 287 003c 3269     		ldr	r2, [r6, #16]
 288 003e 41F6FE73 		movw	r3, #8190
 289 0042 1340     		ands	r3, r3, r2
 290 0044 3361     		str	r3, [r6, #16]
 291 0046 E7E7     		b	.L24
 292              	.L27:
 293              		.loc 1 259 0
 294 0048 0235     		adds	r5, r5, #2
 295              	.LVL24:
 296 004a 0195     		str	r5, [sp, #4]
 297              	.LVL25:
 298              		.loc 1 261 0
 299 004c 019B     		ldr	r3, [sp, #4]
 300 004e 240C     		lsrs	r4, r4, #16
 301              	.LVL26:
 302 0050 1C80     		strh	r4, [r3, #0]	@ movhi
 303              		.loc 1 264 0
 304 0052 4FF40050 		mov	r0, #8192
 305              	.LVL27:
 306 0056 FFF7FEFF 		bl	FLASH_WaitForLastOperation
 307              	.LVL28:
 308              		.loc 1 267 0
 309 005a 3269     		ldr	r2, [r6, #16]
 310 005c 41F6FE73 		movw	r3, #8190
 311 0060 1340     		ands	r3, r3, r2
 312 0062 3361     		str	r3, [r6, #16]
 313 0064 D8E7     		b	.L24
 314              		.cfi_endproc
 315              	.LFE60:
 316              		.size	FLASH_ProgramWord, .-FLASH_ProgramWord
 317 0066 00BFAFF3 		.section	.text.FLASH_ProgramHalfWord,"ax",%progbits
 317      0080AFF3 
 317      0080
 318              		.align	2
 319              		.p2align 4,,15
 320              		.global	FLASH_ProgramHalfWord
 321              		.thumb
 322              		.thumb_func
 323              		.type	FLASH_ProgramHalfWord, %function
 324              	FLASH_ProgramHalfWord:
 325              	.LFB61:
 326              		.loc 1 289 0
 327              		.cfi_startproc
 328              		@ args = 0, pretend = 0, frame = 0
 329              		@ frame_needed = 0, uses_anonymous_args = 0
 330              	.LVL29:
 331 0000 70B5     		push	{r4, r5, r6, lr}
 332              	.LCFI4:
 333              		.cfi_def_cfa_offset 16
 334              		.cfi_offset 4, -16
 335              		.cfi_offset 5, -12
 336              		.cfi_offset 6, -8
 337              		.cfi_offset 14, -4
 338              		.loc 1 289 0
 339 0002 0446     		mov	r4, r0
ARM GAS  /var/folders/pt/gxfsd_x53tx3h6kb8dkzftl80000gr/T//cciVC3gV.s 			page 7


 340              		.loc 1 295 0
 341 0004 4FF40050 		mov	r0, #8192
 342              	.LVL30:
 343              		.loc 1 289 0
 344 0008 0D46     		mov	r5, r1
 345              		.loc 1 295 0
 346 000a FFF7FEFF 		bl	FLASH_WaitForLastOperation
 347              	.LVL31:
 348              		.loc 1 297 0
 349 000e 0428     		cmp	r0, #4
 350 0010 00D0     		beq	.L30
 351              		.loc 1 312 0
 352 0012 70BD     		pop	{r4, r5, r6, pc}
 353              	.L30:
 354              		.loc 1 300 0
 355 0014 4FF40056 		mov	r6, #8192
 356 0018 C4F20206 		movt	r6, 16386
 357 001c 3369     		ldr	r3, [r6, #16]
 358              		.loc 1 304 0
 359 001e 4FF40050 		mov	r0, #8192
 360              	.LVL32:
 361              		.loc 1 300 0
 362 0022 43F00103 		orr	r3, r3, #1
 363 0026 3361     		str	r3, [r6, #16]
 364              		.loc 1 302 0
 365 0028 2580     		strh	r5, [r4, #0]	@ movhi
 366              		.loc 1 304 0
 367 002a FFF7FEFF 		bl	FLASH_WaitForLastOperation
 368              	.LVL33:
 369              		.loc 1 307 0
 370 002e 3269     		ldr	r2, [r6, #16]
 371 0030 41F6FE73 		movw	r3, #8190
 372 0034 1340     		ands	r3, r3, r2
 373 0036 3361     		str	r3, [r6, #16]
 374              		.loc 1 312 0
 375 0038 70BD     		pop	{r4, r5, r6, pc}
 376              		.cfi_endproc
 377              	.LFE61:
 378              		.size	FLASH_ProgramHalfWord, .-FLASH_ProgramHalfWord
 379 003a 00BFAFF3 		.section	.text.FLASH_UnlockBank1,"ax",%progbits
 379      0080
 380              		.align	2
 381              		.p2align 4,,15
 382              		.global	FLASH_UnlockBank1
 383              		.thumb
 384              		.thumb_func
 385              		.type	FLASH_UnlockBank1, %function
 386              	FLASH_UnlockBank1:
 387              	.LFB62:
 388              		.loc 1 323 0
 389              		.cfi_startproc
 390              		@ args = 0, pretend = 0, frame = 0
 391              		@ frame_needed = 0, uses_anonymous_args = 0
 392              		@ link register save eliminated.
 393              		.loc 1 325 0
 394 0000 4FF40053 		mov	r3, #8192
 395 0004 40F22311 		movw	r1, #291
ARM GAS  /var/folders/pt/gxfsd_x53tx3h6kb8dkzftl80000gr/T//cciVC3gV.s 			page 8


 396              		.loc 1 326 0
 397 0008 48F6AB12 		movw	r2, #35243
 398              		.loc 1 325 0
 399 000c C4F20203 		movt	r3, 16386
 400 0010 C4F26751 		movt	r1, 17767
 401              		.loc 1 326 0
 402 0014 CCF6EF52 		movt	r2, 52719
 403              		.loc 1 325 0
 404 0018 5960     		str	r1, [r3, #4]
 405              		.loc 1 326 0
 406 001a 5A60     		str	r2, [r3, #4]
 407 001c 7047     		bx	lr
 408              		.cfi_endproc
 409              	.LFE62:
 410              		.size	FLASH_UnlockBank1, .-FLASH_UnlockBank1
 411 001e 00BF     		.text
 412              	.Letext0:
 413              		.file 2 "/Users/programmer/ConVEX/yagarto-4.7.2/bin/../lib/gcc/arm-none-eabi/4.7.2/../../../../arm
 414              		.file 3 "convex/ChibiOS_2.6.2/os/hal/platforms/STM32F1xx/stm32f10x.h"
 415              		.file 4 "convex/convex/cortex/opt/stm32f10x_flash.h"
 416              		.file 5 "convex/ChibiOS_2.6.2/os/ports/common/ARMCMx/CMSIS/include/core_cm3.h"