ARM GAS  /var/folders/pt/gxfsd_x53tx3h6kb8dkzftl80000gr/T//ccknt6GK.s 			page 1


   1              		.syntax unified
   2              		.cpu cortex-m3
   3              		.fpu softvfp
   4              		.eabi_attribute 20, 1
   5              		.eabi_attribute 21, 1
   6              		.eabi_attribute 23, 3
   7              		.eabi_attribute 24, 1
   8              		.eabi_attribute 25, 1
   9              		.eabi_attribute 26, 1
  10              		.eabi_attribute 30, 2
  11              		.eabi_attribute 34, 1
  12              		.eabi_attribute 18, 4
  13              		.thumb
  14              		.file	"tm.c"
  15              		.text
  16              	.Ltext0:
  17              		.cfi_sections	.debug_frame
  18              		.section	.text.tm_start,"ax",%progbits
  19              		.align	2
  20              		.p2align 4,,15
  21              		.thumb
  22              		.thumb_func
  23              		.type	tm_start, %function
  24              	tm_start:
  25              	.LFB63:
  26              		.file 1 "convex/ChibiOS_2.6.2/os/hal/src/tm.c"
  27              		.loc 1 69 0
  28              		.cfi_startproc
  29              		@ args = 0, pretend = 0, frame = 0
  30              		@ frame_needed = 0, uses_anonymous_args = 0
  31              		@ link register save eliminated.
  32              	.LVL0:
  33              		.loc 1 71 0
  34 0000 4FF48053 		mov	r3, #4096
  35 0004 CEF20003 		movt	r3, 57344
  36 0008 5B68     		ldr	r3, [r3, #4]
  37 000a 8360     		str	r3, [r0, #8]
  38 000c 7047     		bx	lr
  39              		.cfi_endproc
  40              	.LFE63:
  41              		.size	tm_start, .-tm_start
  42 000e 00BF     		.section	.text.tm_stop,"ax",%progbits
  43              		.align	2
  44              		.p2align 4,,15
  45              		.thumb
  46              		.thumb_func
  47              		.type	tm_stop, %function
  48              	tm_stop:
  49              	.LFB64:
  50              		.loc 1 81 0
  51              		.cfi_startproc
  52              		@ args = 0, pretend = 0, frame = 0
  53              		@ frame_needed = 0, uses_anonymous_args = 0
  54              		@ link register save eliminated.
  55              	.LVL1:
  56              		.loc 1 83 0
  57 0000 4FF48053 		mov	r3, #4096
ARM GAS  /var/folders/pt/gxfsd_x53tx3h6kb8dkzftl80000gr/T//ccknt6GK.s 			page 2


  58 0004 CEF20003 		movt	r3, 57344
  59              		.loc 1 84 0
  60 0008 0849     		ldr	r1, .L7
  61 000a 8268     		ldr	r2, [r0, #8]
  62              		.loc 1 83 0
  63 000c 5B68     		ldr	r3, [r3, #4]
  64              	.LVL2:
  65              		.loc 1 84 0
  66 000e 0968     		ldr	r1, [r1, #0]
  67 0010 9B1A     		subs	r3, r3, r2
  68              	.LVL3:
  69              		.loc 1 85 0
  70 0012 C268     		ldr	r2, [r0, #12]
  71              		.loc 1 84 0
  72 0014 5B1A     		subs	r3, r3, r1
  73              		.loc 1 85 0
  74 0016 9342     		cmp	r3, r2
  75              		.loc 1 84 0
  76 0018 8360     		str	r3, [r0, #8]
  77              		.loc 1 85 0
  78 001a 04D8     		bhi	.L6
  79              		.loc 1 87 0
  80 001c 0269     		ldr	r2, [r0, #16]
  81 001e 9342     		cmp	r3, r2
  82              		.loc 1 88 0
  83 0020 38BF     		it	cc
  84 0022 0361     		strcc	r3, [r0, #16]
  85 0024 7047     		bx	lr
  86              	.L6:
  87              		.loc 1 86 0
  88 0026 C360     		str	r3, [r0, #12]
  89 0028 7047     		bx	lr
  90              	.L8:
  91 002a 00BF     		.align	2
  92              	.L7:
  93 002c 00000000 		.word	.LANCHOR0
  94              		.cfi_endproc
  95              	.LFE64:
  96              		.size	tm_stop, .-tm_stop
  97              		.section	.text.tmInit,"ax",%progbits
  98              		.align	2
  99              		.p2align 4,,15
 100              		.global	tmInit
 101              		.thumb
 102              		.thumb_func
 103              		.type	tmInit, %function
 104              	tmInit:
 105              	.LFB65:
 106              		.loc 1 104 0
 107              		.cfi_startproc
 108              		@ args = 0, pretend = 0, frame = 24
 109              		@ frame_needed = 0, uses_anonymous_args = 0
 110 0000 10B5     		push	{r4, lr}
 111              	.LCFI0:
 112              		.cfi_def_cfa_offset 8
 113              		.cfi_offset 4, -8
 114              		.cfi_offset 14, -4
ARM GAS  /var/folders/pt/gxfsd_x53tx3h6kb8dkzftl80000gr/T//ccknt6GK.s 			page 3


 115              		.loc 1 110 0
 116 0002 40F20004 		movw	r4, #:lower16:.LANCHOR0
 117              		.loc 1 104 0
 118 0006 86B0     		sub	sp, sp, #24
 119              	.LCFI1:
 120              		.cfi_def_cfa_offset 32
 121              		.loc 1 110 0
 122 0008 0022     		movs	r2, #0
 123 000a C0F20004 		movt	r4, #:upper16:.LANCHOR0
 124 000e 2260     		str	r2, [r4, #0]
 125              	.LVL4:
 126              	.LBB8:
 127              	.LBB9:
 128              		.loc 1 129 0
 129 0010 0492     		str	r2, [sp, #16]
 130              		.loc 1 130 0
 131 0012 4FF0FF32 		mov	r2, #-1
 132 0016 0592     		str	r2, [sp, #20]
 133              	.LVL5:
 134              	.LBE9:
 135              	.LBE8:
 136              	.LBB13:
 137              	.LBB14:
 138              		.loc 1 71 0
 139 0018 4FF48053 		mov	r3, #4096
 140              	.LBE14:
 141              	.LBE13:
 142              	.LBB17:
 143              	.LBB10:
 144              		.loc 1 126 0
 145 001c 40F20002 		movw	r2, #:lower16:tm_start
 146 0020 C0F20002 		movt	r2, #:upper16:tm_start
 147              	.LBE10:
 148              	.LBE17:
 149              	.LBB18:
 150              	.LBB15:
 151              		.loc 1 71 0
 152 0024 CEF20003 		movt	r3, 57344
 153 0028 5B68     		ldr	r3, [r3, #4]
 154              	.LBE15:
 155              	.LBE18:
 156              	.LBB19:
 157              	.LBB11:
 158              		.loc 1 126 0
 159 002a 0192     		str	r2, [sp, #4]
 160              		.loc 1 127 0
 161 002c 40F20002 		movw	r2, #:lower16:tm_stop
 162 0030 C0F20002 		movt	r2, #:upper16:tm_stop
 163              	.LBE11:
 164              	.LBE19:
 165              		.loc 1 113 0
 166 0034 01A8     		add	r0, sp, #4
 167              	.LVL6:
 168              	.LBB20:
 169              	.LBB16:
 170              		.loc 1 71 0
 171 0036 0393     		str	r3, [sp, #12]
ARM GAS  /var/folders/pt/gxfsd_x53tx3h6kb8dkzftl80000gr/T//ccknt6GK.s 			page 4


 172              	.LBE16:
 173              	.LBE20:
 174              	.LBB21:
 175              	.LBB12:
 176              		.loc 1 127 0
 177 0038 0292     		str	r2, [sp, #8]
 178              	.LBE12:
 179              	.LBE21:
 180              		.loc 1 113 0
 181 003a FFF7FEFF 		bl	tm_stop
 182              	.LVL7:
 183              		.loc 1 114 0
 184 003e 039B     		ldr	r3, [sp, #12]
 185 0040 2360     		str	r3, [r4, #0]
 186              		.loc 1 115 0
 187 0042 06B0     		add	sp, sp, #24
 188 0044 10BD     		pop	{r4, pc}
 189              		.cfi_endproc
 190              	.LFE65:
 191              		.size	tmInit, .-tmInit
 192 0046 00BFAFF3 		.section	.text.tmObjectInit,"ax",%progbits
 192      0080AFF3 
 192      0080
 193              		.align	2
 194              		.p2align 4,,15
 195              		.global	tmObjectInit
 196              		.thumb
 197              		.thumb_func
 198              		.type	tmObjectInit, %function
 199              	tmObjectInit:
 200              	.LFB66:
 201              		.loc 1 124 0
 202              		.cfi_startproc
 203              		@ args = 0, pretend = 0, frame = 0
 204              		@ frame_needed = 0, uses_anonymous_args = 0
 205              		@ link register save eliminated.
 206              	.LVL8:
 207              		.loc 1 126 0
 208 0000 40F20002 		movw	r2, #:lower16:tm_start
 209 0004 C0F20002 		movt	r2, #:upper16:tm_start
 210              		.loc 1 128 0
 211 0008 0023     		movs	r3, #0
 212              		.loc 1 126 0
 213 000a 0260     		str	r2, [r0, #0]
 214              		.loc 1 127 0
 215 000c 40F20002 		movw	r2, #:lower16:tm_stop
 216 0010 C0F20002 		movt	r2, #:upper16:tm_stop
 217              		.loc 1 128 0
 218 0014 8360     		str	r3, [r0, #8]
 219              		.loc 1 129 0
 220 0016 C360     		str	r3, [r0, #12]
 221              		.loc 1 130 0
 222 0018 4FF0FF33 		mov	r3, #-1
 223              		.loc 1 127 0
 224 001c 4260     		str	r2, [r0, #4]
 225              		.loc 1 130 0
 226 001e 0361     		str	r3, [r0, #16]
ARM GAS  /var/folders/pt/gxfsd_x53tx3h6kb8dkzftl80000gr/T//ccknt6GK.s 			page 5


 227 0020 7047     		bx	lr
 228              		.cfi_endproc
 229              	.LFE66:
 230              		.size	tmObjectInit, .-tmObjectInit
 231 0022 00BFAFF3 		.section	.bss.measurement_offset,"aw",%nobits
 231      0080AFF3 
 231      0080AFF3 
 231      0080
 232              		.align	2
 233              		.set	.LANCHOR0,. + 0
 234              		.type	measurement_offset, %object
 235              		.size	measurement_offset, 4
 236              	measurement_offset:
 237 0000 00000000 		.space	4
 238              		.text
 239              	.Letext0:
 240              		.file 2 "/Users/programmer/ConVEX/yagarto-4.7.2/bin/../lib/gcc/arm-none-eabi/4.7.2/../../../../arm
 241              		.file 3 "convex/ChibiOS_2.6.2/os/ports/common/ARMCMx/nvic.h"
 242              		.file 4 "convex/ChibiOS_2.6.2/os/hal/platforms/STM32F1xx/hal_lld.h"
 243              		.file 5 "convex/ChibiOS_2.6.2/os/hal/include/tm.h"
 244              		.file 6 "convex/ChibiOS_2.6.2/os/ports/common/ARMCMx/CMSIS/include/core_cm3.h"