ARM GAS  /var/folders/pt/gxfsd_x53tx3h6kb8dkzftl80000gr/T//ccuaIX1l.s 			page 1


   1              		.syntax unified
   2              		.cpu cortex-m3
   3              		.fpu softvfp
   4              		.eabi_attribute 20, 1
   5              		.eabi_attribute 21, 1
   6              		.eabi_attribute 23, 3
   7              		.eabi_attribute 24, 1
   8              		.eabi_attribute 25, 1
   9              		.eabi_attribute 26, 1
  10              		.eabi_attribute 30, 2
  11              		.eabi_attribute 34, 1
  12              		.eabi_attribute 18, 4
  13              		.thumb
  14              		.file	"vexaudio.c"
  15              		.text
  16              	.Ltext0:
  17              		.cfi_sections	.debug_frame
  18              		.global	__aeabi_i2f
  19              		.global	__aeabi_fmul
  20              		.global	__aeabi_fadd
  21              		.global	__aeabi_f2uiz
  22              		.section	.text.VSL_CreateSineWave.part.0,"ax",%progbits
  23              		.align	2
  24              		.p2align 4,,15
  25              		.thumb
  26              		.thumb_func
  27              		.type	VSL_CreateSineWave.part.0, %function
  28              	VSL_CreateSineWave.part.0:
  29              	.LFB79:
  30              		.file 1 "convex/convex/cortex/fw/vexaudio.c"
  31              		.loc 1 522 0
  32              		.cfi_startproc
  33              		@ args = 0, pretend = 0, frame = 0
  34              		@ frame_needed = 0, uses_anonymous_args = 0
  35              	.LVL0:
  36 0000 F8B5     		push	{r3, r4, r5, r6, r7, lr}
  37              	.LCFI0:
  38              		.cfi_def_cfa_offset 24
  39              		.cfi_offset 3, -24
  40              		.cfi_offset 4, -20
  41              		.cfi_offset 5, -16
  42              		.cfi_offset 6, -12
  43              		.cfi_offset 7, -8
  44              		.cfi_offset 14, -4
  45 0002 C000     		lsls	r0, r0, #3
  46              	.LVL1:
  47 0004 FFF7FEFF 		bl	__aeabi_i2f
  48              	.LVL2:
  49 0008 094C     		ldr	r4, .L5
  50 000a 0A4E     		ldr	r6, .L5+4
  51 000c 0546     		mov	r5, r0
  52              		.loc 1 522 0
  53 000e 04F18007 		add	r7, r4, #128
  54              	.LVL3:
  55              	.L2:
  56              		.loc 1 540 0
  57 0012 54F8041F 		ldr	r1, [r4, #4]!	@ float
ARM GAS  /var/folders/pt/gxfsd_x53tx3h6kb8dkzftl80000gr/T//ccuaIX1l.s 			page 2


  58              	.LVL4:
  59 0016 2846     		mov	r0, r5
  60 0018 FFF7FEFF 		bl	__aeabi_fmul
  61              	.LVL5:
  62 001c 2946     		mov	r1, r5
  63 001e FFF7FEFF 		bl	__aeabi_fadd
  64              	.LVL6:
  65              		.loc 1 541 0
  66 0022 FFF7FEFF 		bl	__aeabi_f2uiz
  67              	.LVL7:
  68              		.loc 1 533 0
  69 0026 BC42     		cmp	r4, r7
  70              		.loc 1 541 0
  71 0028 26F8020F 		strh	r0, [r6, #2]!	@ movhi
  72              		.loc 1 533 0
  73 002c F1D1     		bne	.L2
  74              		.loc 1 543 0
  75 002e F8BD     		pop	{r3, r4, r5, r6, r7, pc}
  76              	.L6:
  77              		.align	2
  78              	.L5:
  79 0030 FCFFFFFF 		.word	.LANCHOR0-4
  80 0034 FEFFFFFF 		.word	.LANCHOR1-2
  81              		.cfi_endproc
  82              	.LFE79:
  83              		.size	VSL_CreateSineWave.part.0, .-VSL_CreateSineWave.part.0
  84 0038 AFF30080 		.section	.text.vexAudioStopSound,"ax",%progbits
  84      AFF30080 
  85              		.align	2
  86              		.p2align 4,,15
  87              		.global	vexAudioStopSound
  88              		.thumb
  89              		.thumb_func
  90              		.type	vexAudioStopSound, %function
  91              	vexAudioStopSound:
  92              	.LFB66:
  93              		.loc 1 237 0
  94              		.cfi_startproc
  95              		@ args = 0, pretend = 0, frame = 0
  96              		@ frame_needed = 0, uses_anonymous_args = 0
  97              		@ link register save eliminated.
  98 0000 30B4     		push	{r4, r5}
  99              	.LCFI1:
 100              		.cfi_def_cfa_offset 8
 101              		.cfi_offset 4, -8
 102              		.cfi_offset 5, -4
 103              	.LBB8:
 104              	.LBB9:
 105              		.loc 1 356 0
 106 0002 40F20000 		movw	r0, #:lower16:.LANCHOR4
 107 0006 C0F20000 		movt	r0, #:upper16:.LANCHOR4
 108              	.LBE9:
 109              	.LBE8:
 110              		.loc 1 239 0
 111 000a 0024     		movs	r4, #0
 112              	.LBB14:
 113              	.LBB10:
ARM GAS  /var/folders/pt/gxfsd_x53tx3h6kb8dkzftl80000gr/T//ccuaIX1l.s 			page 3


 114              		.loc 1 356 0
 115 000c 0568     		ldr	r5, [r0, #0]
 116              	.LBE10:
 117              	.LBE14:
 118              		.loc 1 239 0
 119 000e 40F20002 		movw	r2, #:lower16:.LANCHOR2
 120              	.LBB15:
 121              	.LBB11:
 122              		.loc 1 356 0
 123 0012 40F20003 		movw	r3, #:lower16:.LANCHOR3
 124              	.LBE11:
 125              	.LBE15:
 126              		.loc 1 243 0
 127 0016 40F20000 		movw	r0, #:lower16:.LANCHOR5
 128              		.loc 1 239 0
 129 001a C0F20002 		movt	r2, #:upper16:.LANCHOR2
 130              	.LBB16:
 131              	.LBB12:
 132              		.loc 1 356 0
 133 001e C0F20003 		movt	r3, #:upper16:.LANCHOR3
 134              	.LBE12:
 135              	.LBE16:
 136              		.loc 1 243 0
 137 0022 C0F20000 		movt	r0, #:upper16:.LANCHOR5
 138 0026 2146     		mov	r1, r4
 139              		.loc 1 239 0
 140 0028 1460     		str	r4, [r2, #0]
 141              	.LBB17:
 142              	.LBB13:
 143              		.loc 1 356 0
 144 002a 1D60     		str	r5, [r3, #0]
 145              	.LBE13:
 146              	.LBE17:
 147              		.loc 1 244 0
 148 002c 30BC     		pop	{r4, r5}
 149              		.loc 1 243 0
 150 002e FFF7FEBF 		b	chSemReset
 151              	.LVL8:
 152              		.cfi_endproc
 153              	.LFE66:
 154              		.size	vexAudioStopSound, .-vexAudioStopSound
 155 0032 00BFAFF3 		.section	.text.vexAudioInitChipToneSong,"ax",%progbits
 155      0080AFF3 
 155      0080AFF3 
 155      0080
 156              		.align	2
 157              		.p2align 4,,15
 158              		.global	vexAudioInitChipToneSong
 159              		.thumb
 160              		.thumb_func
 161              		.type	vexAudioInitChipToneSong, %function
 162              	vexAudioInitChipToneSong:
 163              	.LFB67:
 164              		.loc 1 272 0
 165              		.cfi_startproc
 166              		@ args = 0, pretend = 0, frame = 0
 167              		@ frame_needed = 0, uses_anonymous_args = 0
ARM GAS  /var/folders/pt/gxfsd_x53tx3h6kb8dkzftl80000gr/T//ccuaIX1l.s 			page 4


 168              	.LVL9:
 169 0000 70B5     		push	{r4, r5, r6, lr}
 170              	.LCFI2:
 171              		.cfi_def_cfa_offset 16
 172              		.cfi_offset 4, -16
 173              		.cfi_offset 5, -12
 174              		.cfi_offset 6, -8
 175              		.cfi_offset 14, -4
 176              		.loc 1 277 0
 177 0002 1B4E     		ldr	r6, .L22
 178              		.loc 1 272 0
 179 0004 0446     		mov	r4, r0
 180              		.loc 1 277 0
 181 0006 3068     		ldr	r0, [r6, #0]
 182              	.LVL10:
 183              		.loc 1 279 0
 184 0008 1A4D     		ldr	r5, .L22+4
 185              		.loc 1 277 0
 186 000a F8B1     		cbz	r0, .L9
 187              		.loc 1 279 0
 188 000c 2B68     		ldr	r3, [r5, #0]
 189 000e A342     		cmp	r3, r4
 190 0010 18DB     		blt	.L21
 191              		.loc 1 291 0
 192 0012 194A     		ldr	r2, .L22+8
 193 0014 0023     		movs	r3, #0
 194 0016 1360     		str	r3, [r2, #0]
 195              		.loc 1 293 0
 196 0018 184A     		ldr	r2, .L22+12
 197              		.loc 1 292 0
 198 001a 2B60     		str	r3, [r5, #0]
 199              		.loc 1 293 0
 200 001c 1360     		str	r3, [r2, #0]
 201              		.loc 1 294 0
 202 001e 184A     		ldr	r2, .L22+16
 203 0020 1360     		str	r3, [r2, #0]
 204              	.L15:
 205              	.LVL11:
 206              		.loc 1 271 0 discriminator 1
 207 0022 0022     		movs	r2, #0
 208              		.loc 1 301 0 discriminator 1
 209 0024 002C     		cmp	r4, #0
 210              		.loc 1 271 0 discriminator 1
 211 0026 00F10803 		add	r3, r0, #8
 212              		.loc 1 303 0 discriminator 1
 213 002a 1146     		mov	r1, r2
 214              		.loc 1 301 0 discriminator 1
 215 002c 07DD     		ble	.L14
 216              	.LVL12:
 217              	.L13:
 218              		.loc 1 301 0 is_stmt 0 discriminator 2
 219 002e 0132     		adds	r2, r2, #1
 220              	.LVL13:
 221              		.loc 1 303 0 is_stmt 1 discriminator 2
 222 0030 43F8081C 		str	r1, [r3, #-8]
 223              		.loc 1 307 0 discriminator 2
 224 0034 43F8041C 		str	r1, [r3, #-4]
ARM GAS  /var/folders/pt/gxfsd_x53tx3h6kb8dkzftl80000gr/T//ccuaIX1l.s 			page 5


 225 0038 0833     		adds	r3, r3, #8
 226              		.loc 1 301 0 discriminator 2
 227 003a A242     		cmp	r2, r4
 228 003c F7D1     		bne	.L13
 229              	.LVL14:
 230              	.L14:
 231              		.loc 1 309 0
 232 003e 2C60     		str	r4, [r5, #0]
 233              		.loc 1 311 0
 234 0040 0120     		movs	r0, #1
 235 0042 70BD     		pop	{r4, r5, r6, pc}
 236              	.L21:
 237              		.loc 1 281 0
 238 0044 FFF7FEFF 		bl	chHeapFree
 239              	.LVL15:
 240              		.loc 1 282 0
 241 0048 0023     		movs	r3, #0
 242 004a 3360     		str	r3, [r6, #0]
 243              	.L9:
 244              		.loc 1 288 0
 245 004c 611C     		adds	r1, r4, #1
 246 004e 0020     		movs	r0, #0
 247 0050 C900     		lsls	r1, r1, #3
 248 0052 FFF7FEFF 		bl	chHeapAlloc
 249              	.LVL16:
 250              		.loc 1 291 0
 251 0056 084A     		ldr	r2, .L22+8
 252 0058 0023     		movs	r3, #0
 253 005a 1360     		str	r3, [r2, #0]
 254              		.loc 1 293 0
 255 005c 074A     		ldr	r2, .L22+12
 256              		.loc 1 288 0
 257 005e 3060     		str	r0, [r6, #0]
 258              		.loc 1 293 0
 259 0060 1360     		str	r3, [r2, #0]
 260              		.loc 1 294 0
 261 0062 074A     		ldr	r2, .L22+16
 262              		.loc 1 292 0
 263 0064 2B60     		str	r3, [r5, #0]
 264              		.loc 1 294 0
 265 0066 1360     		str	r3, [r2, #0]
 266              		.loc 1 297 0
 267 0068 0028     		cmp	r0, #0
 268 006a DAD1     		bne	.L15
 269 006c 70BD     		pop	{r4, r5, r6, pc}
 270              	.L23:
 271 006e 00BF     		.align	2
 272              	.L22:
 273 0070 00000000 		.word	.LANCHOR6
 274 0074 00000000 		.word	.LANCHOR7
 275 0078 00000000 		.word	.LANCHOR4
 276 007c 00000000 		.word	.LANCHOR3
 277 0080 00000000 		.word	.LANCHOR8
 278              		.cfi_endproc
 279              	.LFE67:
 280              		.size	vexAudioInitChipToneSong, .-vexAudioInitChipToneSong
 281 0084 AFF30080 		.section	.text.vexAudioDeinitChipToneSong,"ax",%progbits
ARM GAS  /var/folders/pt/gxfsd_x53tx3h6kb8dkzftl80000gr/T//ccuaIX1l.s 			page 6


 281      AFF30080 
 281      AFF30080 
 282              		.align	2
 283              		.p2align 4,,15
 284              		.global	vexAudioDeinitChipToneSong
 285              		.thumb
 286              		.thumb_func
 287              		.type	vexAudioDeinitChipToneSong, %function
 288              	vexAudioDeinitChipToneSong:
 289              	.LFB68:
 290              		.loc 1 323 0
 291              		.cfi_startproc
 292              		@ args = 0, pretend = 0, frame = 0
 293              		@ frame_needed = 0, uses_anonymous_args = 0
 294 0000 10B5     		push	{r4, lr}
 295              	.LCFI3:
 296              		.cfi_def_cfa_offset 8
 297              		.cfi_offset 4, -8
 298              		.cfi_offset 14, -4
 299              		.loc 1 325 0
 300 0002 054C     		ldr	r4, .L29
 301 0004 2068     		ldr	r0, [r4, #0]
 302 0006 28B1     		cbz	r0, .L24
 303              		.loc 1 327 0
 304 0008 FFF7FEFF 		bl	chHeapFree
 305              	.LVL17:
 306              		.loc 1 329 0
 307 000c 034A     		ldr	r2, .L29+4
 308              		.loc 1 328 0
 309 000e 0023     		movs	r3, #0
 310 0010 2360     		str	r3, [r4, #0]
 311              		.loc 1 329 0
 312 0012 1360     		str	r3, [r2, #0]
 313              	.L24:
 314 0014 10BD     		pop	{r4, pc}
 315              	.L30:
 316 0016 00BF     		.align	2
 317              	.L29:
 318 0018 00000000 		.word	.LANCHOR6
 319 001c 00000000 		.word	.LANCHOR7
 320              		.cfi_endproc
 321              	.LFE68:
 322              		.size	vexAudioDeinitChipToneSong, .-vexAudioDeinitChipToneSong
 323              		.section	.text.vexAudioStopChipToneSong,"ax",%progbits
 324              		.align	2
 325              		.p2align 4,,15
 326              		.global	vexAudioStopChipToneSong
 327              		.thumb
 328              		.thumb_func
 329              		.type	vexAudioStopChipToneSong, %function
 330              	vexAudioStopChipToneSong:
 331              	.LFB70:
 332              		.loc 1 355 0
 333              		.cfi_startproc
 334              		@ args = 0, pretend = 0, frame = 0
 335              		@ frame_needed = 0, uses_anonymous_args = 0
 336              		@ link register save eliminated.
ARM GAS  /var/folders/pt/gxfsd_x53tx3h6kb8dkzftl80000gr/T//ccuaIX1l.s 			page 7


 337              		.loc 1 356 0
 338 0000 40F20002 		movw	r2, #:lower16:.LANCHOR4
 339 0004 C0F20002 		movt	r2, #:upper16:.LANCHOR4
 340 0008 40F20003 		movw	r3, #:lower16:.LANCHOR3
 341 000c 1268     		ldr	r2, [r2, #0]
 342 000e C0F20003 		movt	r3, #:upper16:.LANCHOR3
 343 0012 1A60     		str	r2, [r3, #0]
 344 0014 7047     		bx	lr
 345              		.cfi_endproc
 346              	.LFE70:
 347              		.size	vexAudioStopChipToneSong, .-vexAudioStopChipToneSong
 348 0016 00BFAFF3 		.section	.text.vexAudioSetNextChipTone,"ax",%progbits
 348      0080AFF3 
 348      0080
 349              		.align	2
 350              		.p2align 4,,15
 351              		.global	vexAudioSetNextChipTone
 352              		.thumb
 353              		.thumb_func
 354              		.type	vexAudioSetNextChipTone, %function
 355              	vexAudioSetNextChipTone:
 356              	.LFB71:
 357              		.loc 1 368 0
 358              		.cfi_startproc
 359              		@ args = 0, pretend = 0, frame = 0
 360              		@ frame_needed = 0, uses_anonymous_args = 0
 361              		@ link register save eliminated.
 362              	.LVL18:
 363              		.loc 1 371 0
 364 0000 0B4B     		ldr	r3, .L39
 365              		.loc 1 368 0
 366 0002 F0B4     		push	{r4, r5, r6, r7}
 367              	.LCFI4:
 368              		.cfi_def_cfa_offset 16
 369              		.cfi_offset 4, -16
 370              		.cfi_offset 5, -12
 371              		.cfi_offset 6, -8
 372              		.cfi_offset 7, -4
 373              		.loc 1 371 0
 374 0004 1C68     		ldr	r4, [r3, #0]
 375 0006 6CB1     		cbz	r4, .L32
 376              		.loc 1 373 0
 377 0008 0A4D     		ldr	r5, .L39+4
 378 000a 0B4E     		ldr	r6, .L39+8
 379 000c 2B68     		ldr	r3, [r5, #0]
 380 000e 3668     		ldr	r6, [r6, #0]
 381 0010 B342     		cmp	r3, r6
 382 0012 07DA     		bge	.L32
 383              		.loc 1 375 0
 384 0014 04EBC306 		add	r6, r4, r3, lsl #3
 385              	.LVL19:
 386              		.loc 1 378 0
 387 0018 33B1     		cbz	r3, .L38
 388              	.L34:
 389              		.loc 1 387 0
 390 001a 591C     		adds	r1, r3, #1
 391              	.LVL20:
ARM GAS  /var/folders/pt/gxfsd_x53tx3h6kb8dkzftl80000gr/T//ccuaIX1l.s 			page 8


 392              		.loc 1 381 0
 393 001c 44F83300 		str	r0, [r4, r3, lsl #3]
 394              		.loc 1 385 0
 395 0020 7260     		str	r2, [r6, #4]
 396              		.loc 1 387 0
 397 0022 2960     		str	r1, [r5, #0]
 398              	.LVL21:
 399              	.L32:
 400              		.loc 1 390 0
 401 0024 F0BC     		pop	{r4, r5, r6, r7}
 402 0026 7047     		bx	lr
 403              	.LVL22:
 404              	.L38:
 405              		.loc 1 379 0
 406 0028 044F     		ldr	r7, .L39+12
 407 002a 3960     		str	r1, [r7, #0]
 408 002c F5E7     		b	.L34
 409              	.L40:
 410 002e 00BF     		.align	2
 411              	.L39:
 412 0030 00000000 		.word	.LANCHOR6
 413 0034 00000000 		.word	.LANCHOR4
 414 0038 00000000 		.word	.LANCHOR7
 415 003c 00000000 		.word	.LANCHOR9
 416              		.cfi_endproc
 417              	.LFE71:
 418              		.size	vexAudioSetNextChipTone, .-vexAudioSetNextChipTone
 419              		.section	.text.vexAudioDebugChipTone,"ax",%progbits
 420              		.align	2
 421              		.p2align 4,,15
 422              		.global	vexAudioDebugChipTone
 423              		.thumb
 424              		.thumb_func
 425              		.type	vexAudioDebugChipTone, %function
 426              	vexAudioDebugChipTone:
 427              	.LFB72:
 428              		.loc 1 398 0
 429              		.cfi_startproc
 430              		@ args = 0, pretend = 0, frame = 0
 431              		@ frame_needed = 0, uses_anonymous_args = 0
 432 0000 F8B5     		push	{r3, r4, r5, r6, r7, lr}
 433              	.LCFI5:
 434              		.cfi_def_cfa_offset 24
 435              		.cfi_offset 3, -24
 436              		.cfi_offset 4, -20
 437              		.cfi_offset 5, -16
 438              		.cfi_offset 6, -12
 439              		.cfi_offset 7, -8
 440              		.cfi_offset 14, -4
 441              		.loc 1 402 0
 442 0002 0C4E     		ldr	r6, .L46
 443 0004 3368     		ldr	r3, [r6, #0]
 444 0006 A3B1     		cbz	r3, .L41
 445              	.LVL23:
 446              		.loc 1 404 0 discriminator 1
 447 0008 0B4D     		ldr	r5, .L46+4
 448 000a 2A68     		ldr	r2, [r5, #0]
ARM GAS  /var/folders/pt/gxfsd_x53tx3h6kb8dkzftl80000gr/T//ccuaIX1l.s 			page 9


 449 000c 002A     		cmp	r2, #0
 450 000e 10DD     		ble	.L41
 451 0010 0A4F     		ldr	r7, .L46+8
 452              		.loc 1 404 0 is_stmt 0
 453 0012 0024     		movs	r4, #0
 454 0014 00E0     		b	.L44
 455              	.LVL24:
 456              	.L45:
 457 0016 3368     		ldr	r3, [r6, #0]
 458              	.LVL25:
 459              	.L44:
 460              		.loc 1 406 0 is_stmt 1 discriminator 2
 461 0018 03EBC400 		add	r0, r3, r4, lsl #3
 462              	.LVL26:
 463              		.loc 1 411 0 discriminator 2
 464 001c 53F83410 		ldr	r1, [r3, r4, lsl #3]
 465 0020 3A68     		ldr	r2, [r7, #0]
 466 0022 4368     		ldr	r3, [r0, #4]
 467 0024 0648     		ldr	r0, .L46+12
 468              	.LVL27:
 469 0026 FFF7FEFF 		bl	vex_printf
 470              	.LVL28:
 471              		.loc 1 404 0 discriminator 2
 472 002a 2B68     		ldr	r3, [r5, #0]
 473 002c 0134     		adds	r4, r4, #1
 474              	.LVL29:
 475 002e A342     		cmp	r3, r4
 476 0030 F1DC     		bgt	.L45
 477              	.LVL30:
 478              	.L41:
 479 0032 F8BD     		pop	{r3, r4, r5, r6, r7, pc}
 480              	.L47:
 481              		.align	2
 482              	.L46:
 483 0034 00000000 		.word	.LANCHOR6
 484 0038 00000000 		.word	.LANCHOR7
 485 003c 00000000 		.word	.LANCHOR9
 486 0040 00000000 		.word	.LC0
 487              		.cfi_endproc
 488              	.LFE72:
 489              		.size	vexAudioDebugChipTone, .-vexAudioDebugChipTone
 490 0044 AFF30080 		.section	.text.VSL_Factorize,"ax",%progbits
 490      AFF30080 
 490      AFF30080 
 491              		.align	2
 492              		.p2align 4,,15
 493              		.global	VSL_Factorize
 494              		.thumb
 495              		.thumb_func
 496              		.type	VSL_Factorize, %function
 497              	VSL_Factorize:
 498              	.LFB74:
 499              		.loc 1 472 0
 500              		.cfi_startproc
 501              		@ args = 0, pretend = 0, frame = 0
 502              		@ frame_needed = 0, uses_anonymous_args = 0
 503              		@ link register save eliminated.
ARM GAS  /var/folders/pt/gxfsd_x53tx3h6kb8dkzftl80000gr/T//ccuaIX1l.s 			page 10


 504              	.LVL31:
 505              		.loc 1 475 0
 506 0000 0123     		movs	r3, #1
 507              		.loc 1 477 0
 508 0002 9842     		cmp	r0, r3
 509              		.loc 1 472 0
 510 0004 30B4     		push	{r4, r5}
 511              	.LCFI6:
 512              		.cfi_def_cfa_offset 8
 513              		.cfi_offset 4, -8
 514              		.cfi_offset 5, -4
 515              		.loc 1 475 0
 516 0006 1360     		str	r3, [r2, #0]
 517 0008 0B60     		str	r3, [r1, #0]
 518              		.loc 1 477 0
 519 000a 1EDD     		ble	.L48
 520              		.loc 1 482 0 discriminator 1
 521 000c 0228     		cmp	r0, #2
 522 000e 20D0     		beq	.L56
 523              		.loc 1 482 0 is_stmt 0
 524 0010 0223     		movs	r3, #2
 525 0012 0BE0     		b	.L55
 526              	.LVL32:
 527              	.L59:
 528              		.loc 1 487 0 is_stmt 1
 529 0014 0868     		ldr	r0, [r1, #0]
 530              	.LVL33:
 531 0016 00FB03F0 		mul	r0, r0, r3
 532 001a FF28     		cmp	r0, #255
 533              		.loc 1 490 0
 534 001c C9BF     		itett	gt
 535 001e 1068     		ldrgt	r0, [r2, #0]
 536              		.loc 1 488 0
 537 0020 0860     		strle	r0, [r1, #0]
 538              		.loc 1 490 0
 539 0022 5843     		mulgt	r0, r3, r0
 540 0024 1060     		strgt	r0, [r2, #0]
 541              		.loc 1 492 0
 542 0026 2046     		mov	r0, r4
 543              	.LVL34:
 544              	.L54:
 545              		.loc 1 482 0 discriminator 1
 546 0028 8342     		cmp	r3, r0
 547 002a 0ADA     		bge	.L50
 548              	.LVL35:
 549              	.L55:
 550              		.loc 1 485 0
 551 002c 90FBF3F4 		sdiv	r4, r0, r3
 552 0030 03FB1405 		mls	r5, r3, r4, r0
 553 0034 002D     		cmp	r5, #0
 554 0036 EDD0     		beq	.L59
 555              		.loc 1 497 0
 556 0038 022B     		cmp	r3, #2
 557 003a 08D0     		beq	.L57
 558              		.loc 1 500 0
 559 003c 0233     		adds	r3, r3, #2
 560              	.LVL36:
ARM GAS  /var/folders/pt/gxfsd_x53tx3h6kb8dkzftl80000gr/T//ccuaIX1l.s 			page 11


 561              		.loc 1 482 0
 562 003e 8342     		cmp	r3, r0
 563 0040 F4DB     		blt	.L55
 564              	.LVL37:
 565              	.L50:
 566              		.loc 1 504 0
 567 0042 1168     		ldr	r1, [r2, #0]
 568              	.LVL38:
 569 0044 03FB01F3 		mul	r3, r3, r1
 570 0048 1360     		str	r3, [r2, #0]
 571              	.L48:
 572              		.loc 1 505 0
 573 004a 30BC     		pop	{r4, r5}
 574 004c 7047     		bx	lr
 575              	.LVL39:
 576              	.L57:
 577              		.loc 1 498 0
 578 004e 0323     		movs	r3, #3
 579 0050 EAE7     		b	.L54
 580              	.LVL40:
 581              	.L56:
 582              		.loc 1 482 0
 583 0052 0346     		mov	r3, r0
 584 0054 F5E7     		b	.L50
 585              		.cfi_endproc
 586              	.LFE74:
 587              		.size	VSL_Factorize, .-VSL_Factorize
 588 0056 00BFAFF3 		.section	.text.VSL_CreateSineWave,"ax",%progbits
 588      0080AFF3 
 588      0080
 589              		.align	2
 590              		.p2align 4,,15
 591              		.global	VSL_CreateSineWave
 592              		.thumb
 593              		.thumb_func
 594              		.type	VSL_CreateSineWave, %function
 595              	VSL_CreateSineWave:
 596              	.LFB75:
 597              		.loc 1 523 0
 598              		.cfi_startproc
 599              		@ args = 0, pretend = 0, frame = 0
 600              		@ frame_needed = 0, uses_anonymous_args = 0
 601              		@ link register save eliminated.
 602              	.LVL41:
 603              		.loc 1 529 0
 604 0000 FF28     		cmp	r0, #255
 605 0002 01D8     		bhi	.L60
 606              		.loc 1 543 0 discriminator 1
 607 0004 FFF7FEBF 		b	VSL_CreateSineWave.part.0
 608              	.LVL42:
 609              	.L60:
 610 0008 7047     		bx	lr
 611              		.cfi_endproc
 612              	.LFE75:
 613              		.size	VSL_CreateSineWave, .-VSL_CreateSineWave
 614 000a 00BFAFF3 		.section	.text.VSL_InitTimer,"ax",%progbits
 614      0080
ARM GAS  /var/folders/pt/gxfsd_x53tx3h6kb8dkzftl80000gr/T//ccuaIX1l.s 			page 12


 615              		.align	2
 616              		.p2align 4,,15
 617              		.global	VSL_InitTimer
 618              		.thumb
 619              		.thumb_func
 620              		.type	VSL_InitTimer, %function
 621              	VSL_InitTimer:
 622              	.LFB76:
 623              		.loc 1 555 0
 624              		.cfi_startproc
 625              		@ args = 0, pretend = 0, frame = 0
 626              		@ frame_needed = 0, uses_anonymous_args = 0
 627              		@ link register save eliminated.
 628              	.LVL43:
 629              		.loc 1 562 0
 630 0000 4FF48052 		mov	r2, #4096
 631 0004 C4F20202 		movt	r2, 16386
 632              		.loc 1 555 0
 633 0008 10B4     		push	{r4}
 634              	.LCFI7:
 635              		.cfi_def_cfa_offset 4
 636              		.cfi_offset 4, -4
 637              		.loc 1 562 0
 638 000a D469     		ldr	r4, [r2, #28]
 639              		.loc 1 565 0
 640 000c 4FF4A053 		mov	r3, #5120
 641              		.loc 1 562 0
 642 0010 44F02004 		orr	r4, r4, #32
 643 0014 D461     		str	r4, [r2, #28]
 644              		.loc 1 565 0
 645 0016 C4F20003 		movt	r3, 16384
 646 001a 1A88     		ldrh	r2, [r3, #0]
 647 001c 22F00102 		bic	r2, r2, #1
 648 0020 1204     		lsls	r2, r2, #16
 649 0022 120C     		lsrs	r2, r2, #16
 650              		.loc 1 568 0
 651 0024 0028     		cmp	r0, #0
 652 0026 18BF     		it	ne
 653 0028 0029     		cmpne	r1, #0
 654              		.loc 1 565 0
 655 002a 1A80     		strh	r2, [r3, #0]	@ movhi
 656              		.loc 1 568 0
 657 002c 18D0     		beq	.L62
 658              	.LVL44:
 659              	.LBB20:
 660              	.LBB21:
 661              		.loc 1 572 0
 662 002e 1A88     		ldrh	r2, [r3, #0]
 663              	.LVL45:
 664              		.loc 1 579 0
 665 0030 0139     		subs	r1, r1, #1
 666              	.LVL46:
 667              		.loc 1 574 0
 668 0032 22F44072 		bic	r2, r2, #768
 669              	.LVL47:
 670 0036 1204     		lsls	r2, r2, #16
 671 0038 120C     		lsrs	r2, r2, #16
ARM GAS  /var/folders/pt/gxfsd_x53tx3h6kb8dkzftl80000gr/T//ccuaIX1l.s 			page 13


 672              	.LVL48:
 673              		.loc 1 581 0
 674 003a 0138     		subs	r0, r0, #1
 675              	.LVL49:
 676              		.loc 1 576 0
 677 003c 1A80     		strh	r2, [r3, #0]	@ movhi
 678              		.loc 1 579 0
 679 003e 89B2     		uxth	r1, r1
 680              	.LVL50:
 681              		.loc 1 584 0
 682 0040 0122     		movs	r2, #1
 683              	.LVL51:
 684              		.loc 1 581 0
 685 0042 80B2     		uxth	r0, r0
 686              	.LVL52:
 687              		.loc 1 579 0
 688 0044 9985     		strh	r1, [r3, #44]	@ movhi
 689              		.loc 1 581 0
 690 0046 1885     		strh	r0, [r3, #40]	@ movhi
 691              		.loc 1 584 0
 692 0048 9A82     		strh	r2, [r3, #20]	@ movhi
 693              		.loc 1 588 0
 694 004a 9A88     		ldrh	r2, [r3, #4]
 695 004c 22F07002 		bic	r2, r2, #112
 696 0050 1204     		lsls	r2, r2, #16
 697 0052 120C     		lsrs	r2, r2, #16
 698 0054 9A80     		strh	r2, [r3, #4]	@ movhi
 699              		.loc 1 590 0
 700 0056 9A88     		ldrh	r2, [r3, #4]
 701 0058 92B2     		uxth	r2, r2
 702 005a 42F02002 		orr	r2, r2, #32
 703 005e 9A80     		strh	r2, [r3, #4]	@ movhi
 704              	.LVL53:
 705              	.L62:
 706              	.LBE21:
 707              	.LBE20:
 708              		.loc 1 592 0
 709 0060 10BC     		pop	{r4}
 710 0062 7047     		bx	lr
 711              		.cfi_endproc
 712              	.LFE76:
 713              		.size	VSL_InitTimer, .-VSL_InitTimer
 714 0064 AFF30080 		.section	.text.VSL_Init,"ax",%progbits
 714      AFF30080 
 714      AFF30080 
 715              		.align	2
 716              		.p2align 4,,15
 717              		.global	VSL_Init
 718              		.thumb
 719              		.thumb_func
 720              		.type	VSL_Init, %function
 721              	VSL_Init:
 722              	.LFB77:
 723              		.loc 1 600 0
 724              		.cfi_startproc
 725              		@ args = 0, pretend = 0, frame = 0
 726              		@ frame_needed = 0, uses_anonymous_args = 0
ARM GAS  /var/folders/pt/gxfsd_x53tx3h6kb8dkzftl80000gr/T//ccuaIX1l.s 			page 14


 727              	.LVL54:
 728 0000 10B5     		push	{r4, lr}
 729              	.LCFI8:
 730              		.cfi_def_cfa_offset 8
 731              		.cfi_offset 4, -8
 732              		.cfi_offset 14, -4
 733 0002 4020     		movs	r0, #64
 734 0004 FFF7FEFF 		bl	VSL_CreateSineWave.part.0
 735              	.LVL55:
 736              		.loc 1 616 0
 737 0008 0920     		movs	r0, #9
 738 000a FA21     		movs	r1, #250
 739 000c FFF7FEFF 		bl	VSL_InitTimer
 740              	.LVL56:
 741              		.loc 1 619 0
 742 0010 4FF48053 		mov	r3, #4096
 743 0014 C4F20203 		movt	r3, 16386
 744 0018 DA69     		ldr	r2, [r3, #28]
 745              		.loc 1 623 0
 746 001a 4FF4E844 		mov	r4, #29696
 747              		.loc 1 619 0
 748 001e 42F00052 		orr	r2, r2, #536870912
 749 0022 DA61     		str	r2, [r3, #28]
 750              		.loc 1 623 0
 751 0024 C4F20004 		movt	r4, 16384
 752 0028 2368     		ldr	r3, [r4, #0]
 753              	.LVL57:
 754              		.loc 1 634 0
 755 002a 0021     		movs	r1, #0
 756              		.loc 1 625 0
 757 002c 23F47F63 		bic	r3, r3, #4080
 758              	.LVL58:
 759 0030 23F00E03 		bic	r3, r3, #14
 760              	.LVL59:
 761              		.loc 1 629 0
 762 0034 43F01603 		orr	r3, r3, #22
 763              	.LVL60:
 764              		.loc 1 631 0
 765 0038 2360     		str	r3, [r4, #0]
 766              		.loc 1 634 0
 767 003a 1048     		ldr	r0, .L66
 768 003c 0A46     		mov	r2, r1
 769 003e 0B46     		mov	r3, r1
 770              	.LVL61:
 771 0040 FFF7FEFF 		bl	dmaStreamAllocate
 772              	.LVL62:
 773 0044 C8B9     		cbnz	r0, .L64
 774              	.LVL63:
 775              	.LBB25:
 776              		.loc 1 642 0
 777 0046 0E4B     		ldr	r3, .L66+4
 778 0048 42F2B051 		movw	r1, #9648
 779 004c DB6E     		ldr	r3, [r3, #108]
 780              		.loc 1 645 0
 781 004e 47F20842 		movw	r2, #29704
 782              		.loc 1 642 0
 783 0052 1960     		str	r1, [r3, #0]
ARM GAS  /var/folders/pt/gxfsd_x53tx3h6kb8dkzftl80000gr/T//ccuaIX1l.s 			page 15


 784              		.loc 1 645 0
 785 0054 C4F20002 		movt	r2, 16384
 786              		.loc 1 644 0
 787 0058 2021     		movs	r1, #32
 788 005a 5960     		str	r1, [r3, #4]
 789              		.loc 1 645 0
 790 005c 9A60     		str	r2, [r3, #8]
 791              		.loc 1 646 0
 792 005e 094A     		ldr	r2, .L66+8
 793 0060 DA60     		str	r2, [r3, #12]
 794              		.loc 1 649 0
 795 0062 1A68     		ldr	r2, [r3, #0]
 796 0064 42F00102 		orr	r2, r2, #1
 797 0068 1A60     		str	r2, [r3, #0]
 798              		.loc 1 653 0
 799 006a 2368     		ldr	r3, [r4, #0]
 800 006c 43F00103 		orr	r3, r3, #1
 801 0070 2360     		str	r3, [r4, #0]
 802              		.loc 1 656 0
 803 0072 2368     		ldr	r3, [r4, #0]
 804 0074 43F48053 		orr	r3, r3, #4096
 805 0078 2360     		str	r3, [r4, #0]
 806              	.LVL64:
 807              	.L64:
 808 007a 10BD     		pop	{r4, pc}
 809              	.L67:
 810              		.align	2
 811              	.L66:
 812 007c 6C000000 		.word	_stm32_dma_streams+108
 813 0080 00000000 		.word	_stm32_dma_streams
 814 0084 00000000 		.word	.LANCHOR1
 815              	.LBE25:
 816              		.cfi_endproc
 817              	.LFE77:
 818              		.size	VSL_Init, .-VSL_Init
 819 0088 AFF30080 		.section	.text.vexAudioPlaySound,"ax",%progbits
 819      AFF30080 
 820              		.align	2
 821              		.p2align 4,,15
 822              		.global	vexAudioPlaySound
 823              		.thumb
 824              		.thumb_func
 825              		.type	vexAudioPlaySound, %function
 826              	vexAudioPlaySound:
 827              	.LFB64:
 828              		.loc 1 153 0
 829              		.cfi_startproc
 830              		@ args = 0, pretend = 0, frame = 8
 831              		@ frame_needed = 0, uses_anonymous_args = 0
 832              	.LVL65:
 833 0000 2DE9F041 		push	{r4, r5, r6, r7, r8, lr}
 834              	.LCFI9:
 835              		.cfi_def_cfa_offset 24
 836              		.cfi_offset 4, -24
 837              		.cfi_offset 5, -20
 838              		.cfi_offset 6, -16
 839              		.cfi_offset 7, -12
ARM GAS  /var/folders/pt/gxfsd_x53tx3h6kb8dkzftl80000gr/T//ccuaIX1l.s 			page 16


 840              		.cfi_offset 8, -8
 841              		.cfi_offset 14, -4
 842              		.loc 1 161 0
 843 0004 DFF8C880 		ldr	r8, .L78+16
 844              		.loc 1 153 0
 845 0008 84B0     		sub	sp, sp, #16
 846              	.LCFI10:
 847              		.cfi_def_cfa_offset 40
 848              		.loc 1 161 0
 849 000a D8F80060 		ldr	r6, [r8, #0]
 850              		.loc 1 153 0
 851 000e 0446     		mov	r4, r0
 852 0010 0D46     		mov	r5, r1
 853 0012 1746     		mov	r7, r2
 854              		.loc 1 161 0
 855 0014 002E     		cmp	r6, #0
 856 0016 41D0     		beq	.L77
 857              	.LVL66:
 858              	.L69:
 859              		.loc 1 171 0
 860 0018 14B9     		cbnz	r4, .L70
 861              		.loc 1 174 0
 862 001a 2546     		mov	r5, r4
 863              	.LVL67:
 864              		.loc 1 173 0
 865 001c 4FF47A74 		mov	r4, #1000
 866              	.LVL68:
 867              	.L70:
 868              		.loc 1 178 0
 869 0020 274E     		ldr	r6, .L78
 870 0022 3368     		ldr	r3, [r6, #0]
 871 0024 9D42     		cmp	r5, r3
 872 0026 03D0     		beq	.L71
 873              		.loc 1 180 0
 874 0028 2846     		mov	r0, r5
 875 002a FFF7FEFF 		bl	VSL_CreateSineWave
 876              	.LVL69:
 877              		.loc 1 181 0
 878 002e 3560     		str	r5, [r6, #0]
 879              	.L71:
 880              		.loc 1 185 0
 881 0030 C72C     		cmp	r4, #199
 882 0032 D8BF     		it	le
 883 0034 4FF4C850 		movle	r0, #6400
 884 0038 08DD     		ble	.L73
 885              		.loc 1 186 0
 886 003a 42F21073 		movw	r3, #10000
 887 003e 6001     		lsls	r0, r4, #5
 888 0040 9C42     		cmp	r4, r3
 889 0042 C4BF     		itt	gt
 890 0044 4FF46240 		movgt	r0, #57856
 891 0048 C0F20400 		movtgt	r0, 4
 892              	.L73:
 893              	.LVL70:
 894              		.loc 1 189 0
 895 004c 4FF42243 		mov	r3, #41472
 896 0050 C0F24A43 		movt	r3, 1098
ARM GAS  /var/folders/pt/gxfsd_x53tx3h6kb8dkzftl80000gr/T//ccuaIX1l.s 			page 17


 897 0054 93FBF0F0 		sdiv	r0, r3, r0
 898 0058 03AA     		add	r2, sp, #12
 899 005a 02A9     		add	r1, sp, #8
 900 005c FFF7FEFF 		bl	VSL_Factorize
 901              	.LVL71:
 902              		.loc 1 192 0
 903 0060 0298     		ldr	r0, [sp, #8]
 904              	.LVL72:
 905 0062 0399     		ldr	r1, [sp, #12]
 906 0064 FFF7FEFF 		bl	VSL_InitTimer
 907              	.LVL73:
 908              		.loc 1 195 0
 909 0068 4FF4E841 		mov	r1, #29696
 910 006c C4F20001 		movt	r1, 16384
 911 0070 0A68     		ldr	r2, [r1, #0]
 912              		.loc 1 198 0
 913 0072 4FF4A053 		mov	r3, #5120
 914              		.loc 1 195 0
 915 0076 42F00102 		orr	r2, r2, #1
 916 007a 0A60     		str	r2, [r1, #0]
 917              		.loc 1 198 0
 918 007c C4F20003 		movt	r3, 16384
 919 0080 1A88     		ldrh	r2, [r3, #0]
 920              		.loc 1 203 0
 921 0082 1048     		ldr	r0, .L78+4
 922              		.loc 1 198 0
 923 0084 92B2     		uxth	r2, r2
 924 0086 42F00102 		orr	r2, r2, #1
 925 008a 1A80     		strh	r2, [r3, #0]	@ movhi
 926              		.loc 1 201 0
 927 008c 0E4B     		ldr	r3, .L78+8
 928              		.loc 1 203 0
 929 008e 0021     		movs	r1, #0
 930              		.loc 1 201 0
 931 0090 1F60     		str	r7, [r3, #0]
 932              		.loc 1 203 0
 933 0092 FFF7FEFF 		bl	chSemReset
 934              	.LVL74:
 935              		.loc 1 205 0
 936 0096 04B0     		add	sp, sp, #16
 937 0098 BDE8F081 		pop	{r4, r5, r6, r7, r8, pc}
 938              	.LVL75:
 939              	.L77:
 940              		.loc 1 163 0
 941 009c FFF7FEFF 		bl	VSL_Init
 942              	.LVL76:
 943              		.loc 1 165 0
 944 00a0 0848     		ldr	r0, .L78+4
 945 00a2 3146     		mov	r1, r6
 946 00a4 FFF7FEFF 		bl	chSemInit
 947              	.LVL77:
 948              		.loc 1 166 0
 949 00a8 0096     		str	r6, [sp, #0]
 950 00aa 3046     		mov	r0, r6
 951 00ac 4FF4C071 		mov	r1, #384
 952 00b0 4022     		movs	r2, #64
 953 00b2 064B     		ldr	r3, .L78+12
ARM GAS  /var/folders/pt/gxfsd_x53tx3h6kb8dkzftl80000gr/T//ccuaIX1l.s 			page 18


 954 00b4 FFF7FEFF 		bl	chThdCreateFromHeap
 955              	.LVL78:
 956 00b8 C8F80000 		str	r0, [r8, #0]
 957 00bc ACE7     		b	.L69
 958              	.L79:
 959 00be 00BF     		.align	2
 960              	.L78:
 961 00c0 00000000 		.word	.LANCHOR11
 962 00c4 00000000 		.word	.LANCHOR5
 963 00c8 00000000 		.word	.LANCHOR2
 964 00cc 00000000 		.word	vexAudioTask
 965 00d0 00000000 		.word	.LANCHOR10
 966              		.cfi_endproc
 967              	.LFE64:
 968              		.size	vexAudioPlaySound, .-vexAudioPlaySound
 969 00d4 AFF30080 		.section	.text.vexAudioPlayNextChipTone,"ax",%progbits
 969      AFF30080 
 969      AFF30080 
 970              		.align	2
 971              		.p2align 4,,15
 972              		.global	vexAudioPlayNextChipTone
 973              		.thumb
 974              		.thumb_func
 975              		.type	vexAudioPlayNextChipTone, %function
 976              	vexAudioPlayNextChipTone:
 977              	.LFB73:
 978              		.loc 1 426 0
 979              		.cfi_startproc
 980              		@ args = 0, pretend = 0, frame = 0
 981              		@ frame_needed = 0, uses_anonymous_args = 0
 982              	.LVL79:
 983 0000 38B5     		push	{r3, r4, r5, lr}
 984              	.LCFI11:
 985              		.cfi_def_cfa_offset 16
 986              		.cfi_offset 3, -16
 987              		.cfi_offset 4, -12
 988              		.cfi_offset 5, -8
 989              		.cfi_offset 14, -4
 990              		.loc 1 431 0
 991 0002 134B     		ldr	r3, .L90
 992 0004 1868     		ldr	r0, [r3, #0]
 993 0006 D0B1     		cbz	r0, .L81
 994              	.LBB28:
 995              	.LBB29:
 996              		.loc 1 435 0
 997 0008 124B     		ldr	r3, .L90+4
 998 000a 1868     		ldr	r0, [r3, #0]
 999 000c B8B1     		cbz	r0, .L81
 1000              		.loc 1 437 0
 1001 000e 124C     		ldr	r4, .L90+8
 1002 0010 124D     		ldr	r5, .L90+12
 1003 0012 2368     		ldr	r3, [r4, #0]
 1004 0014 2A68     		ldr	r2, [r5, #0]
 1005 0016 9342     		cmp	r3, r2
 1006 0018 01DB     		blt	.L88
 1007              		.loc 1 428 0
 1008 001a 0020     		movs	r0, #0
ARM GAS  /var/folders/pt/gxfsd_x53tx3h6kb8dkzftl80000gr/T//ccuaIX1l.s 			page 19


 1009 001c 38BD     		pop	{r3, r4, r5, pc}
 1010              	.L88:
 1011              		.loc 1 439 0
 1012 001e 00EBC302 		add	r2, r0, r3, lsl #3
 1013              	.LVL80:
 1014              		.loc 1 444 0
 1015 0022 50F83300 		ldr	r0, [r0, r3, lsl #3]
 1016 0026 0E4B     		ldr	r3, .L90+16
 1017 0028 5268     		ldr	r2, [r2, #4]
 1018              	.LVL81:
 1019 002a 1968     		ldr	r1, [r3, #0]
 1020 002c FFF7FEFF 		bl	vexAudioPlaySound
 1021              	.LVL82:
 1022              		.loc 1 447 0
 1023 0030 2368     		ldr	r3, [r4, #0]
 1024              		.loc 1 450 0
 1025 0032 2A68     		ldr	r2, [r5, #0]
 1026              		.loc 1 447 0
 1027 0034 0133     		adds	r3, r3, #1
 1028              		.loc 1 450 0
 1029 0036 9342     		cmp	r3, r2
 1030              		.loc 1 447 0
 1031 0038 2360     		str	r3, [r4, #0]
 1032              		.loc 1 450 0
 1033 003a 01D0     		beq	.L89
 1034              	.L87:
 1035              		.loc 1 456 0
 1036 003c 0120     		movs	r0, #1
 1037              	.LVL83:
 1038              	.L81:
 1039              	.LBE29:
 1040              	.LBE28:
 1041              		.loc 1 461 0
 1042 003e 38BD     		pop	{r3, r4, r5, pc}
 1043              	.L89:
 1044              	.LBB31:
 1045              	.LBB30:
 1046              		.loc 1 452 0
 1047 0040 084B     		ldr	r3, .L90+20
 1048 0042 1B68     		ldr	r3, [r3, #0]
 1049 0044 002B     		cmp	r3, #0
 1050 0046 F9D0     		beq	.L87
 1051              		.loc 1 453 0
 1052 0048 0023     		movs	r3, #0
 1053 004a 2360     		str	r3, [r4, #0]
 1054              		.loc 1 456 0
 1055 004c 0120     		movs	r0, #1
 1056 004e 38BD     		pop	{r3, r4, r5, pc}
 1057              	.L91:
 1058              		.align	2
 1059              	.L90:
 1060 0050 00000000 		.word	.LANCHOR7
 1061 0054 00000000 		.word	.LANCHOR6
 1062 0058 00000000 		.word	.LANCHOR3
 1063 005c 00000000 		.word	.LANCHOR4
 1064 0060 00000000 		.word	.LANCHOR9
 1065 0064 00000000 		.word	.LANCHOR8
ARM GAS  /var/folders/pt/gxfsd_x53tx3h6kb8dkzftl80000gr/T//ccuaIX1l.s 			page 20


 1066              	.LBE30:
 1067              	.LBE31:
 1068              		.cfi_endproc
 1069              	.LFE73:
 1070              		.size	vexAudioPlayNextChipTone, .-vexAudioPlayNextChipTone
 1071 0068 AFF30080 		.section	.text.vexAudioStartChipToneSong,"ax",%progbits
 1071      AFF30080 
 1072              		.align	2
 1073              		.p2align 4,,15
 1074              		.global	vexAudioStartChipToneSong
 1075              		.thumb
 1076              		.thumb_func
 1077              		.type	vexAudioStartChipToneSong, %function
 1078              	vexAudioStartChipToneSong:
 1079              	.LFB69:
 1080              		.loc 1 339 0
 1081              		.cfi_startproc
 1082              		@ args = 0, pretend = 0, frame = 0
 1083              		@ frame_needed = 0, uses_anonymous_args = 0
 1084              		@ link register save eliminated.
 1085              	.LVL84:
 1086              		.loc 1 340 0
 1087 0000 054B     		ldr	r3, .L94
 1088 0002 1B68     		ldr	r3, [r3, #0]
 1089 0004 002B     		cmp	r3, #0
 1090 0006 06DD     		ble	.L92
 1091              		.loc 1 342 0
 1092 0008 044B     		ldr	r3, .L94+4
 1093 000a 0022     		movs	r2, #0
 1094 000c 1A60     		str	r2, [r3, #0]
 1095              		.loc 1 343 0
 1096 000e 044B     		ldr	r3, .L94+8
 1097 0010 1860     		str	r0, [r3, #0]
 1098              		.loc 1 347 0
 1099              		.loc 1 345 0
 1100 0012 FFF7FEBF 		b	vexAudioPlayNextChipTone
 1101              	.LVL85:
 1102              	.L92:
 1103 0016 7047     		bx	lr
 1104              	.L95:
 1105              		.align	2
 1106              	.L94:
 1107 0018 00000000 		.word	.LANCHOR7
 1108 001c 00000000 		.word	.LANCHOR3
 1109 0020 00000000 		.word	.LANCHOR8
 1110              		.cfi_endproc
 1111              	.LFE69:
 1112              		.size	vexAudioStartChipToneSong, .-vexAudioStartChipToneSong
 1113 0024 AFF30080 		.section	.text.vexAudioTask,"ax",%progbits
 1113      AFF30080 
 1113      AFF30080 
 1114              		.align	2
 1115              		.p2align 4,,15
 1116              		.thumb
 1117              		.thumb_func
 1118              		.type	vexAudioTask, %function
 1119              	vexAudioTask:
ARM GAS  /var/folders/pt/gxfsd_x53tx3h6kb8dkzftl80000gr/T//ccuaIX1l.s 			page 21


 1120              	.LFB63:
 1121              		.loc 1 104 0
 1122              		.cfi_startproc
 1123              		@ args = 0, pretend = 0, frame = 0
 1124              		@ frame_needed = 0, uses_anonymous_args = 0
 1125              	.LVL86:
 1126 0000 2DE9F843 		push	{r3, r4, r5, r6, r7, r8, r9, lr}
 1127              	.LCFI12:
 1128              		.cfi_def_cfa_offset 32
 1129              		.cfi_offset 3, -32
 1130              		.cfi_offset 4, -28
 1131              		.cfi_offset 5, -24
 1132              		.cfi_offset 6, -20
 1133              		.cfi_offset 7, -16
 1134              		.cfi_offset 8, -12
 1135              		.cfi_offset 9, -8
 1136              		.cfi_offset 14, -4
 1137              		.loc 1 109 0
 1138 0004 244F     		ldr	r7, .L107
 1139              		.loc 1 110 0
 1140 0006 254E     		ldr	r6, .L107+4
 1141              		.loc 1 109 0
 1142 0008 BB69     		ldr	r3, [r7, #24]
 1143 000a 254A     		ldr	r2, .L107+8
 1144              	.LBB32:
 1145              	.LBB33:
 1146              		.loc 1 669 0
 1147 000c 4FF4A059 		mov	r9, #5120
 1148              		.loc 1 671 0
 1149 0010 4FF4E848 		mov	r8, #29696
 1150              	.LBE33:
 1151              	.LBE32:
 1152              		.loc 1 109 0
 1153 0014 9A61     		str	r2, [r3, #24]
 1154              		.loc 1 110 0
 1155 0016 3660     		str	r6, [r6, #0]
 1156              		.loc 1 114 0
 1157 0018 224D     		ldr	r5, .L107+12
 1158              	.LBB36:
 1159              	.LBB34:
 1160              		.loc 1 669 0
 1161 001a C4F20009 		movt	r9, 16384
 1162              		.loc 1 671 0
 1163 001e C4F20008 		movt	r8, 16384
 1164              	.LBE34:
 1165              	.LBE36:
 1166              		.loc 1 112 0
 1167 0022 13E0     		b	.L97
 1168              	.LVL87:
 1169              	.L106:
 1170              		.loc 1 116 0
 1171 0024 1968     		ldr	r1, [r3, #0]
 1172              	.LVL88:
 1173              		.loc 1 117 0
 1174 0026 1C60     		str	r4, [r3, #0]
 1175              		.loc 1 119 0
 1176 0028 FFF7FEFF 		bl	chSemWaitTimeout
ARM GAS  /var/folders/pt/gxfsd_x53tx3h6kb8dkzftl80000gr/T//ccuaIX1l.s 			page 22


 1177              	.LVL89:
 1178              	.LBB37:
 1179              		.loc 1 121 0
 1180 002c 2023     		movs	r3, #32
 1181              	.LVL90:
 1182              	@ 121 "convex/convex/cortex/fw/vexaudio.c" 1
 1183 002e 83F31188 		msr     BASEPRI, r3
 1184              	@ 0 "" 2
 1185              	.LVL91:
 1186              		.thumb
 1187              	.LBE37:
 1188              		.loc 1 122 0
 1189 0032 3368     		ldr	r3, [r6, #0]
 1190              	.LVL92:
 1191              		.loc 1 123 0
 1192 0034 1948     		ldr	r0, .L107+4
 1193              		.loc 1 122 0
 1194 0036 B342     		cmp	r3, r6
 1195              		.loc 1 123 0
 1196 0038 2146     		mov	r1, r4
 1197              		.loc 1 122 0
 1198 003a 01D0     		beq	.L99
 1199              		.loc 1 123 0
 1200 003c FFF7FEFF 		bl	chEvtBroadcastFlagsI
 1201              	.LVL93:
 1202              	.L99:
 1203              	.LBB38:
 1204              		.loc 1 124 0
 1205 0040 0023     		movs	r3, #0
 1206              	.LVL94:
 1207              	@ 124 "convex/convex/cortex/fw/vexaudio.c" 1
 1208 0042 83F31188 		msr     BASEPRI, r3
 1209              	@ 0 "" 2
 1210              	.LVL95:
 1211              		.thumb
 1212              	.LBE38:
 1213              		.loc 1 126 0
 1214 0046 2B68     		ldr	r3, [r5, #0]
 1215              	.LVL96:
 1216 0048 73B1     		cbz	r3, .L104
 1217              	.L101:
 1218 004a BB69     		ldr	r3, [r7, #24]
 1219              	.L97:
 1220              		.loc 1 112 0 discriminator 1
 1221 004c 5C7F     		ldrb	r4, [r3, #29]	@ zero_extendqisi2
 1222              		.loc 1 119 0 discriminator 1
 1223 004e 1648     		ldr	r0, .L107+16
 1224              		.loc 1 112 0 discriminator 1
 1225 0050 04F00404 		and	r4, r4, #4
 1226 0054 E4B2     		uxtb	r4, r4
 1227              		.loc 1 114 0 discriminator 1
 1228 0056 134B     		ldr	r3, .L107+12
 1229              		.loc 1 112 0 discriminator 1
 1230 0058 DCB9     		cbnz	r4, .L105
 1231              		.loc 1 114 0
 1232 005a 2A68     		ldr	r2, [r5, #0]
 1233 005c 002A     		cmp	r2, #0
ARM GAS  /var/folders/pt/gxfsd_x53tx3h6kb8dkzftl80000gr/T//ccuaIX1l.s 			page 23


 1234 005e E1D1     		bne	.L106
 1235              		.loc 1 133 0
 1236 0060 1148     		ldr	r0, .L107+16
 1237 0062 FFF7FEFF 		bl	chSemWait
 1238              	.LVL97:
 1239 0066 F0E7     		b	.L101
 1240              	.L104:
 1241              		.loc 1 128 0
 1242 0068 FFF7FEFF 		bl	vexAudioPlayNextChipTone
 1243              	.LVL98:
 1244 006c 0028     		cmp	r0, #0
 1245 006e ECD1     		bne	.L101
 1246              	.LBB39:
 1247              	.LBB35:
 1248              		.loc 1 669 0
 1249 0070 B9F80030 		ldrh	r3, [r9, #0]
 1250 0074 23F00103 		bic	r3, r3, #1
 1251 0078 1B04     		lsls	r3, r3, #16
 1252 007a 1B0C     		lsrs	r3, r3, #16
 1253 007c A9F80030 		strh	r3, [r9, #0]	@ movhi
 1254              		.loc 1 671 0
 1255 0080 D8F80030 		ldr	r3, [r8, #0]
 1256 0084 23F00103 		bic	r3, r3, #1
 1257 0088 C8F80030 		str	r3, [r8, #0]
 1258              		.loc 1 673 0
 1259 008c C8F80800 		str	r0, [r8, #8]
 1260 0090 DBE7     		b	.L101
 1261              	.L105:
 1262              	.LBE35:
 1263              	.LBE39:
 1264              		.loc 1 137 0
 1265 0092 0020     		movs	r0, #0
 1266 0094 BDE8F883 		pop	{r3, r4, r5, r6, r7, r8, r9, pc}
 1267              	.L108:
 1268              		.align	2
 1269              	.L107:
 1270 0098 00000000 		.word	rlist
 1271 009c 00000000 		.word	.LANCHOR12
 1272 00a0 0C000000 		.word	.LC1
 1273 00a4 00000000 		.word	.LANCHOR2
 1274 00a8 00000000 		.word	.LANCHOR5
 1275              		.cfi_endproc
 1276              	.LFE63:
 1277              		.size	vexAudioTask, .-vexAudioTask
 1278 00ac AFF30080 		.section	.text.vexAudioPlaySoundWait,"ax",%progbits
 1279              		.align	2
 1280              		.p2align 4,,15
 1281              		.global	vexAudioPlaySoundWait
 1282              		.thumb
 1283              		.thumb_func
 1284              		.type	vexAudioPlaySoundWait, %function
 1285              	vexAudioPlaySoundWait:
 1286              	.LFB65:
 1287              		.loc 1 213 0
 1288              		.cfi_startproc
 1289              		@ args = 0, pretend = 0, frame = 16
 1290              		@ frame_needed = 0, uses_anonymous_args = 0
ARM GAS  /var/folders/pt/gxfsd_x53tx3h6kb8dkzftl80000gr/T//ccuaIX1l.s 			page 24


 1291              	.LVL99:
 1292 0000 F0B5     		push	{r4, r5, r6, r7, lr}
 1293              	.LCFI13:
 1294              		.cfi_def_cfa_offset 20
 1295              		.cfi_offset 4, -20
 1296              		.cfi_offset 5, -16
 1297              		.cfi_offset 6, -12
 1298              		.cfi_offset 7, -8
 1299              		.cfi_offset 14, -4
 1300              		.loc 1 217 0
 1301 0002 40F20004 		movw	r4, #:lower16:.LANCHOR12
 1302              		.loc 1 213 0
 1303 0006 85B0     		sub	sp, sp, #20
 1304              	.LCFI14:
 1305              		.cfi_def_cfa_offset 40
 1306              		.loc 1 217 0
 1307 0008 C0F20004 		movt	r4, #:upper16:.LANCHOR12
 1308              		.loc 1 213 0
 1309 000c 0746     		mov	r7, r0
 1310 000e 0E46     		mov	r6, r1
 1311 0010 1546     		mov	r5, r2
 1312              		.loc 1 217 0
 1313 0012 2046     		mov	r0, r4
 1314              	.LVL100:
 1315 0014 6946     		mov	r1, sp
 1316              	.LVL101:
 1317 0016 0122     		movs	r2, #1
 1318              	.LVL102:
 1319 0018 FFF7FEFF 		bl	chEvtRegisterMask
 1320              	.LVL103:
 1321              		.loc 1 219 0
 1322 001c 3846     		mov	r0, r7
 1323 001e 3146     		mov	r1, r6
 1324 0020 2A46     		mov	r2, r5
 1325 0022 FFF7FEFF 		bl	vexAudioPlaySound
 1326              	.LVL104:
 1327              		.loc 1 222 0
 1328 0026 42F21071 		movw	r1, #10000
 1329 002a 4FF0FF30 		mov	r0, #-1
 1330 002e FFF7FEFF 		bl	chEvtWaitAnyTimeout
 1331              	.LVL105:
 1332              		.loc 1 225 0
 1333 0032 2046     		mov	r0, r4
 1334 0034 6946     		mov	r1, sp
 1335 0036 FFF7FEFF 		bl	chEvtUnregister
 1336              	.LVL106:
 1337              		.loc 1 226 0
 1338 003a 05B0     		add	sp, sp, #20
 1339 003c F0BD     		pop	{r4, r5, r6, r7, pc}
 1340              		.cfi_endproc
 1341              	.LFE65:
 1342              		.size	vexAudioPlaySoundWait, .-vexAudioPlaySoundWait
 1343 003e 00BF     		.section	.text.VSL_Deinit,"ax",%progbits
 1344              		.align	2
 1345              		.p2align 4,,15
 1346              		.global	VSL_Deinit
 1347              		.thumb
ARM GAS  /var/folders/pt/gxfsd_x53tx3h6kb8dkzftl80000gr/T//ccuaIX1l.s 			page 25


 1348              		.thumb_func
 1349              		.type	VSL_Deinit, %function
 1350              	VSL_Deinit:
 1351              	.LFB78:
 1352              		.loc 1 667 0
 1353              		.cfi_startproc
 1354              		@ args = 0, pretend = 0, frame = 0
 1355              		@ frame_needed = 0, uses_anonymous_args = 0
 1356              		@ link register save eliminated.
 1357              		.loc 1 669 0
 1358 0000 4FF4A051 		mov	r1, #5120
 1359 0004 C4F20001 		movt	r1, 16384
 1360 0008 0B88     		ldrh	r3, [r1, #0]
 1361              		.loc 1 671 0
 1362 000a 4FF4E842 		mov	r2, #29696
 1363              		.loc 1 669 0
 1364 000e 23F00103 		bic	r3, r3, #1
 1365 0012 1B04     		lsls	r3, r3, #16
 1366 0014 1B0C     		lsrs	r3, r3, #16
 1367 0016 0B80     		strh	r3, [r1, #0]	@ movhi
 1368              		.loc 1 671 0
 1369 0018 C4F20002 		movt	r2, 16384
 1370 001c 1368     		ldr	r3, [r2, #0]
 1371 001e 23F00103 		bic	r3, r3, #1
 1372 0022 1360     		str	r3, [r2, #0]
 1373              		.loc 1 673 0
 1374 0024 0023     		movs	r3, #0
 1375 0026 9360     		str	r3, [r2, #8]
 1376 0028 7047     		bx	lr
 1377              		.cfi_endproc
 1378              	.LFE78:
 1379              		.size	VSL_Deinit, .-VSL_Deinit
 1380 002a 00BFAFF3 		.section	.rodata.sinPreCalc,"a",%progbits
 1380      0080
 1381              		.align	2
 1382              		.set	.LANCHOR0,. + 0
 1383              		.type	sinPreCalc, %object
 1384              		.size	sinPreCalc, 128
 1385              	sinPreCalc:
 1386 0000 00000000 		.word	0
 1387 0004 ACC5473E 		.word	1044891052
 1388 0008 A2EEC33E 		.word	1053028002
 1389 000c D6390E3F 		.word	1057896918
 1390 0010 2905353F 		.word	1060439337
 1391 0014 38DB543F 		.word	1062525752
 1392 0018 66836C3F 		.word	1064076134
 1393 001c 0E157B3F 		.word	1065030926
 1394 0020 0000803F 		.word	1065353216
 1395 0024 0E157B3F 		.word	1065030926
 1396 0028 66836C3F 		.word	1064076134
 1397 002c 38DB543F 		.word	1062525752
 1398 0030 2905353F 		.word	1060439337
 1399 0034 D6390E3F 		.word	1057896918
 1400 0038 A2EEC33E 		.word	1053028002
 1401 003c ACC5473E 		.word	1044891052
 1402 0040 00000000 		.word	0
 1403 0044 ACC547BE 		.word	3192374700
ARM GAS  /var/folders/pt/gxfsd_x53tx3h6kb8dkzftl80000gr/T//ccuaIX1l.s 			page 26


 1404 0048 A2EEC3BE 		.word	3200511650
 1405 004c D6390EBF 		.word	3205380566
 1406 0050 290535BF 		.word	3207922985
 1407 0054 38DB54BF 		.word	3210009400
 1408 0058 66836CBF 		.word	3211559782
 1409 005c 0E157BBF 		.word	3212514574
 1410 0060 000080BF 		.word	3212836864
 1411 0064 0E157BBF 		.word	3212514574
 1412 0068 66836CBF 		.word	3211559782
 1413 006c 38DB54BF 		.word	3210009400
 1414 0070 290535BF 		.word	3207922985
 1415 0074 D6390EBF 		.word	3205380566
 1416 0078 A2EEC3BE 		.word	3200511650
 1417 007c ACC547BE 		.word	3192374700
 1418              		.section	.bss.vslThread,"aw",%nobits
 1419              		.align	2
 1420              		.set	.LANCHOR10,. + 0
 1421              		.type	vslThread, %object
 1422              		.size	vslThread, 4
 1423              	vslThread:
 1424 0000 00000000 		.space	4
 1425              		.section	.bss.Sine12bit,"aw",%nobits
 1426              		.align	2
 1427              		.set	.LANCHOR1,. + 0
 1428              		.type	Sine12bit, %object
 1429              		.size	Sine12bit, 64
 1430              	Sine12bit:
 1431 0000 00000000 		.space	64
 1431      00000000 
 1431      00000000 
 1431      00000000 
 1431      00000000 
 1432              		.section	.bss.vslSem,"aw",%nobits
 1433              		.align	2
 1434              		.set	.LANCHOR5,. + 0
 1435              		.type	vslSem, %object
 1436              		.size	vslSem, 12
 1437              	vslSem:
 1438 0000 00000000 		.space	12
 1438      00000000 
 1438      00000000 
 1439              		.section	.data.current_amplitude.7315,"aw",%progbits
 1440              		.align	2
 1441              		.set	.LANCHOR11,. + 0
 1442              		.type	current_amplitude.7315, %object
 1443              		.size	current_amplitude.7315, 4
 1444              	current_amplitude.7315:
 1445 0000 40000000 		.word	64
 1446              		.section	.bss.ctPlayPtr,"aw",%nobits
 1447              		.align	2
 1448              		.set	.LANCHOR3,. + 0
 1449              		.type	ctPlayPtr, %object
 1450              		.size	ctPlayPtr, 4
 1451              	ctPlayPtr:
 1452 0000 00000000 		.space	4
 1453              		.section	.bss.ctRepeat,"aw",%nobits
 1454              		.align	2
ARM GAS  /var/folders/pt/gxfsd_x53tx3h6kb8dkzftl80000gr/T//ccuaIX1l.s 			page 27


 1455              		.set	.LANCHOR8,. + 0
 1456              		.type	ctRepeat, %object
 1457              		.size	ctRepeat, 4
 1458              	ctRepeat:
 1459 0000 00000000 		.space	4
 1460              		.section	.bss.ctSetPtr,"aw",%nobits
 1461              		.align	2
 1462              		.set	.LANCHOR4,. + 0
 1463              		.type	ctSetPtr, %object
 1464              		.size	ctSetPtr, 4
 1465              	ctSetPtr:
 1466 0000 00000000 		.space	4
 1467              		.section	.rodata.str1.4,"aMS",%progbits,1
 1468              		.align	2
 1469              	.LC0:
 1470 0000 25642025 		.ascii	"%d %d %d\015\012\000"
 1470      64202564 
 1470      0D0A00
 1471 000b 00       		.space	1
 1472              	.LC1:
 1473 000c 61756469 		.ascii	"audio\000"
 1473      6F00
 1474 0012 0000     		.section	.bss.ctAmplitude,"aw",%nobits
 1475              		.align	2
 1476              		.set	.LANCHOR9,. + 0
 1477              		.type	ctAmplitude, %object
 1478              		.size	ctAmplitude, 4
 1479              	ctAmplitude:
 1480 0000 00000000 		.space	4
 1481              		.section	.bss.VSL_ctarray,"aw",%nobits
 1482              		.align	2
 1483              		.set	.LANCHOR6,. + 0
 1484              		.type	VSL_ctarray, %object
 1485              		.size	VSL_ctarray, 4
 1486              	VSL_ctarray:
 1487 0000 00000000 		.space	4
 1488              		.section	.bss.ctSize,"aw",%nobits
 1489              		.align	2
 1490              		.set	.LANCHOR7,. + 0
 1491              		.type	ctSize, %object
 1492              		.size	ctSize, 4
 1493              	ctSize:
 1494 0000 00000000 		.space	4
 1495              		.section	.data.sound_done,"aw",%progbits
 1496              		.align	2
 1497              		.set	.LANCHOR12,. + 0
 1498              		.type	sound_done, %object
 1499              		.size	sound_done, 4
 1500              	sound_done:
 1501 0000 00000000 		.word	sound_done
 1502              		.section	.bss.VSL_Counter,"aw",%nobits
 1503              		.align	2
 1504              		.set	.LANCHOR2,. + 0
 1505              		.type	VSL_Counter, %object
 1506              		.size	VSL_Counter, 4
 1507              	VSL_Counter:
 1508 0000 00000000 		.space	4
ARM GAS  /var/folders/pt/gxfsd_x53tx3h6kb8dkzftl80000gr/T//ccuaIX1l.s 			page 28


 1509              		.text
 1510              	.Letext0:
 1511              		.file 2 "/Users/programmer/ConVEX/yagarto-4.7.2/bin/../lib/gcc/arm-none-eabi/4.7.2/include/stddef.
 1512              		.file 3 "/Users/programmer/ConVEX/yagarto-4.7.2/bin/../lib/gcc/arm-none-eabi/4.7.2/../../../../arm
 1513              		.file 4 "convex/ChibiOS_2.6.2/os/ports/GCC/ARMCMx/chtypes.h"
 1514              		.file 5 "convex/ChibiOS_2.6.2/os/kernel/include/chlists.h"
 1515              		.file 6 "convex/ChibiOS_2.6.2/os/kernel/include/chthreads.h"
 1516              		.file 7 "convex/ChibiOS_2.6.2/os/ports/GCC/ARMCMx/chcore_v7m.h"
 1517              		.file 8 "convex/ChibiOS_2.6.2/os/kernel/include/chschd.h"
 1518              		.file 9 "convex/ChibiOS_2.6.2/os/kernel/include/chsem.h"
 1519              		.file 10 "convex/ChibiOS_2.6.2/os/kernel/include/chmtx.h"
 1520              		.file 11 "convex/ChibiOS_2.6.2/os/kernel/include/chevents.h"
 1521              		.file 12 "convex/ChibiOS_2.6.2/os/kernel/include/chmemcore.h"
 1522              		.file 13 "convex/ChibiOS_2.6.2/os/kernel/include/chheap.h"
 1523              		.file 14 "convex/ChibiOS_2.6.2/os/hal/platforms/STM32F1xx/stm32f10x.h"
 1524              		.file 15 "convex/ChibiOS_2.6.2/os/hal/platforms/STM32F1xx/stm32_dma.h"
 1525              		.file 16 "convex/convex/cortex/fw/vexdigital.h"
 1526              		.file 17 "convex/convex/cortex/fw/vexime.h"
 1527              		.file 18 "convex/convex/cortex/fw/vexaudio.h"
 1528              		.file 19 "convex/ChibiOS_2.6.2/os/ports/common/ARMCMx/CMSIS/include/core_cm3.h"
 1529              		.file 20 "convex/convex/cortex/fw/vexprintf.h"
 1530              		.file 21 "convex/ChibiOS_2.6.2/os/kernel/include/chdynamic.h"