ARM GAS  /var/folders/pt/gxfsd_x53tx3h6kb8dkzftl80000gr/T//cc6oOow0.s 			page 1


   1              		.syntax unified
   2              		.cpu cortex-m3
   3              		.fpu softvfp
   4              		.eabi_attribute 20, 1
   5              		.eabi_attribute 21, 1
   6              		.eabi_attribute 23, 3
   7              		.eabi_attribute 24, 1
   8              		.eabi_attribute 25, 1
   9              		.eabi_attribute 26, 1
  10              		.eabi_attribute 30, 2
  11              		.eabi_attribute 34, 1
  12              		.eabi_attribute 18, 4
  13              		.thumb
  14              		.file	"vexanalog.c"
  15              		.text
  16              	.Ltext0:
  17              		.cfi_sections	.debug_frame
  18              		.section	.text.vexAdcInit,"ax",%progbits
  19              		.align	2
  20              		.p2align 4,,15
  21              		.global	vexAdcInit
  22              		.thumb
  23              		.thumb_func
  24              		.type	vexAdcInit, %function
  25              	vexAdcInit:
  26              	.LFB63:
  27              		.file 1 "convex/convex/cortex/fw/vexanalog.c"
  28              		.loc 1 104 0
  29              		.cfi_startproc
  30              		@ args = 0, pretend = 0, frame = 0
  31              		@ frame_needed = 0, uses_anonymous_args = 0
  32 0000 10B5     		push	{r4, lr}
  33              	.LCFI0:
  34              		.cfi_def_cfa_offset 8
  35              		.cfi_offset 4, -8
  36              		.cfi_offset 14, -4
  37              		.loc 1 107 0
  38 0002 40F20004 		movw	r4, #:lower16:ADCD1
  39              		.loc 1 106 0
  40 0006 FFF7FEFF 		bl	adcInit
  41              	.LVL0:
  42              		.loc 1 107 0
  43 000a C0F20004 		movt	r4, #:upper16:ADCD1
  44 000e 40F20001 		movw	r1, #:lower16:.LANCHOR0
  45 0012 2046     		mov	r0, r4
  46 0014 C0F20001 		movt	r1, #:upper16:.LANCHOR0
  47 0018 FFF7FEFF 		bl	adcStart
  48              	.LVL1:
  49              		.loc 1 110 0
  50 001c 40F20001 		movw	r1, #:lower16:.LANCHOR1
  51 0020 40F20002 		movw	r2, #:lower16:.LANCHOR2
  52 0024 2046     		mov	r0, r4
  53 0026 C0F20001 		movt	r1, #:upper16:.LANCHOR1
  54 002a C0F20002 		movt	r2, #:upper16:.LANCHOR2
  55 002e 0123     		movs	r3, #1
  56              		.loc 1 111 0
  57 0030 BDE81040 		pop	{r4, lr}
ARM GAS  /var/folders/pt/gxfsd_x53tx3h6kb8dkzftl80000gr/T//cc6oOow0.s 			page 2


  58              		.loc 1 110 0
  59 0034 FFF7FEBF 		b	adcStartConversion
  60              	.LVL2:
  61              		.cfi_endproc
  62              	.LFE63:
  63              		.size	vexAdcInit, .-vexAdcInit
  64 0038 AFF30080 		.section	.text.vexAdcGet,"ax",%progbits
  64      AFF30080 
  65              		.align	2
  66              		.p2align 4,,15
  67              		.global	vexAdcGet
  68              		.thumb
  69              		.thumb_func
  70              		.type	vexAdcGet, %function
  71              	vexAdcGet:
  72              	.LFB64:
  73              		.loc 1 121 0
  74              		.cfi_startproc
  75              		@ args = 0, pretend = 0, frame = 0
  76              		@ frame_needed = 0, uses_anonymous_args = 0
  77              		@ link register save eliminated.
  78              	.LVL3:
  79              		.loc 1 122 0
  80 0000 83B2     		uxth	r3, r0
  81 0002 072B     		cmp	r3, #7
  82              		.loc 1 125 0
  83 0004 96BF     		itet	ls
  84 0006 034B     		ldrls	r3, .L5
  85              		.loc 1 123 0
  86 0008 4FF6FF70 		movwhi	r0, #65535
  87              	.LVL4:
  88              		.loc 1 125 0
  89 000c 33F81000 		ldrhls	r0, [r3, r0, lsl #1]
  90              		.loc 1 126 0
  91 0010 00B2     		sxth	r0, r0
  92 0012 7047     		bx	lr
  93              	.L6:
  94              		.align	2
  95              	.L5:
  96 0014 00000000 		.word	.LANCHOR2
  97              		.cfi_endproc
  98              	.LFE64:
  99              		.size	vexAdcGet, .-vexAdcGet
 100 0018 AFF30080 		.section	.text.vexAdcDebug,"ax",%progbits
 100      AFF30080 
 101              		.align	2
 102              		.p2align 4,,15
 103              		.global	vexAdcDebug
 104              		.thumb
 105              		.thumb_func
 106              		.type	vexAdcDebug, %function
 107              	vexAdcDebug:
 108              	.LFB65:
 109              		.loc 1 137 0
 110              		.cfi_startproc
 111              		@ args = 0, pretend = 0, frame = 0
 112              		@ frame_needed = 0, uses_anonymous_args = 0
ARM GAS  /var/folders/pt/gxfsd_x53tx3h6kb8dkzftl80000gr/T//cc6oOow0.s 			page 3


 113              	.LVL5:
 114 0000 70B5     		push	{r4, r5, r6, lr}
 115              	.LCFI1:
 116              		.cfi_def_cfa_offset 16
 117              		.cfi_offset 4, -16
 118              		.cfi_offset 5, -12
 119              		.cfi_offset 6, -8
 120              		.cfi_offset 14, -4
 121              		.loc 1 136 0
 122 0002 074D     		ldr	r5, .L11
 123              		.loc 1 137 0
 124 0004 0646     		mov	r6, r0
 125              		.loc 1 143 0
 126 0006 0024     		movs	r4, #0
 127              	.LVL6:
 128              	.L8:
 129              		.loc 1 144 0 discriminator 2
 130 0008 2246     		mov	r2, r4
 131 000a 3046     		mov	r0, r6
 132 000c 0549     		ldr	r1, .L11+4
 133 000e 35F9023F 		ldrsh	r3, [r5, #2]!
 134              		.loc 1 143 0 discriminator 2
 135 0012 0134     		adds	r4, r4, #1
 136              	.LVL7:
 137              		.loc 1 144 0 discriminator 2
 138 0014 FFF7FEFF 		bl	vex_chprintf
 139              	.LVL8:
 140              		.loc 1 143 0 discriminator 2
 141 0018 082C     		cmp	r4, #8
 142 001a F5D1     		bne	.L8
 143              		.loc 1 145 0
 144 001c 70BD     		pop	{r4, r5, r6, pc}
 145              	.L12:
 146 001e 00BF     		.align	2
 147              	.L11:
 148 0020 FEFFFFFF 		.word	.LANCHOR2-2
 149 0024 00000000 		.word	.LC0
 150              		.cfi_endproc
 151              	.LFE65:
 152              		.size	vexAdcDebug, .-vexAdcDebug
 153 0028 AFF30080 		.section	.bss.adccfg,"aw",%nobits
 153      AFF30080 
 154              		.align	2
 155              		.set	.LANCHOR0,. + 0
 156              		.type	adccfg, %object
 157              		.size	adccfg, 4
 158              	adccfg:
 159 0000 00000000 		.space	4
 160              		.section	.rodata.str1.4,"aMS",%progbits,1
 161              		.align	2
 162              	.LC0:
 163 0000 6368616E 		.ascii	"channel %d = %4d\015\012\000"
 163      6E656C20 
 163      2564203D 
 163      20253464 
 163      0D0A00
 164 0013 00       		.section	.data.adccg,"aw",%progbits
ARM GAS  /var/folders/pt/gxfsd_x53tx3h6kb8dkzftl80000gr/T//cc6oOow0.s 			page 4


 165              		.align	2
 166              		.set	.LANCHOR1,. + 0
 167              		.type	adccg, %object
 168              		.size	adccg, 40
 169              	adccg:
 170 0000 01       		.byte	1
 171 0001 00       		.space	1
 172 0002 0800     		.short	8
 173 0004 00000000 		.word	0
 174 0008 00000000 		.word	0
 175 000c 00000000 		.word	0
 176 0010 00000000 		.word	0
 177 0014 6D0B0000 		.word	2925
 178 0018 6D0B0000 		.word	2925
 179 001c 00007000 		.word	7340032
 180 0020 6A010000 		.word	362
 181 0024 2088C11A 		.word	448890912
 182              		.section	.bss.samples_buf,"aw",%nobits
 183              		.align	2
 184              		.set	.LANCHOR2,. + 0
 185              		.type	samples_buf, %object
 186              		.size	samples_buf, 16
 187              	samples_buf:
 188 0000 00000000 		.space	16
 188      00000000 
 188      00000000 
 188      00000000 
 189              		.text
 190              	.Letext0:
 191              		.file 2 "/Users/programmer/ConVEX/yagarto-4.7.2/bin/../lib/gcc/arm-none-eabi/4.7.2/include/stddef.
 192              		.file 3 "/Users/programmer/ConVEX/yagarto-4.7.2/bin/../lib/gcc/arm-none-eabi/4.7.2/../../../../arm
 193              		.file 4 "convex/ChibiOS_2.6.2/os/ports/GCC/ARMCMx/chtypes.h"
 194              		.file 5 "convex/ChibiOS_2.6.2/os/kernel/include/chlists.h"
 195              		.file 6 "convex/ChibiOS_2.6.2/os/kernel/include/chthreads.h"
 196              		.file 7 "convex/ChibiOS_2.6.2/os/ports/GCC/ARMCMx/chcore_v7m.h"
 197              		.file 8 "convex/ChibiOS_2.6.2/os/kernel/include/chmtx.h"
 198              		.file 9 "convex/ChibiOS_2.6.2/os/kernel/include/chstreams.h"
 199              		.file 10 "convex/ChibiOS_2.6.2/os/hal/platforms/STM32F1xx/stm32f10x.h"
 200              		.file 11 "convex/ChibiOS_2.6.2/os/hal/platforms/STM32F1xx/stm32_dma.h"
 201              		.file 12 "convex/ChibiOS_2.6.2/os/hal/include/adc.h"
 202              		.file 13 "convex/ChibiOS_2.6.2/os/hal/platforms/STM32F1xx/adc_lld.h"
 203              		.file 14 "convex/convex/cortex/fw/vexcompat.h"
 204              		.file 15 "convex/convex/cortex/fw/vexdigital.h"
 205              		.file 16 "convex/convex/cortex/fw/vexime.h"
 206              		.file 17 "convex/ChibiOS_2.6.2/os/ports/common/ARMCMx/CMSIS/include/core_cm3.h"
 207              		.file 18 "convex/convex/cortex/fw/vexprintf.h"