ARM GAS  /var/folders/pt/gxfsd_x53tx3h6kb8dkzftl80000gr/T//cc6oOow0.s 			page 1


   1              		.syntax unified
   2              		.cpu cortex-m3
   3              		.fpu softvfp
   4              		.eabi_attribute 20, 1
   5              		.eabi_attribute 21, 1
   6              		.eabi_attribute 23, 3
   7              		.eabi_attribute 24, 1
   8              		.eabi_attribute 25, 1
   9              		.eabi_attribute 26, 1
  10              		.eabi_attribute 30, 2
  11              		.eabi_attribute 34, 1
  12              		.eabi_attribute 18, 4
  13              		.thumb
  14              		.file	"vexanalog.c"
  15              		.text
  16              	.Ltext0:
  17              		.cfi_sections	.debug_frame
  18              		.section	.text.vexAdcInit,"ax",%progbits
  19              		.align	2
  20              		.p2align 4,,15
  21              		.global	vexAdcInit
  22              		.thumb
  23              		.thumb_func
  24              		.type	vexAdcInit, %function
  25              	vexAdcInit:
  26              	.LFB63:
  27              		.file 1 "convex/convex/cortex/fw/vexanalog.c"
  28              		.loc 1 104 0
  29              		.cfi_startproc
  30              		@ args = 0, pretend = 0, frame = 0
  31              		@ frame_needed = 0, uses_anonymous_args = 0
  32 0000 10B5     		push	{r4, lr}
  33              	.LCFI0:
  34              		.cfi_def_cfa_offset 8
  35              		.cfi_offset 4, -8
  36              		.cfi_offset 14, -4
  37              		.loc 1 107 0
  38 0002 40F20004 		movw	r4, #:lower16:ADCD1
  39              		.loc 1 106 0
  40 0006 FFF7FEFF 		bl	adcInit
  41              	.LVL0:
  42              		.loc 1 107 0
  43 000a C0F20004 		movt	r4, #:upper16:ADCD1
  44 000e 40F20001 		movw	r1, #:lower16:.LANCHOR0
  45 0012 2046     		mov	r0, r4
  46 0014 C0F20001 		movt	r1, #:upper16:.LANCHOR0
  47 0018 FFF7FEFF 		bl	adcStart
  48              	.LVL1:
  49              		.loc 1 110 0
  50 001c 40F20001 		movw	r1, #:lower16:.LANCHOR1
  51 0020 40F20002 		movw	r2, #:lower16:.LANCHOR2
  52 0024 2046     		mov	r0, r4
  53 0026 C0F20001 		movt	r1, #:upper16:.LANCHOR1
  54 002a C0F20002 		movt	r2, #:upper16:.LANCHOR2
  55 002e 0123     		movs	r3, #1
  56              		.loc 1 111 0
  57 0030 BDE81040 		pop	{r4, lr}
ARM GAS  /var/folders/pt/gxfsd_x53tx3h6kb8dkzftl80000gr/T//cc6oOow0.s 			page 2


  58              		.loc 1 110 0
  59 0034 FFF7FEBF 		b	adcStartConversion
  60              	.LVL2:
  61              		.cfi_endproc
  62              	.LFE63:
  63              		.size	vexAdcInit, .-vexAdcInit
  64 0038 AFF30080 		.section	.text.vexAdcGet,"ax",%progbits
  64      AFF30080 
  65              		.align	2
  66              		.p2align 4,,15
  67              		.global	vexAdcGet
  68              		.thumb
  69              		.thumb_func
  70              		.type	vexAdcGet, %function
  71              	vexAdcGet:
  72              	.LFB64:
  73              		.loc 1 121 0
  74              		.cfi_startproc
  75              		@ args = 0, pretend = 0, frame = 0
  76              		@ frame_needed = 0, uses_anonymous_args = 0
  77              		@ link register save eliminated.
  78              	.LVL3:
  79              		.loc 1 122 0
  80 0000 83B2     		uxth	r3, r0
  81 0002 072B     		cmp	r3, #7
  82              		.loc 1 125 0
  83 0004 96BF     		itet	ls
  84 0006 034B     		ldrls	r3, .L5
  85              		.loc 1 123 0
  86 0008 4FF6FF70 		movwhi	r0, #65535
  87              	.LVL4:
  88              		.loc 1 125 0
  89 000c 33F81000 		ldrhls	r0, [r3, r0, lsl #1]
  90              		.loc 1 126 0
  91 0010 00B2     		sxth	r0, r0
  92 0012 7047     		bx	lr
  93              	.L6:
  94              		.align	2
  95              	.L5:
  96 0014 00000000 		.word	.LANCHOR2
  97              		.cfi_endproc
  98              	.LFE64:
  99              		.size	vexAdcGet, .-vexAdcGet
 100 0018 AFF30080 		.section	.text.vexAdcDebug,"ax",%progbits
 100      AFF30080 
 101              		.align	2
 102              		.p2align 4,,15
 103              		.global	vexAdcDebug
 104              		.thumb
 105              		.thumb_func
 106              		.type	vexAdcDebug, %function
 107              	vexAdcDebug:
 108              	.LFB65:
 109              		.loc 1 137 0
 110              		.cfi_startproc
 111              		@ args = 0, pretend = 0, frame = 0
 112              		@ frame_needed = 0, uses_anonymous_args = 0
ARM GAS  /var/folders/pt/gxfsd_x53tx3h6kb8dkzftl80000gr/T//cc6oOow0.s 			page 3


 113              	.LVL5:
 114 0000 70B5     		push	{r4, r5, r6, lr}
 115              	.LCFI1:
 116              		.cfi_def_cfa_offset 16
 117              		.cfi_offset 4, -16
 118              		.cfi_offset 5, -12
 119              		.cfi_offset 6, -8
 120              		.cfi_offset 14, -4
 121              		.loc 1 136 0
 122 0002 074D     		ldr	r5, .L11
 123              		.loc 1 137 0
 124 0004 0646     		mov	r6, r0
 125              		.loc 1 143 0
 126 0006 0024     		movs	r4, #0
 127              	.LVL6:
 128              	.L8:
 129              		.loc 1 144 0 discriminator 2
 130 0008 2246     		mov	r2, r4
 131 000a 3046     		mov	r0, r6
 132 000c 0549     		ldr	r1, .L11+4
 133 000e 35F9023F 		ldrsh	r3, [r5, #2]!
 134              		.loc 1 143 0 discriminator 2
 135 0012 0134     		adds	r4, r4, #1
 136              	.LVL7:
 137              		.loc 1 144 0 discriminator 2
 138 0014 FFF7FEFF 		bl	vex_chprintf
 139              	.LVL8:
 140              		.loc 1 143 0 discriminator 2
 141 0018 082C     		cmp	r4, #8
 142 001a F5D1     		bne	.L8
 143              		.loc 1 145 0
 144 001c 70BD     		pop	{r4, r5, r6, pc}
 145              	.L12:
 146 001e 00BF     		.align	2
 147              	.L11:
 148 0020 FEFFFFFF 		.word	.LANCHOR2-2
 149 0024 00000000 		.word	.LC0
 150              		.cfi_endproc
 151              	.LFE65:
 152              		.size	vexAdcDebug, .-vexAdcDebug
 153 0028 AFF30080 		.section	.bss.adccfg,"aw",%nobits
 153      AFF30080 
 154              		.align	2
 155              		.set	.LANCHOR0,. + 0
 156              		.type	adccfg, %object
 157              		.size	adccfg, 4
 158              	adccfg:
 159 0000 00000000 		.space	4
 160              		.section	.rodata.str1.4,"aMS",%progbits,1
 161              		.align	2
 162              	.LC0:
 163 0000 6368616E 		.ascii	"channel %d = %4d\015\012\000"
 163      6E656C20 
 163      2564203D 
 163      20253464 
 163      0D0A00
 164 0013 00       		.section	.data.adccg,"aw",%progbits
ARM GAS  /var/folders/pt/gxfsd_x53tx3h6kb8dkzftl80000gr/T//cc6oOow0.s 			page 4


 165              		.align	2
 166              		.set	.LANCHOR1,. + 0
 167              		.type	adccg, %object
 168              		.size	adccg, 40
 169              	adccg:
 170 0000 01       		.byte	1
 171 0001 00       		.space	1
 172 0002 0800     		.short	8
 173 0004 00000000 		.word	0
 174 0008 00000000 		.word	0
 175 000c 00000000 		.word	0
 176 0010 00000000 		.word	0
 177 0014 6D0B0000 		.word	2925
 178 0018 6D0B0000 		.word	2925
 179 001c 00007000 		.word	7340032
 180 0020 6A010000 		.word	362
 181 0024 2088C11A 		.word	448890912
 182              		.section	.bss.samples_buf,"aw",%nobits
 183              		.align	2
 184              		.set	.LANCHOR2,. + 0
 185              		.type	samples_buf, %object
 186              		.size	samples_buf, 16
 187              	samples_buf:
 188 0000 00000000 		.space	16
 188      00000000 
 188      00000000 
 188      00000000 
 189              		.text
 190              	.Letext0:
 191              		.file 2 "/Users/programmer/ConVEX/yagarto-4.7.2/bin/../lib/gcc/arm-none-eabi/4.7.2/include/stddef.
 192              		.file 3 "/Users/programmer/ConVEX/yagarto-4.7.2/bin/../lib/gcc/arm-none-eabi/4.7.2/../../../../arm
 193              		.file 4 "convex/ChibiOS_2.6.2/os/ports/GCC/ARMCMx/chtypes.h"
 194              		.file 5 "convex/ChibiOS_2.6.2/os/kernel/include/chlists.h"
 195              		.file 6 "convex/ChibiOS_2.6.2/os/kernel/include/chthreads.h"
 196              		.file 7 "convex/ChibiOS_2.6.2/os/ports/GCC/ARMCMx/chcore_v7m.h"
 197              		.file 8 "convex/ChibiOS_2.6.2/os/kernel/include/chmtx.h"
 198              		.file 9 "convex/ChibiOS_2.6.2/os/kernel/include/chstreams.h"
 199              		.file 10 "convex/ChibiOS_2.6.2/os/hal/platforms/STM32F1xx/stm32f10x.h"
 200              		.file 11 "convex/ChibiOS_2.6.2/os/hal/platforms/STM32F1xx/stm32_dma.h"
 201              		.file 12 "convex/ChibiOS_2.6.2/os/hal/include/adc.h"
 202              		.file 13 "convex/ChibiOS_2.6.2/os/hal/platforms/STM32F1xx/adc_lld.h"
 203              		.file 14 "convex/convex/cortex/fw/vexcompat.h"
 204              		.file 15 "convex/convex/cortex/fw/vexdigital.h"
 205              		.file 16 "convex/convex/cortex/fw/vexime.h"
 206              		.file 17 "convex/ChibiOS_2.6.2/os/ports/common/ARMCMx/CMSIS/include/core_cm3.h"
 207              		.file 18 "convex/convex/cortex/fw/vexprintf.h"
 208              		.section	.debug_info,"",%progbits
 209              	.Ldebug_info0:
 210 0000 080C0000 		.4byte	0xc08
 211 0004 0200     		.2byte	0x2
 212 0006 00000000 		.4byte	.Ldebug_abbrev0
 213 000a 04       		.byte	0x4
 214 000b 01       		.uleb128 0x1
 215 000c C7030000 		.4byte	.LASF163
 216 0010 01       		.byte	0x1
 217 0011 21010000 		.4byte	.LASF164
 218 0015 69030000 		.4byte	.LASF165
ARM GAS  /var/folders/pt/gxfsd_x53tx3h6kb8dkzftl80000gr/T//cc6oOow0.s 			page 5


 219 0019 00000000 		.4byte	.Ldebug_ranges0+0
 220 001d 00000000 		.4byte	0
 221 0021 00000000 		.4byte	0
 222 0025 00000000 		.4byte	.Ldebug_line0
 223 0029 02       		.uleb128 0x2
 224 002a 04       		.byte	0x4
 225 002b 05       		.byte	0x5
 226 002c 696E7400 		.ascii	"int\000"
 227 0030 03       		.uleb128 0x3
 228 0031 00000000 		.4byte	.LASF2
 229 0035 02       		.byte	0x2
 230 0036 D5       		.byte	0xd5
 231 0037 3B000000 		.4byte	0x3b
 232 003b 04       		.uleb128 0x4
 233 003c 04       		.byte	0x4
 234 003d 07       		.byte	0x7
 235 003e 1D020000 		.4byte	.LASF0
 236 0042 04       		.uleb128 0x4
 237 0043 01       		.byte	0x1
 238 0044 06       		.byte	0x6
 239 0045 C1000000 		.4byte	.LASF1
 240 0049 03       		.uleb128 0x3
 241 004a 3D060000 		.4byte	.LASF3
 242 004e 03       		.byte	0x3
 243 004f 2A       		.byte	0x2a
 244 0050 54000000 		.4byte	0x54
 245 0054 04       		.uleb128 0x4
 246 0055 01       		.byte	0x1
 247 0056 08       		.byte	0x8
 248 0057 34040000 		.4byte	.LASF4
 249 005b 03       		.uleb128 0x3
 250 005c AB000000 		.4byte	.LASF5
 251 0060 03       		.byte	0x3
 252 0061 35       		.byte	0x35
 253 0062 66000000 		.4byte	0x66
 254 0066 04       		.uleb128 0x4
 255 0067 02       		.byte	0x2
 256 0068 05       		.byte	0x5
 257 0069 4C040000 		.4byte	.LASF6
 258 006d 03       		.uleb128 0x3
 259 006e 79010000 		.4byte	.LASF7
 260 0072 03       		.byte	0x3
 261 0073 36       		.byte	0x36
 262 0074 78000000 		.4byte	0x78
 263 0078 04       		.uleb128 0x4
 264 0079 02       		.byte	0x2
 265 007a 07       		.byte	0x7
 266 007b 69020000 		.4byte	.LASF8
 267 007f 03       		.uleb128 0x3
 268 0080 2C040000 		.4byte	.LASF9
 269 0084 03       		.byte	0x3
 270 0085 4F       		.byte	0x4f
 271 0086 8A000000 		.4byte	0x8a
 272 008a 04       		.uleb128 0x4
 273 008b 04       		.byte	0x4
 274 008c 05       		.byte	0x5
 275 008d 05010000 		.4byte	.LASF10
ARM GAS  /var/folders/pt/gxfsd_x53tx3h6kb8dkzftl80000gr/T//cc6oOow0.s 			page 6


 276 0091 03       		.uleb128 0x3
 277 0092 C8040000 		.4byte	.LASF11
 278 0096 03       		.byte	0x3
 279 0097 50       		.byte	0x50
 280 0098 9C000000 		.4byte	0x9c
 281 009c 04       		.uleb128 0x4
 282 009d 04       		.byte	0x4
 283 009e 07       		.byte	0x7
 284 009f EF040000 		.4byte	.LASF12
 285 00a3 04       		.uleb128 0x4
 286 00a4 08       		.byte	0x8
 287 00a5 05       		.byte	0x5
 288 00a6 B3000000 		.4byte	.LASF13
 289 00aa 04       		.uleb128 0x4
 290 00ab 08       		.byte	0x8
 291 00ac 07       		.byte	0x7
 292 00ad 60000000 		.4byte	.LASF14
 293 00b1 03       		.uleb128 0x3
 294 00b2 D5000000 		.4byte	.LASF15
 295 00b6 04       		.byte	0x4
 296 00b7 2B       		.byte	0x2b
 297 00b8 BC000000 		.4byte	0xbc
 298 00bc 04       		.uleb128 0x4
 299 00bd 01       		.byte	0x1
 300 00be 02       		.byte	0x2
 301 00bf 26040000 		.4byte	.LASF16
 302 00c3 03       		.uleb128 0x3
 303 00c4 91060000 		.4byte	.LASF17
 304 00c8 04       		.byte	0x4
 305 00c9 2C       		.byte	0x2c
 306 00ca 49000000 		.4byte	0x49
 307 00ce 03       		.uleb128 0x3
 308 00cf 58010000 		.4byte	.LASF18
 309 00d3 04       		.byte	0x4
 310 00d4 2D       		.byte	0x2d
 311 00d5 49000000 		.4byte	0x49
 312 00d9 03       		.uleb128 0x3
 313 00da E1040000 		.4byte	.LASF19
 314 00de 04       		.byte	0x4
 315 00df 2E       		.byte	0x2e
 316 00e0 49000000 		.4byte	0x49
 317 00e4 03       		.uleb128 0x3
 318 00e5 13020000 		.4byte	.LASF20
 319 00e9 04       		.byte	0x4
 320 00ea 2F       		.byte	0x2f
 321 00eb 49000000 		.4byte	0x49
 322 00ef 03       		.uleb128 0x3
 323 00f0 18040000 		.4byte	.LASF21
 324 00f4 04       		.byte	0x4
 325 00f5 30       		.byte	0x30
 326 00f6 91000000 		.4byte	0x91
 327 00fa 03       		.uleb128 0x3
 328 00fb 8C020000 		.4byte	.LASF22
 329 00ff 04       		.byte	0x4
 330 0100 31       		.byte	0x31
 331 0101 7F000000 		.4byte	0x7f
 332 0105 03       		.uleb128 0x3
ARM GAS  /var/folders/pt/gxfsd_x53tx3h6kb8dkzftl80000gr/T//cc6oOow0.s 			page 7


 333 0106 1C030000 		.4byte	.LASF23
 334 010a 04       		.byte	0x4
 335 010b 33       		.byte	0x33
 336 010c 91000000 		.4byte	0x91
 337 0110 03       		.uleb128 0x3
 338 0111 A2050000 		.4byte	.LASF24
 339 0115 04       		.byte	0x4
 340 0116 35       		.byte	0x35
 341 0117 91000000 		.4byte	0x91
 342 011b 03       		.uleb128 0x3
 343 011c F7010000 		.4byte	.LASF25
 344 0120 05       		.byte	0x5
 345 0121 2A       		.byte	0x2a
 346 0122 26010000 		.4byte	0x126
 347 0126 05       		.uleb128 0x5
 348 0127 F7010000 		.4byte	.LASF25
 349 012b 48       		.byte	0x48
 350 012c 06       		.byte	0x6
 351 012d 5E       		.byte	0x5e
 352 012e 4B020000 		.4byte	0x24b
 353 0132 06       		.uleb128 0x6
 354 0133 78040000 		.4byte	.LASF26
 355 0137 06       		.byte	0x6
 356 0138 5F       		.byte	0x5f
 357 0139 70020000 		.4byte	0x270
 358 013d 02       		.byte	0x2
 359 013e 23       		.byte	0x23
 360 013f 00       		.uleb128 0
 361 0140 06       		.uleb128 0x6
 362 0141 FE030000 		.4byte	.LASF27
 363 0145 06       		.byte	0x6
 364 0146 61       		.byte	0x61
 365 0147 70020000 		.4byte	0x270
 366 014b 02       		.byte	0x2
 367 014c 23       		.byte	0x23
 368 014d 04       		.uleb128 0x4
 369 014e 06       		.uleb128 0x6
 370 014f 9F000000 		.4byte	.LASF28
 371 0153 06       		.byte	0x6
 372 0154 63       		.byte	0x63
 373 0155 EF000000 		.4byte	0xef
 374 0159 02       		.byte	0x2
 375 015a 23       		.byte	0x23
 376 015b 08       		.uleb128 0x8
 377 015c 06       		.uleb128 0x6
 378 015d AC060000 		.4byte	.LASF29
 379 0161 06       		.byte	0x6
 380 0162 64       		.byte	0x64
 381 0163 3E030000 		.4byte	0x33e
 382 0167 02       		.byte	0x2
 383 0168 23       		.byte	0x23
 384 0169 0C       		.uleb128 0xc
 385 016a 06       		.uleb128 0x6
 386 016b 95010000 		.4byte	.LASF30
 387 016f 06       		.byte	0x6
 388 0170 66       		.byte	0x66
 389 0171 70020000 		.4byte	0x270
ARM GAS  /var/folders/pt/gxfsd_x53tx3h6kb8dkzftl80000gr/T//cc6oOow0.s 			page 8


 390 0175 02       		.byte	0x2
 391 0176 23       		.byte	0x23
 392 0177 10       		.uleb128 0x10
 393 0178 06       		.uleb128 0x6
 394 0179 9F030000 		.4byte	.LASF31
 395 017d 06       		.byte	0x6
 396 017e 67       		.byte	0x67
 397 017f 70020000 		.4byte	0x270
 398 0183 02       		.byte	0x2
 399 0184 23       		.byte	0x23
 400 0185 14       		.uleb128 0x14
 401 0186 06       		.uleb128 0x6
 402 0187 01060000 		.4byte	.LASF32
 403 018b 06       		.byte	0x6
 404 018c 6E       		.byte	0x6e
 405 018d EF030000 		.4byte	0x3ef
 406 0191 02       		.byte	0x2
 407 0192 23       		.byte	0x23
 408 0193 18       		.uleb128 0x18
 409 0194 06       		.uleb128 0x6
 410 0195 56040000 		.4byte	.LASF33
 411 0199 06       		.byte	0x6
 412 019a 79       		.byte	0x79
 413 019b CE000000 		.4byte	0xce
 414 019f 02       		.byte	0x2
 415 01a0 23       		.byte	0x23
 416 01a1 1C       		.uleb128 0x1c
 417 01a2 06       		.uleb128 0x6
 418 01a3 97040000 		.4byte	.LASF34
 419 01a7 06       		.byte	0x6
 420 01a8 7D       		.byte	0x7d
 421 01a9 C3000000 		.4byte	0xc3
 422 01ad 02       		.byte	0x2
 423 01ae 23       		.byte	0x23
 424 01af 1D       		.uleb128 0x1d
 425 01b0 06       		.uleb128 0x6
 426 01b1 08060000 		.4byte	.LASF35
 427 01b5 06       		.byte	0x6
 428 01b6 82       		.byte	0x82
 429 01b7 D9000000 		.4byte	0xd9
 430 01bb 02       		.byte	0x2
 431 01bc 23       		.byte	0x23
 432 01bd 1E       		.uleb128 0x1e
 433 01be 06       		.uleb128 0x6
 434 01bf 5E040000 		.4byte	.LASF36
 435 01c3 06       		.byte	0x6
 436 01c4 88       		.byte	0x88
 437 01c5 E4000000 		.4byte	0xe4
 438 01c9 02       		.byte	0x2
 439 01ca 23       		.byte	0x23
 440 01cb 1F       		.uleb128 0x1f
 441 01cc 06       		.uleb128 0x6
 442 01cd 82010000 		.4byte	.LASF37
 443 01d1 06       		.byte	0x6
 444 01d2 8F       		.byte	0x8f
 445 01d3 6D030000 		.4byte	0x36d
 446 01d7 02       		.byte	0x2
ARM GAS  /var/folders/pt/gxfsd_x53tx3h6kb8dkzftl80000gr/T//cc6oOow0.s 			page 9


 447 01d8 23       		.byte	0x23
 448 01d9 20       		.uleb128 0x20
 449 01da 07       		.uleb128 0x7
 450 01db 705F7500 		.ascii	"p_u\000"
 451 01df 06       		.byte	0x6
 452 01e0 B4       		.byte	0xb4
 453 01e1 BA030000 		.4byte	0x3ba
 454 01e5 02       		.byte	0x2
 455 01e6 23       		.byte	0x23
 456 01e7 24       		.uleb128 0x24
 457 01e8 06       		.uleb128 0x6
 458 01e9 B2060000 		.4byte	.LASF38
 459 01ed 06       		.byte	0x6
 460 01ee B9       		.byte	0xb9
 461 01ef 98020000 		.4byte	0x298
 462 01f3 02       		.byte	0x2
 463 01f4 23       		.byte	0x23
 464 01f5 28       		.uleb128 0x28
 465 01f6 06       		.uleb128 0x6
 466 01f7 2F020000 		.4byte	.LASF39
 467 01fb 06       		.byte	0x6
 468 01fc BF       		.byte	0xbf
 469 01fd 76020000 		.4byte	0x276
 470 0201 02       		.byte	0x2
 471 0202 23       		.byte	0x23
 472 0203 2C       		.uleb128 0x2c
 473 0204 06       		.uleb128 0x6
 474 0205 99060000 		.4byte	.LASF40
 475 0209 06       		.byte	0x6
 476 020a C3       		.byte	0xc3
 477 020b FA000000 		.4byte	0xfa
 478 020f 02       		.byte	0x2
 479 0210 23       		.byte	0x23
 480 0211 34       		.uleb128 0x34
 481 0212 06       		.uleb128 0x6
 482 0213 B8040000 		.4byte	.LASF41
 483 0217 06       		.byte	0x6
 484 0218 C9       		.byte	0xc9
 485 0219 05010000 		.4byte	0x105
 486 021d 02       		.byte	0x2
 487 021e 23       		.byte	0x23
 488 021f 38       		.uleb128 0x38
 489 0220 06       		.uleb128 0x6
 490 0221 42040000 		.4byte	.LASF42
 491 0225 06       		.byte	0x6
 492 0226 D0       		.byte	0xd0
 493 0227 01040000 		.4byte	0x401
 494 022b 02       		.byte	0x2
 495 022c 23       		.byte	0x23
 496 022d 3C       		.uleb128 0x3c
 497 022e 06       		.uleb128 0x6
 498 022f AC050000 		.4byte	.LASF43
 499 0233 06       		.byte	0x6
 500 0234 D4       		.byte	0xd4
 501 0235 EF000000 		.4byte	0xef
 502 0239 02       		.byte	0x2
 503 023a 23       		.byte	0x23
ARM GAS  /var/folders/pt/gxfsd_x53tx3h6kb8dkzftl80000gr/T//cc6oOow0.s 			page 10


 504 023b 40       		.uleb128 0x40
 505 023c 06       		.uleb128 0x6
 506 023d CD000000 		.4byte	.LASF44
 507 0241 06       		.byte	0x6
 508 0242 DA       		.byte	0xda
 509 0243 AE020000 		.4byte	0x2ae
 510 0247 02       		.byte	0x2
 511 0248 23       		.byte	0x23
 512 0249 44       		.uleb128 0x44
 513 024a 00       		.byte	0
 514 024b 08       		.uleb128 0x8
 515 024c 08       		.byte	0x8
 516 024d 05       		.byte	0x5
 517 024e 61       		.byte	0x61
 518 024f 70020000 		.4byte	0x270
 519 0253 06       		.uleb128 0x6
 520 0254 78040000 		.4byte	.LASF26
 521 0258 05       		.byte	0x5
 522 0259 62       		.byte	0x62
 523 025a 70020000 		.4byte	0x270
 524 025e 02       		.byte	0x2
 525 025f 23       		.byte	0x23
 526 0260 00       		.uleb128 0
 527 0261 06       		.uleb128 0x6
 528 0262 FE030000 		.4byte	.LASF27
 529 0266 05       		.byte	0x5
 530 0267 64       		.byte	0x64
 531 0268 70020000 		.4byte	0x270
 532 026c 02       		.byte	0x2
 533 026d 23       		.byte	0x23
 534 026e 04       		.uleb128 0x4
 535 026f 00       		.byte	0
 536 0270 09       		.uleb128 0x9
 537 0271 04       		.byte	0x4
 538 0272 1B010000 		.4byte	0x11b
 539 0276 03       		.uleb128 0x3
 540 0277 A7030000 		.4byte	.LASF45
 541 027b 05       		.byte	0x5
 542 027c 66       		.byte	0x66
 543 027d 4B020000 		.4byte	0x24b
 544 0281 08       		.uleb128 0x8
 545 0282 04       		.byte	0x4
 546 0283 05       		.byte	0x5
 547 0284 6B       		.byte	0x6b
 548 0285 98020000 		.4byte	0x298
 549 0289 06       		.uleb128 0x6
 550 028a 78040000 		.4byte	.LASF26
 551 028e 05       		.byte	0x5
 552 028f 6D       		.byte	0x6d
 553 0290 70020000 		.4byte	0x270
 554 0294 02       		.byte	0x2
 555 0295 23       		.byte	0x23
 556 0296 00       		.uleb128 0
 557 0297 00       		.byte	0
 558 0298 03       		.uleb128 0x3
 559 0299 10030000 		.4byte	.LASF46
 560 029d 05       		.byte	0x5
ARM GAS  /var/folders/pt/gxfsd_x53tx3h6kb8dkzftl80000gr/T//cc6oOow0.s 			page 11


 561 029e 70       		.byte	0x70
 562 029f 81020000 		.4byte	0x281
 563 02a3 03       		.uleb128 0x3
 564 02a4 D4010000 		.4byte	.LASF47
 565 02a8 07       		.byte	0x7
 566 02a9 E5       		.byte	0xe5
 567 02aa AE020000 		.4byte	0x2ae
 568 02ae 0A       		.uleb128 0xa
 569 02af 04       		.byte	0x4
 570 02b0 0B       		.uleb128 0xb
 571 02b1 E7050000 		.4byte	.LASF48
 572 02b5 24       		.byte	0x24
 573 02b6 07       		.byte	0x7
 574 02b7 0C01     		.2byte	0x10c
 575 02b9 3E030000 		.4byte	0x33e
 576 02bd 0C       		.uleb128 0xc
 577 02be 723400   		.ascii	"r4\000"
 578 02c1 07       		.byte	0x7
 579 02c2 1F01     		.2byte	0x11f
 580 02c4 A3020000 		.4byte	0x2a3
 581 02c8 02       		.byte	0x2
 582 02c9 23       		.byte	0x23
 583 02ca 00       		.uleb128 0
 584 02cb 0C       		.uleb128 0xc
 585 02cc 723500   		.ascii	"r5\000"
 586 02cf 07       		.byte	0x7
 587 02d0 2001     		.2byte	0x120
 588 02d2 A3020000 		.4byte	0x2a3
 589 02d6 02       		.byte	0x2
 590 02d7 23       		.byte	0x23
 591 02d8 04       		.uleb128 0x4
 592 02d9 0C       		.uleb128 0xc
 593 02da 723600   		.ascii	"r6\000"
 594 02dd 07       		.byte	0x7
 595 02de 2101     		.2byte	0x121
 596 02e0 A3020000 		.4byte	0x2a3
 597 02e4 02       		.byte	0x2
 598 02e5 23       		.byte	0x23
 599 02e6 08       		.uleb128 0x8
 600 02e7 0C       		.uleb128 0xc
 601 02e8 723700   		.ascii	"r7\000"
 602 02eb 07       		.byte	0x7
 603 02ec 2201     		.2byte	0x122
 604 02ee A3020000 		.4byte	0x2a3
 605 02f2 02       		.byte	0x2
 606 02f3 23       		.byte	0x23
 607 02f4 0C       		.uleb128 0xc
 608 02f5 0C       		.uleb128 0xc
 609 02f6 723800   		.ascii	"r8\000"
 610 02f9 07       		.byte	0x7
 611 02fa 2301     		.2byte	0x123
 612 02fc A3020000 		.4byte	0x2a3
 613 0300 02       		.byte	0x2
 614 0301 23       		.byte	0x23
 615 0302 10       		.uleb128 0x10
 616 0303 0C       		.uleb128 0xc
 617 0304 723900   		.ascii	"r9\000"
ARM GAS  /var/folders/pt/gxfsd_x53tx3h6kb8dkzftl80000gr/T//cc6oOow0.s 			page 12


 618 0307 07       		.byte	0x7
 619 0308 2401     		.2byte	0x124
 620 030a A3020000 		.4byte	0x2a3
 621 030e 02       		.byte	0x2
 622 030f 23       		.byte	0x23
 623 0310 14       		.uleb128 0x14
 624 0311 0C       		.uleb128 0xc
 625 0312 72313000 		.ascii	"r10\000"
 626 0316 07       		.byte	0x7
 627 0317 2501     		.2byte	0x125
 628 0319 A3020000 		.4byte	0x2a3
 629 031d 02       		.byte	0x2
 630 031e 23       		.byte	0x23
 631 031f 18       		.uleb128 0x18
 632 0320 0C       		.uleb128 0xc
 633 0321 72313100 		.ascii	"r11\000"
 634 0325 07       		.byte	0x7
 635 0326 2601     		.2byte	0x126
 636 0328 A3020000 		.4byte	0x2a3
 637 032c 02       		.byte	0x2
 638 032d 23       		.byte	0x23
 639 032e 1C       		.uleb128 0x1c
 640 032f 0C       		.uleb128 0xc
 641 0330 6C7200   		.ascii	"lr\000"
 642 0333 07       		.byte	0x7
 643 0334 2701     		.2byte	0x127
 644 0336 A3020000 		.4byte	0x2a3
 645 033a 02       		.byte	0x2
 646 033b 23       		.byte	0x23
 647 033c 20       		.uleb128 0x20
 648 033d 00       		.byte	0
 649 033e 0B       		.uleb128 0xb
 650 033f C2050000 		.4byte	.LASF49
 651 0343 04       		.byte	0x4
 652 0344 07       		.byte	0x7
 653 0345 3101     		.2byte	0x131
 654 0347 5B030000 		.4byte	0x35b
 655 034b 0C       		.uleb128 0xc
 656 034c 72313300 		.ascii	"r13\000"
 657 0350 07       		.byte	0x7
 658 0351 3201     		.2byte	0x132
 659 0353 5B030000 		.4byte	0x35b
 660 0357 02       		.byte	0x2
 661 0358 23       		.byte	0x23
 662 0359 00       		.uleb128 0
 663 035a 00       		.byte	0
 664 035b 09       		.uleb128 0x9
 665 035c 04       		.byte	0x4
 666 035d B0020000 		.4byte	0x2b0
 667 0361 0D       		.uleb128 0xd
 668 0362 91000000 		.4byte	0x91
 669 0366 04       		.uleb128 0x4
 670 0367 04       		.byte	0x4
 671 0368 07       		.byte	0x7
 672 0369 5A030000 		.4byte	.LASF50
 673 036d 0D       		.uleb128 0xd
 674 036e 10010000 		.4byte	0x110
ARM GAS  /var/folders/pt/gxfsd_x53tx3h6kb8dkzftl80000gr/T//cc6oOow0.s 			page 13


 675 0372 05       		.uleb128 0x5
 676 0373 63030000 		.4byte	.LASF51
 677 0377 10       		.byte	0x10
 678 0378 08       		.byte	0x8
 679 0379 2C       		.byte	0x2c
 680 037a A9030000 		.4byte	0x3a9
 681 037e 06       		.uleb128 0x6
 682 037f DC000000 		.4byte	.LASF52
 683 0383 08       		.byte	0x8
 684 0384 2D       		.byte	0x2d
 685 0385 76020000 		.4byte	0x276
 686 0389 02       		.byte	0x2
 687 038a 23       		.byte	0x23
 688 038b 00       		.uleb128 0
 689 038c 06       		.uleb128 0x6
 690 038d A4060000 		.4byte	.LASF53
 691 0391 08       		.byte	0x8
 692 0392 2F       		.byte	0x2f
 693 0393 70020000 		.4byte	0x270
 694 0397 02       		.byte	0x2
 695 0398 23       		.byte	0x23
 696 0399 08       		.uleb128 0x8
 697 039a 06       		.uleb128 0x6
 698 039b C0030000 		.4byte	.LASF54
 699 039f 08       		.byte	0x8
 700 03a0 31       		.byte	0x31
 701 03a1 A9030000 		.4byte	0x3a9
 702 03a5 02       		.byte	0x2
 703 03a6 23       		.byte	0x23
 704 03a7 0C       		.uleb128 0xc
 705 03a8 00       		.byte	0
 706 03a9 09       		.uleb128 0x9
 707 03aa 04       		.byte	0x4
 708 03ab 72030000 		.4byte	0x372
 709 03af 03       		.uleb128 0x3
 710 03b0 63030000 		.4byte	.LASF51
 711 03b4 08       		.byte	0x8
 712 03b5 33       		.byte	0x33
 713 03b6 72030000 		.4byte	0x372
 714 03ba 0E       		.uleb128 0xe
 715 03bb 04       		.byte	0x4
 716 03bc 06       		.byte	0x6
 717 03bd 96       		.byte	0x96
 718 03be EF030000 		.4byte	0x3ef
 719 03c2 0F       		.uleb128 0xf
 720 03c3 07000000 		.4byte	.LASF55
 721 03c7 06       		.byte	0x6
 722 03c8 9D       		.byte	0x9d
 723 03c9 FA000000 		.4byte	0xfa
 724 03cd 0F       		.uleb128 0xf
 725 03ce B2010000 		.4byte	.LASF56
 726 03d2 06       		.byte	0x6
 727 03d3 A4       		.byte	0xa4
 728 03d4 FA000000 		.4byte	0xfa
 729 03d8 0F       		.uleb128 0xf
 730 03d9 6C060000 		.4byte	.LASF57
 731 03dd 06       		.byte	0x6
ARM GAS  /var/folders/pt/gxfsd_x53tx3h6kb8dkzftl80000gr/T//cc6oOow0.s 			page 14


 732 03de AB       		.byte	0xab
 733 03df AE020000 		.4byte	0x2ae
 734 03e3 0F       		.uleb128 0xf
 735 03e4 71040000 		.4byte	.LASF58
 736 03e8 06       		.byte	0x6
 737 03e9 B2       		.byte	0xb2
 738 03ea 05010000 		.4byte	0x105
 739 03ee 00       		.byte	0
 740 03ef 09       		.uleb128 0x9
 741 03f0 04       		.byte	0x4
 742 03f1 F5030000 		.4byte	0x3f5
 743 03f5 10       		.uleb128 0x10
 744 03f6 FA030000 		.4byte	0x3fa
 745 03fa 04       		.uleb128 0x4
 746 03fb 01       		.byte	0x1
 747 03fc 08       		.byte	0x8
 748 03fd 06050000 		.4byte	.LASF59
 749 0401 09       		.uleb128 0x9
 750 0402 04       		.byte	0x4
 751 0403 AF030000 		.4byte	0x3af
 752 0407 09       		.uleb128 0x9
 753 0408 04       		.byte	0x4
 754 0409 0D040000 		.4byte	0x40d
 755 040d 11       		.uleb128 0x11
 756 040e 01       		.byte	0x1
 757 040f FA000000 		.4byte	0xfa
 758 0413 1D040000 		.4byte	0x41d
 759 0417 12       		.uleb128 0x12
 760 0418 AE020000 		.4byte	0x2ae
 761 041c 00       		.byte	0
 762 041d 09       		.uleb128 0x9
 763 041e 04       		.byte	0x4
 764 041f 49000000 		.4byte	0x49
 765 0423 05       		.uleb128 0x5
 766 0424 7F040000 		.4byte	.LASF60
 767 0428 10       		.byte	0x10
 768 0429 09       		.byte	0x9
 769 042a 48       		.byte	0x48
 770 042b 68040000 		.4byte	0x468
 771 042f 06       		.uleb128 0x6
 772 0430 35030000 		.4byte	.LASF61
 773 0434 09       		.byte	0x9
 774 0435 49       		.byte	0x49
 775 0436 8D040000 		.4byte	0x48d
 776 043a 02       		.byte	0x2
 777 043b 23       		.byte	0x23
 778 043c 00       		.uleb128 0
 779 043d 06       		.uleb128 0x6
 780 043e 01050000 		.4byte	.LASF62
 781 0442 09       		.byte	0x9
 782 0443 49       		.byte	0x49
 783 0444 AD040000 		.4byte	0x4ad
 784 0448 02       		.byte	0x2
 785 0449 23       		.byte	0x23
 786 044a 04       		.uleb128 0x4
 787 044b 07       		.uleb128 0x7
 788 044c 70757400 		.ascii	"put\000"
ARM GAS  /var/folders/pt/gxfsd_x53tx3h6kb8dkzftl80000gr/T//cc6oOow0.s 			page 15


 789 0450 09       		.byte	0x9
 790 0451 49       		.byte	0x49
 791 0452 C8040000 		.4byte	0x4c8
 792 0456 02       		.byte	0x2
 793 0457 23       		.byte	0x23
 794 0458 08       		.uleb128 0x8
 795 0459 07       		.uleb128 0x7
 796 045a 67657400 		.ascii	"get\000"
 797 045e 09       		.byte	0x9
 798 045f 49       		.byte	0x49
 799 0460 07040000 		.4byte	0x407
 800 0464 02       		.byte	0x2
 801 0465 23       		.byte	0x23
 802 0466 0C       		.uleb128 0xc
 803 0467 00       		.byte	0
 804 0468 11       		.uleb128 0x11
 805 0469 01       		.byte	0x1
 806 046a 30000000 		.4byte	0x30
 807 046e 82040000 		.4byte	0x482
 808 0472 12       		.uleb128 0x12
 809 0473 AE020000 		.4byte	0x2ae
 810 0477 12       		.uleb128 0x12
 811 0478 82040000 		.4byte	0x482
 812 047c 12       		.uleb128 0x12
 813 047d 30000000 		.4byte	0x30
 814 0481 00       		.byte	0
 815 0482 09       		.uleb128 0x9
 816 0483 04       		.byte	0x4
 817 0484 88040000 		.4byte	0x488
 818 0488 10       		.uleb128 0x10
 819 0489 49000000 		.4byte	0x49
 820 048d 09       		.uleb128 0x9
 821 048e 04       		.byte	0x4
 822 048f 68040000 		.4byte	0x468
 823 0493 11       		.uleb128 0x11
 824 0494 01       		.byte	0x1
 825 0495 30000000 		.4byte	0x30
 826 0499 AD040000 		.4byte	0x4ad
 827 049d 12       		.uleb128 0x12
 828 049e AE020000 		.4byte	0x2ae
 829 04a2 12       		.uleb128 0x12
 830 04a3 1D040000 		.4byte	0x41d
 831 04a7 12       		.uleb128 0x12
 832 04a8 30000000 		.4byte	0x30
 833 04ac 00       		.byte	0
 834 04ad 09       		.uleb128 0x9
 835 04ae 04       		.byte	0x4
 836 04af 93040000 		.4byte	0x493
 837 04b3 11       		.uleb128 0x11
 838 04b4 01       		.byte	0x1
 839 04b5 FA000000 		.4byte	0xfa
 840 04b9 C8040000 		.4byte	0x4c8
 841 04bd 12       		.uleb128 0x12
 842 04be AE020000 		.4byte	0x2ae
 843 04c2 12       		.uleb128 0x12
 844 04c3 49000000 		.4byte	0x49
 845 04c7 00       		.byte	0
ARM GAS  /var/folders/pt/gxfsd_x53tx3h6kb8dkzftl80000gr/T//cc6oOow0.s 			page 16


 846 04c8 09       		.uleb128 0x9
 847 04c9 04       		.byte	0x4
 848 04ca B3040000 		.4byte	0x4b3
 849 04ce 08       		.uleb128 0x8
 850 04cf 04       		.byte	0x4
 851 04d0 09       		.byte	0x9
 852 04d1 51       		.byte	0x51
 853 04d2 E5040000 		.4byte	0x4e5
 854 04d6 07       		.uleb128 0x7
 855 04d7 766D7400 		.ascii	"vmt\000"
 856 04db 09       		.byte	0x9
 857 04dc 53       		.byte	0x53
 858 04dd E5040000 		.4byte	0x4e5
 859 04e1 02       		.byte	0x2
 860 04e2 23       		.byte	0x23
 861 04e3 00       		.uleb128 0
 862 04e4 00       		.byte	0
 863 04e5 09       		.uleb128 0x9
 864 04e6 04       		.byte	0x4
 865 04e7 EB040000 		.4byte	0x4eb
 866 04eb 10       		.uleb128 0x10
 867 04ec 23040000 		.4byte	0x423
 868 04f0 03       		.uleb128 0x3
 869 04f1 FE010000 		.4byte	.LASF63
 870 04f5 09       		.byte	0x9
 871 04f6 55       		.byte	0x55
 872 04f7 CE040000 		.4byte	0x4ce
 873 04fb 0D       		.uleb128 0xd
 874 04fc 7F000000 		.4byte	0x7f
 875 0500 13       		.uleb128 0x13
 876 0501 50       		.byte	0x50
 877 0502 0A       		.byte	0xa
 878 0503 2D02     		.2byte	0x22d
 879 0505 34060000 		.4byte	0x634
 880 0509 0C       		.uleb128 0xc
 881 050a 535200   		.ascii	"SR\000"
 882 050d 0A       		.byte	0xa
 883 050e 2F02     		.2byte	0x22f
 884 0510 61030000 		.4byte	0x361
 885 0514 02       		.byte	0x2
 886 0515 23       		.byte	0x23
 887 0516 00       		.uleb128 0
 888 0517 0C       		.uleb128 0xc
 889 0518 43523100 		.ascii	"CR1\000"
 890 051c 0A       		.byte	0xa
 891 051d 3002     		.2byte	0x230
 892 051f 61030000 		.4byte	0x361
 893 0523 02       		.byte	0x2
 894 0524 23       		.byte	0x23
 895 0525 04       		.uleb128 0x4
 896 0526 0C       		.uleb128 0xc
 897 0527 43523200 		.ascii	"CR2\000"
 898 052b 0A       		.byte	0xa
 899 052c 3102     		.2byte	0x231
 900 052e 61030000 		.4byte	0x361
 901 0532 02       		.byte	0x2
 902 0533 23       		.byte	0x23
ARM GAS  /var/folders/pt/gxfsd_x53tx3h6kb8dkzftl80000gr/T//cc6oOow0.s 			page 17


 903 0534 08       		.uleb128 0x8
 904 0535 14       		.uleb128 0x14
 905 0536 B4030000 		.4byte	.LASF64
 906 053a 0A       		.byte	0xa
 907 053b 3202     		.2byte	0x232
 908 053d 61030000 		.4byte	0x361
 909 0541 02       		.byte	0x2
 910 0542 23       		.byte	0x23
 911 0543 0C       		.uleb128 0xc
 912 0544 14       		.uleb128 0x14
 913 0545 BA030000 		.4byte	.LASF65
 914 0549 0A       		.byte	0xa
 915 054a 3302     		.2byte	0x233
 916 054c 61030000 		.4byte	0x361
 917 0550 02       		.byte	0x2
 918 0551 23       		.byte	0x23
 919 0552 10       		.uleb128 0x10
 920 0553 14       		.uleb128 0x14
 921 0554 40030000 		.4byte	.LASF66
 922 0558 0A       		.byte	0xa
 923 0559 3402     		.2byte	0x234
 924 055b 61030000 		.4byte	0x361
 925 055f 02       		.byte	0x2
 926 0560 23       		.byte	0x23
 927 0561 14       		.uleb128 0x14
 928 0562 14       		.uleb128 0x14
 929 0563 46030000 		.4byte	.LASF67
 930 0567 0A       		.byte	0xa
 931 0568 3502     		.2byte	0x235
 932 056a 61030000 		.4byte	0x361
 933 056e 02       		.byte	0x2
 934 056f 23       		.byte	0x23
 935 0570 18       		.uleb128 0x18
 936 0571 14       		.uleb128 0x14
 937 0572 4C030000 		.4byte	.LASF68
 938 0576 0A       		.byte	0xa
 939 0577 3602     		.2byte	0x236
 940 0579 61030000 		.4byte	0x361
 941 057d 02       		.byte	0x2
 942 057e 23       		.byte	0x23
 943 057f 1C       		.uleb128 0x1c
 944 0580 14       		.uleb128 0x14
 945 0581 AA040000 		.4byte	.LASF69
 946 0585 0A       		.byte	0xa
 947 0586 3702     		.2byte	0x237
 948 0588 61030000 		.4byte	0x361
 949 058c 02       		.byte	0x2
 950 058d 23       		.byte	0x23
 951 058e 20       		.uleb128 0x20
 952 058f 0C       		.uleb128 0xc
 953 0590 48545200 		.ascii	"HTR\000"
 954 0594 0A       		.byte	0xa
 955 0595 3802     		.2byte	0x238
 956 0597 61030000 		.4byte	0x361
 957 059b 02       		.byte	0x2
 958 059c 23       		.byte	0x23
 959 059d 24       		.uleb128 0x24
ARM GAS  /var/folders/pt/gxfsd_x53tx3h6kb8dkzftl80000gr/T//cc6oOow0.s 			page 18


 960 059e 0C       		.uleb128 0xc
 961 059f 4C545200 		.ascii	"LTR\000"
 962 05a3 0A       		.byte	0xa
 963 05a4 3902     		.2byte	0x239
 964 05a6 61030000 		.4byte	0x361
 965 05aa 02       		.byte	0x2
 966 05ab 23       		.byte	0x23
 967 05ac 28       		.uleb128 0x28
 968 05ad 14       		.uleb128 0x14
 969 05ae D3030000 		.4byte	.LASF70
 970 05b2 0A       		.byte	0xa
 971 05b3 3A02     		.2byte	0x23a
 972 05b5 61030000 		.4byte	0x361
 973 05b9 02       		.byte	0x2
 974 05ba 23       		.byte	0x23
 975 05bb 2C       		.uleb128 0x2c
 976 05bc 14       		.uleb128 0x14
 977 05bd D8030000 		.4byte	.LASF71
 978 05c1 0A       		.byte	0xa
 979 05c2 3B02     		.2byte	0x23b
 980 05c4 61030000 		.4byte	0x361
 981 05c8 02       		.byte	0x2
 982 05c9 23       		.byte	0x23
 983 05ca 30       		.uleb128 0x30
 984 05cb 14       		.uleb128 0x14
 985 05cc DD030000 		.4byte	.LASF72
 986 05d0 0A       		.byte	0xa
 987 05d1 3C02     		.2byte	0x23c
 988 05d3 61030000 		.4byte	0x361
 989 05d7 02       		.byte	0x2
 990 05d8 23       		.byte	0x23
 991 05d9 34       		.uleb128 0x34
 992 05da 14       		.uleb128 0x14
 993 05db A6000000 		.4byte	.LASF73
 994 05df 0A       		.byte	0xa
 995 05e0 3D02     		.2byte	0x23d
 996 05e2 61030000 		.4byte	0x361
 997 05e6 02       		.byte	0x2
 998 05e7 23       		.byte	0x23
 999 05e8 38       		.uleb128 0x38
 1000 05e9 14       		.uleb128 0x14
 1001 05ea 58060000 		.4byte	.LASF74
 1002 05ee 0A       		.byte	0xa
 1003 05ef 3E02     		.2byte	0x23e
 1004 05f1 61030000 		.4byte	0x361
 1005 05f5 02       		.byte	0x2
 1006 05f6 23       		.byte	0x23
 1007 05f7 3C       		.uleb128 0x3c
 1008 05f8 14       		.uleb128 0x14
 1009 05f9 5D060000 		.4byte	.LASF75
 1010 05fd 0A       		.byte	0xa
 1011 05fe 3F02     		.2byte	0x23f
 1012 0600 61030000 		.4byte	0x361
 1013 0604 02       		.byte	0x2
 1014 0605 23       		.byte	0x23
 1015 0606 40       		.uleb128 0x40
 1016 0607 14       		.uleb128 0x14
ARM GAS  /var/folders/pt/gxfsd_x53tx3h6kb8dkzftl80000gr/T//cc6oOow0.s 			page 19


 1017 0608 62060000 		.4byte	.LASF76
 1018 060c 0A       		.byte	0xa
 1019 060d 4002     		.2byte	0x240
 1020 060f 61030000 		.4byte	0x361
 1021 0613 02       		.byte	0x2
 1022 0614 23       		.byte	0x23
 1023 0615 44       		.uleb128 0x44
 1024 0616 14       		.uleb128 0x14
 1025 0617 67060000 		.4byte	.LASF77
 1026 061b 0A       		.byte	0xa
 1027 061c 4102     		.2byte	0x241
 1028 061e 61030000 		.4byte	0x361
 1029 0622 02       		.byte	0x2
 1030 0623 23       		.byte	0x23
 1031 0624 48       		.uleb128 0x48
 1032 0625 0C       		.uleb128 0xc
 1033 0626 445200   		.ascii	"DR\000"
 1034 0629 0A       		.byte	0xa
 1035 062a 4202     		.2byte	0x242
 1036 062c 61030000 		.4byte	0x361
 1037 0630 02       		.byte	0x2
 1038 0631 23       		.byte	0x23
 1039 0632 4C       		.uleb128 0x4c
 1040 0633 00       		.byte	0
 1041 0634 15       		.uleb128 0x15
 1042 0635 89010000 		.4byte	.LASF78
 1043 0639 0A       		.byte	0xa
 1044 063a 4302     		.2byte	0x243
 1045 063c 00050000 		.4byte	0x500
 1046 0640 13       		.uleb128 0x13
 1047 0641 10       		.byte	0x10
 1048 0642 0A       		.byte	0xa
 1049 0643 2D03     		.2byte	0x32d
 1050 0645 86060000 		.4byte	0x686
 1051 0649 0C       		.uleb128 0xc
 1052 064a 43435200 		.ascii	"CCR\000"
 1053 064e 0A       		.byte	0xa
 1054 064f 2F03     		.2byte	0x32f
 1055 0651 61030000 		.4byte	0x361
 1056 0655 02       		.byte	0x2
 1057 0656 23       		.byte	0x23
 1058 0657 00       		.uleb128 0
 1059 0658 14       		.uleb128 0x14
 1060 0659 0F060000 		.4byte	.LASF79
 1061 065d 0A       		.byte	0xa
 1062 065e 3003     		.2byte	0x330
 1063 0660 61030000 		.4byte	0x361
 1064 0664 02       		.byte	0x2
 1065 0665 23       		.byte	0x23
 1066 0666 04       		.uleb128 0x4
 1067 0667 14       		.uleb128 0x14
 1068 0668 2A020000 		.4byte	.LASF80
 1069 066c 0A       		.byte	0xa
 1070 066d 3103     		.2byte	0x331
 1071 066f 61030000 		.4byte	0x361
 1072 0673 02       		.byte	0x2
 1073 0674 23       		.byte	0x23
ARM GAS  /var/folders/pt/gxfsd_x53tx3h6kb8dkzftl80000gr/T//cc6oOow0.s 			page 20


 1074 0675 08       		.uleb128 0x8
 1075 0676 14       		.uleb128 0x14
 1076 0677 30030000 		.4byte	.LASF81
 1077 067b 0A       		.byte	0xa
 1078 067c 3203     		.2byte	0x332
 1079 067e 61030000 		.4byte	0x361
 1080 0682 02       		.byte	0x2
 1081 0683 23       		.byte	0x23
 1082 0684 0C       		.uleb128 0xc
 1083 0685 00       		.byte	0
 1084 0686 15       		.uleb128 0x15
 1085 0687 44020000 		.4byte	.LASF82
 1086 068b 0A       		.byte	0xa
 1087 068c 3303     		.2byte	0x333
 1088 068e 40060000 		.4byte	0x640
 1089 0692 08       		.uleb128 0x8
 1090 0693 0C       		.byte	0xc
 1091 0694 0B       		.byte	0xb
 1092 0695 C1       		.byte	0xc1
 1093 0696 E1060000 		.4byte	0x6e1
 1094 069a 06       		.uleb128 0x6
 1095 069b B0040000 		.4byte	.LASF83
 1096 069f 0B       		.byte	0xb
 1097 06a0 C2       		.byte	0xc2
 1098 06a1 E1060000 		.4byte	0x6e1
 1099 06a5 02       		.byte	0x2
 1100 06a6 23       		.byte	0x23
 1101 06a7 00       		.uleb128 0
 1102 06a8 06       		.uleb128 0x6
 1103 06a9 C3040000 		.4byte	.LASF84
 1104 06ad 0B       		.byte	0xb
 1105 06ae C3       		.byte	0xc3
 1106 06af E7060000 		.4byte	0x6e7
 1107 06b3 02       		.byte	0x2
 1108 06b4 23       		.byte	0x23
 1109 06b5 04       		.uleb128 0x4
 1110 06b6 06       		.uleb128 0x6
 1111 06b7 58020000 		.4byte	.LASF85
 1112 06bb 0B       		.byte	0xb
 1113 06bc C4       		.byte	0xc4
 1114 06bd 49000000 		.4byte	0x49
 1115 06c1 02       		.byte	0x2
 1116 06c2 23       		.byte	0x23
 1117 06c3 08       		.uleb128 0x8
 1118 06c4 06       		.uleb128 0x6
 1119 06c5 DD010000 		.4byte	.LASF86
 1120 06c9 0B       		.byte	0xb
 1121 06ca C6       		.byte	0xc6
 1122 06cb 49000000 		.4byte	0x49
 1123 06cf 02       		.byte	0x2
 1124 06d0 23       		.byte	0x23
 1125 06d1 09       		.uleb128 0x9
 1126 06d2 06       		.uleb128 0x6
 1127 06d3 21000000 		.4byte	.LASF87
 1128 06d7 0B       		.byte	0xb
 1129 06d8 C7       		.byte	0xc7
 1130 06d9 49000000 		.4byte	0x49
ARM GAS  /var/folders/pt/gxfsd_x53tx3h6kb8dkzftl80000gr/T//cc6oOow0.s 			page 21


 1131 06dd 02       		.byte	0x2
 1132 06de 23       		.byte	0x23
 1133 06df 0A       		.uleb128 0xa
 1134 06e0 00       		.byte	0
 1135 06e1 09       		.uleb128 0x9
 1136 06e2 04       		.byte	0x4
 1137 06e3 86060000 		.4byte	0x686
 1138 06e7 09       		.uleb128 0x9
 1139 06e8 04       		.byte	0x4
 1140 06e9 61030000 		.4byte	0x361
 1141 06ed 03       		.uleb128 0x3
 1142 06ee 05040000 		.4byte	.LASF88
 1143 06f2 0B       		.byte	0xb
 1144 06f3 C8       		.byte	0xc8
 1145 06f4 92060000 		.4byte	0x692
 1146 06f8 16       		.uleb128 0x16
 1147 06f9 01       		.byte	0x1
 1148 06fa 0C       		.byte	0xc
 1149 06fb 55       		.byte	0x55
 1150 06fc 25070000 		.4byte	0x725
 1151 0700 17       		.uleb128 0x17
 1152 0701 87000000 		.4byte	.LASF89
 1153 0705 00       		.sleb128 0
 1154 0706 17       		.uleb128 0x17
 1155 0707 8F030000 		.4byte	.LASF90
 1156 070b 01       		.sleb128 1
 1157 070c 17       		.uleb128 0x17
 1158 070d 7C020000 		.4byte	.LASF91
 1159 0711 02       		.sleb128 2
 1160 0712 17       		.uleb128 0x17
 1161 0713 9F040000 		.4byte	.LASF92
 1162 0717 03       		.sleb128 3
 1163 0718 17       		.uleb128 0x17
 1164 0719 34000000 		.4byte	.LASF93
 1165 071d 04       		.sleb128 4
 1166 071e 17       		.uleb128 0x17
 1167 071f EE050000 		.4byte	.LASF94
 1168 0723 05       		.sleb128 5
 1169 0724 00       		.byte	0
 1170 0725 03       		.uleb128 0x3
 1171 0726 16000000 		.4byte	.LASF95
 1172 072a 0C       		.byte	0xc
 1173 072b 5C       		.byte	0x5c
 1174 072c F8060000 		.4byte	0x6f8
 1175 0730 03       		.uleb128 0x3
 1176 0731 BB010000 		.4byte	.LASF96
 1177 0735 0D       		.byte	0xd
 1178 0736 87       		.byte	0x87
 1179 0737 6D000000 		.4byte	0x6d
 1180 073b 03       		.uleb128 0x3
 1181 073c 7E060000 		.4byte	.LASF97
 1182 0740 0D       		.byte	0xd
 1183 0741 8C       		.byte	0x8c
 1184 0742 6D000000 		.4byte	0x6d
 1185 0746 16       		.uleb128 0x16
 1186 0747 01       		.byte	0x1
 1187 0748 0D       		.byte	0xd
ARM GAS  /var/folders/pt/gxfsd_x53tx3h6kb8dkzftl80000gr/T//cc6oOow0.s 			page 22


 1188 0749 93       		.byte	0x93
 1189 074a 55070000 		.4byte	0x755
 1190 074e 17       		.uleb128 0x17
 1191 074f 0E010000 		.4byte	.LASF98
 1192 0753 00       		.sleb128 0
 1193 0754 00       		.byte	0
 1194 0755 03       		.uleb128 0x3
 1195 0756 E4000000 		.4byte	.LASF99
 1196 075a 0D       		.byte	0xd
 1197 075b 95       		.byte	0x95
 1198 075c 46070000 		.4byte	0x746
 1199 0760 03       		.uleb128 0x3
 1200 0761 3A020000 		.4byte	.LASF100
 1201 0765 0D       		.byte	0xd
 1202 0766 9A       		.byte	0x9a
 1203 0767 6B070000 		.4byte	0x76b
 1204 076b 05       		.uleb128 0x5
 1205 076c 3A020000 		.4byte	.LASF100
 1206 0770 34       		.byte	0x34
 1207 0771 0D       		.byte	0xd
 1208 0772 FE       		.byte	0xfe
 1209 0773 0E080000 		.4byte	0x80e
 1210 0777 14       		.uleb128 0x14
 1211 0778 F6000000 		.4byte	.LASF101
 1212 077c 0D       		.byte	0xd
 1213 077d 0201     		.2byte	0x102
 1214 077f 25070000 		.4byte	0x725
 1215 0783 02       		.byte	0x2
 1216 0784 23       		.byte	0x23
 1217 0785 00       		.uleb128 0
 1218 0786 14       		.uleb128 0x14
 1219 0787 43050000 		.4byte	.LASF102
 1220 078b 0D       		.byte	0xd
 1221 078c 0601     		.2byte	0x106
 1222 078e 33090000 		.4byte	0x933
 1223 0792 02       		.byte	0x2
 1224 0793 23       		.byte	0x23
 1225 0794 04       		.uleb128 0x4
 1226 0795 14       		.uleb128 0x14
 1227 0796 52030000 		.4byte	.LASF103
 1228 079a 0D       		.byte	0xd
 1229 079b 0A01     		.2byte	0x10a
 1230 079d 3B080000 		.4byte	0x83b
 1231 07a1 02       		.byte	0x2
 1232 07a2 23       		.byte	0x23
 1233 07a3 08       		.uleb128 0x8
 1234 07a4 14       		.uleb128 0x14
 1235 07a5 86020000 		.4byte	.LASF104
 1236 07a9 0D       		.byte	0xd
 1237 07aa 0E01     		.2byte	0x10e
 1238 07ac 30000000 		.4byte	0x30
 1239 07b0 02       		.byte	0x2
 1240 07b1 23       		.byte	0x23
 1241 07b2 0C       		.uleb128 0xc
 1242 07b3 14       		.uleb128 0x14
 1243 07b4 3B030000 		.4byte	.LASF105
 1244 07b8 0D       		.byte	0xd
ARM GAS  /var/folders/pt/gxfsd_x53tx3h6kb8dkzftl80000gr/T//cc6oOow0.s 			page 23


 1245 07b9 1201     		.2byte	0x112
 1246 07bb 3E090000 		.4byte	0x93e
 1247 07bf 02       		.byte	0x2
 1248 07c0 23       		.byte	0x23
 1249 07c1 10       		.uleb128 0x10
 1250 07c2 14       		.uleb128 0x14
 1251 07c3 72010000 		.4byte	.LASF106
 1252 07c7 0D       		.byte	0xd
 1253 07c8 1701     		.2byte	0x117
 1254 07ca 70020000 		.4byte	0x270
 1255 07ce 02       		.byte	0x2
 1256 07cf 23       		.byte	0x23
 1257 07d0 14       		.uleb128 0x14
 1258 07d1 14       		.uleb128 0x14
 1259 07d2 20040000 		.4byte	.LASF107
 1260 07d6 0D       		.byte	0xd
 1261 07d7 1E01     		.2byte	0x11e
 1262 07d9 AF030000 		.4byte	0x3af
 1263 07dd 02       		.byte	0x2
 1264 07de 23       		.byte	0x23
 1265 07df 18       		.uleb128 0x18
 1266 07e0 0C       		.uleb128 0xc
 1267 07e1 61646300 		.ascii	"adc\000"
 1268 07e5 0D       		.byte	0xd
 1269 07e6 2A01     		.2byte	0x12a
 1270 07e8 49090000 		.4byte	0x949
 1271 07ec 02       		.byte	0x2
 1272 07ed 23       		.byte	0x23
 1273 07ee 28       		.uleb128 0x28
 1274 07ef 14       		.uleb128 0x14
 1275 07f0 EF000000 		.4byte	.LASF108
 1276 07f4 0D       		.byte	0xd
 1277 07f5 2E01     		.2byte	0x12e
 1278 07f7 4F090000 		.4byte	0x94f
 1279 07fb 02       		.byte	0x2
 1280 07fc 23       		.byte	0x23
 1281 07fd 2C       		.uleb128 0x2c
 1282 07fe 14       		.uleb128 0x14
 1283 07ff 0E000000 		.4byte	.LASF109
 1284 0803 0D       		.byte	0xd
 1285 0804 3201     		.2byte	0x132
 1286 0806 91000000 		.4byte	0x91
 1287 080a 02       		.byte	0x2
 1288 080b 23       		.byte	0x23
 1289 080c 30       		.uleb128 0x30
 1290 080d 00       		.byte	0
 1291 080e 03       		.uleb128 0x3
 1292 080f A4010000 		.4byte	.LASF110
 1293 0813 0D       		.byte	0xd
 1294 0814 A4       		.byte	0xa4
 1295 0815 19080000 		.4byte	0x819
 1296 0819 09       		.uleb128 0x9
 1297 081a 04       		.byte	0x4
 1298 081b 1F080000 		.4byte	0x81f
 1299 081f 18       		.uleb128 0x18
 1300 0820 01       		.byte	0x1
 1301 0821 35080000 		.4byte	0x835
ARM GAS  /var/folders/pt/gxfsd_x53tx3h6kb8dkzftl80000gr/T//cc6oOow0.s 			page 24


 1302 0825 12       		.uleb128 0x12
 1303 0826 35080000 		.4byte	0x835
 1304 082a 12       		.uleb128 0x12
 1305 082b 3B080000 		.4byte	0x83b
 1306 082f 12       		.uleb128 0x12
 1307 0830 30000000 		.4byte	0x30
 1308 0834 00       		.byte	0
 1309 0835 09       		.uleb128 0x9
 1310 0836 04       		.byte	0x4
 1311 0837 60070000 		.4byte	0x760
 1312 083b 09       		.uleb128 0x9
 1313 083c 04       		.byte	0x4
 1314 083d 30070000 		.4byte	0x730
 1315 0841 03       		.uleb128 0x3
 1316 0842 45010000 		.4byte	.LASF111
 1317 0846 0D       		.byte	0xd
 1318 0847 AD       		.byte	0xad
 1319 0848 4C080000 		.4byte	0x84c
 1320 084c 09       		.uleb128 0x9
 1321 084d 04       		.byte	0x4
 1322 084e 52080000 		.4byte	0x852
 1323 0852 18       		.uleb128 0x18
 1324 0853 01       		.byte	0x1
 1325 0854 63080000 		.4byte	0x863
 1326 0858 12       		.uleb128 0x12
 1327 0859 35080000 		.4byte	0x835
 1328 085d 12       		.uleb128 0x12
 1329 085e 55070000 		.4byte	0x755
 1330 0862 00       		.byte	0
 1331 0863 08       		.uleb128 0x8
 1332 0864 28       		.byte	0x28
 1333 0865 0D       		.byte	0xd
 1334 0866 B7       		.byte	0xb7
 1335 0867 06090000 		.4byte	0x906
 1336 086b 06       		.uleb128 0x6
 1337 086c FC000000 		.4byte	.LASF112
 1338 0870 0D       		.byte	0xd
 1339 0871 BB       		.byte	0xbb
 1340 0872 B1000000 		.4byte	0xb1
 1341 0876 02       		.byte	0x2
 1342 0877 23       		.byte	0x23
 1343 0878 00       		.uleb128 0
 1344 0879 06       		.uleb128 0x6
 1345 087a 41000000 		.4byte	.LASF113
 1346 087e 0D       		.byte	0xd
 1347 087f BF       		.byte	0xbf
 1348 0880 3B070000 		.4byte	0x73b
 1349 0884 02       		.byte	0x2
 1350 0885 23       		.byte	0x23
 1351 0886 02       		.uleb128 0x2
 1352 0887 06       		.uleb128 0x6
 1353 0888 9D010000 		.4byte	.LASF114
 1354 088c 0D       		.byte	0xd
 1355 088d C3       		.byte	0xc3
 1356 088e 0E080000 		.4byte	0x80e
 1357 0892 02       		.byte	0x2
 1358 0893 23       		.byte	0x23
ARM GAS  /var/folders/pt/gxfsd_x53tx3h6kb8dkzftl80000gr/T//cc6oOow0.s 			page 25


 1359 0894 04       		.uleb128 0x4
 1360 0895 06       		.uleb128 0x6
 1361 0896 68040000 		.4byte	.LASF115
 1362 089a 0D       		.byte	0xd
 1363 089b C7       		.byte	0xc7
 1364 089c 41080000 		.4byte	0x841
 1365 08a0 02       		.byte	0x2
 1366 08a1 23       		.byte	0x23
 1367 08a2 08       		.uleb128 0x8
 1368 08a3 07       		.uleb128 0x7
 1369 08a4 63723100 		.ascii	"cr1\000"
 1370 08a8 0D       		.byte	0xd
 1371 08a9 CE       		.byte	0xce
 1372 08aa 91000000 		.4byte	0x91
 1373 08ae 02       		.byte	0x2
 1374 08af 23       		.byte	0x23
 1375 08b0 0C       		.uleb128 0xc
 1376 08b1 07       		.uleb128 0x7
 1377 08b2 63723200 		.ascii	"cr2\000"
 1378 08b6 0D       		.byte	0xd
 1379 08b7 D5       		.byte	0xd5
 1380 08b8 91000000 		.4byte	0x91
 1381 08bc 02       		.byte	0x2
 1382 08bd 23       		.byte	0x23
 1383 08be 10       		.uleb128 0x10
 1384 08bf 06       		.uleb128 0x6
 1385 08c0 E9040000 		.4byte	.LASF116
 1386 08c4 0D       		.byte	0xd
 1387 08c5 DB       		.byte	0xdb
 1388 08c6 91000000 		.4byte	0x91
 1389 08ca 02       		.byte	0x2
 1390 08cb 23       		.byte	0x23
 1391 08cc 14       		.uleb128 0x14
 1392 08cd 06       		.uleb128 0x6
 1393 08ce 15060000 		.4byte	.LASF117
 1394 08d2 0D       		.byte	0xd
 1395 08d3 E1       		.byte	0xe1
 1396 08d4 91000000 		.4byte	0x91
 1397 08d8 02       		.byte	0x2
 1398 08d9 23       		.byte	0x23
 1399 08da 18       		.uleb128 0x18
 1400 08db 06       		.uleb128 0x6
 1401 08dc 93050000 		.4byte	.LASF118
 1402 08e0 0D       		.byte	0xd
 1403 08e1 E6       		.byte	0xe6
 1404 08e2 91000000 		.4byte	0x91
 1405 08e6 02       		.byte	0x2
 1406 08e7 23       		.byte	0x23
 1407 08e8 1C       		.uleb128 0x1c
 1408 08e9 06       		.uleb128 0x6
 1409 08ea 98050000 		.4byte	.LASF119
 1410 08ee 0D       		.byte	0xd
 1411 08ef EB       		.byte	0xeb
 1412 08f0 91000000 		.4byte	0x91
 1413 08f4 02       		.byte	0x2
 1414 08f5 23       		.byte	0x23
 1415 08f6 20       		.uleb128 0x20
ARM GAS  /var/folders/pt/gxfsd_x53tx3h6kb8dkzftl80000gr/T//cc6oOow0.s 			page 26


 1416 08f7 06       		.uleb128 0x6
 1417 08f8 9D050000 		.4byte	.LASF120
 1418 08fc 0D       		.byte	0xd
 1419 08fd F0       		.byte	0xf0
 1420 08fe 91000000 		.4byte	0x91
 1421 0902 02       		.byte	0x2
 1422 0903 23       		.byte	0x23
 1423 0904 24       		.uleb128 0x24
 1424 0905 00       		.byte	0
 1425 0906 03       		.uleb128 0x3
 1426 0907 45060000 		.4byte	.LASF121
 1427 090b 0D       		.byte	0xd
 1428 090c F1       		.byte	0xf1
 1429 090d 63080000 		.4byte	0x863
 1430 0911 08       		.uleb128 0x8
 1431 0912 04       		.byte	0x4
 1432 0913 0D       		.byte	0xd
 1433 0914 F7       		.byte	0xf7
 1434 0915 28090000 		.4byte	0x928
 1435 0919 06       		.uleb128 0x6
 1436 091a F1010000 		.4byte	.LASF122
 1437 091e 0D       		.byte	0xd
 1438 091f F8       		.byte	0xf8
 1439 0920 91000000 		.4byte	0x91
 1440 0924 02       		.byte	0x2
 1441 0925 23       		.byte	0x23
 1442 0926 00       		.uleb128 0
 1443 0927 00       		.byte	0
 1444 0928 03       		.uleb128 0x3
 1445 0929 D7040000 		.4byte	.LASF123
 1446 092d 0D       		.byte	0xd
 1447 092e F9       		.byte	0xf9
 1448 092f 11090000 		.4byte	0x911
 1449 0933 09       		.uleb128 0x9
 1450 0934 04       		.byte	0x4
 1451 0935 39090000 		.4byte	0x939
 1452 0939 10       		.uleb128 0x10
 1453 093a 28090000 		.4byte	0x928
 1454 093e 09       		.uleb128 0x9
 1455 093f 04       		.byte	0x4
 1456 0940 44090000 		.4byte	0x944
 1457 0944 10       		.uleb128 0x10
 1458 0945 06090000 		.4byte	0x906
 1459 0949 09       		.uleb128 0x9
 1460 094a 04       		.byte	0x4
 1461 094b 34060000 		.4byte	0x634
 1462 094f 09       		.uleb128 0x9
 1463 0950 04       		.byte	0x4
 1464 0951 55090000 		.4byte	0x955
 1465 0955 10       		.uleb128 0x10
 1466 0956 ED060000 		.4byte	0x6ed
 1467 095a 03       		.uleb128 0x3
 1468 095b CA050000 		.4byte	.LASF124
 1469 095f 0E       		.byte	0xe
 1470 0960 39       		.byte	0x39
 1471 0961 F0040000 		.4byte	0x4f0
 1472 0965 16       		.uleb128 0x16
ARM GAS  /var/folders/pt/gxfsd_x53tx3h6kb8dkzftl80000gr/T//cc6oOow0.s 			page 27


 1473 0966 01       		.byte	0x1
 1474 0967 0F       		.byte	0xf
 1475 0968 8D       		.byte	0x8d
 1476 0969 C2090000 		.4byte	0x9c2
 1477 096d 17       		.uleb128 0x17
 1478 096e 61010000 		.4byte	.LASF125
 1479 0972 7F       		.sleb128 -1
 1480 0973 17       		.uleb128 0x17
 1481 0974 92020000 		.4byte	.LASF126
 1482 0978 00       		.sleb128 0
 1483 0979 17       		.uleb128 0x17
 1484 097a A0020000 		.4byte	.LASF127
 1485 097e 01       		.sleb128 1
 1486 097f 17       		.uleb128 0x17
 1487 0980 AE020000 		.4byte	.LASF128
 1488 0984 02       		.sleb128 2
 1489 0985 17       		.uleb128 0x17
 1490 0986 BC020000 		.4byte	.LASF129
 1491 098a 03       		.sleb128 3
 1492 098b 17       		.uleb128 0x17
 1493 098c CA020000 		.4byte	.LASF130
 1494 0990 04       		.sleb128 4
 1495 0991 17       		.uleb128 0x17
 1496 0992 D8020000 		.4byte	.LASF131
 1497 0996 05       		.sleb128 5
 1498 0997 17       		.uleb128 0x17
 1499 0998 E6020000 		.4byte	.LASF132
 1500 099c 06       		.sleb128 6
 1501 099d 17       		.uleb128 0x17
 1502 099e F4020000 		.4byte	.LASF133
 1503 09a2 07       		.sleb128 7
 1504 09a3 17       		.uleb128 0x17
 1505 09a4 02030000 		.4byte	.LASF134
 1506 09a8 08       		.sleb128 8
 1507 09a9 17       		.uleb128 0x17
 1508 09aa 66050000 		.4byte	.LASF135
 1509 09ae 09       		.sleb128 9
 1510 09af 17       		.uleb128 0x17
 1511 09b0 75050000 		.4byte	.LASF136
 1512 09b4 0A       		.sleb128 10
 1513 09b5 17       		.uleb128 0x17
 1514 09b6 84050000 		.4byte	.LASF137
 1515 09ba 0B       		.sleb128 11
 1516 09bb 17       		.uleb128 0x17
 1517 09bc 77000000 		.4byte	.LASF138
 1518 09c0 0C       		.sleb128 12
 1519 09c1 00       		.byte	0
 1520 09c2 16       		.uleb128 0x16
 1521 09c3 01       		.byte	0x1
 1522 09c4 0F       		.byte	0xf
 1523 09c5 A2       		.byte	0xa2
 1524 09c6 D7090000 		.4byte	0x9d7
 1525 09ca 17       		.uleb128 0x17
 1526 09cb BC060000 		.4byte	.LASF139
 1527 09cf 00       		.sleb128 0
 1528 09d0 17       		.uleb128 0x17
 1529 09d1 4E000000 		.4byte	.LASF140
ARM GAS  /var/folders/pt/gxfsd_x53tx3h6kb8dkzftl80000gr/T//cc6oOow0.s 			page 28


 1530 09d5 01       		.sleb128 1
 1531 09d6 00       		.byte	0
 1532 09d7 16       		.uleb128 0x16
 1533 09d8 01       		.byte	0x1
 1534 09d9 10       		.byte	0x10
 1535 09da 46       		.byte	0x46
 1536 09db 1D0A0000 		.4byte	0xa1d
 1537 09df 17       		.uleb128 0x17
 1538 09e0 E2030000 		.4byte	.LASF141
 1539 09e4 00       		.sleb128 0
 1540 09e5 17       		.uleb128 0x17
 1541 09e6 0B050000 		.4byte	.LASF142
 1542 09ea 01       		.sleb128 1
 1543 09eb 17       		.uleb128 0x17
 1544 09ec 19050000 		.4byte	.LASF143
 1545 09f0 02       		.sleb128 2
 1546 09f1 17       		.uleb128 0x17
 1547 09f2 27050000 		.4byte	.LASF144
 1548 09f6 03       		.sleb128 3
 1549 09f7 17       		.uleb128 0x17
 1550 09f8 35050000 		.4byte	.LASF145
 1551 09fc 04       		.sleb128 4
 1552 09fd 17       		.uleb128 0x17
 1553 09fe F0030000 		.4byte	.LASF146
 1554 0a02 05       		.sleb128 5
 1555 0a03 17       		.uleb128 0x17
 1556 0a04 4A050000 		.4byte	.LASF147
 1557 0a08 06       		.sleb128 6
 1558 0a09 17       		.uleb128 0x17
 1559 0a0a 58050000 		.4byte	.LASF148
 1560 0a0e 07       		.sleb128 7
 1561 0a0f 17       		.uleb128 0x17
 1562 0a10 E7010000 		.4byte	.LASF149
 1563 0a14 08       		.sleb128 8
 1564 0a15 17       		.uleb128 0x17
 1565 0a16 2D060000 		.4byte	.LASF150
 1566 0a1a E300     		.sleb128 99
 1567 0a1c 00       		.byte	0
 1568 0a1d 09       		.uleb128 0x9
 1569 0a1e 04       		.byte	0x4
 1570 0a1f 5A090000 		.4byte	0x95a
 1571 0a23 09       		.uleb128 0x9
 1572 0a24 04       		.byte	0x4
 1573 0a25 290A0000 		.4byte	0xa29
 1574 0a29 09       		.uleb128 0x9
 1575 0a2a 04       		.byte	0x4
 1576 0a2b FA030000 		.4byte	0x3fa
 1577 0a2f 19       		.uleb128 0x19
 1578 0a30 01       		.byte	0x1
 1579 0a31 5F020000 		.4byte	.LASF166
 1580 0a35 01       		.byte	0x1
 1581 0a36 78       		.byte	0x78
 1582 0a37 01       		.byte	0x1
 1583 0a38 5B000000 		.4byte	0x5b
 1584 0a3c 01       		.byte	0x1
 1585 0a3d 4D0A0000 		.4byte	0xa4d
 1586 0a41 1A       		.uleb128 0x1a
ARM GAS  /var/folders/pt/gxfsd_x53tx3h6kb8dkzftl80000gr/T//cc6oOow0.s 			page 29


 1587 0a42 73060000 		.4byte	.LASF167
 1588 0a46 01       		.byte	0x1
 1589 0a47 78       		.byte	0x78
 1590 0a48 5B000000 		.4byte	0x5b
 1591 0a4c 00       		.byte	0
 1592 0a4d 1B       		.uleb128 0x1b
 1593 0a4e 01       		.byte	0x1
 1594 0a4f B7050000 		.4byte	.LASF151
 1595 0a53 01       		.byte	0x1
 1596 0a54 67       		.byte	0x67
 1597 0a55 01       		.byte	0x1
 1598 0a56 00000000 		.4byte	.LFB63
 1599 0a5a 38000000 		.4byte	.LFE63
 1600 0a5e 00000000 		.4byte	.LLST0
 1601 0a62 01       		.byte	0x1
 1602 0a63 B60A0000 		.4byte	0xab6
 1603 0a67 1C       		.uleb128 0x1c
 1604 0a68 0A000000 		.4byte	.LVL0
 1605 0a6c A80B0000 		.4byte	0xba8
 1606 0a70 1D       		.uleb128 0x1d
 1607 0a71 1C000000 		.4byte	.LVL1
 1608 0a75 B30B0000 		.4byte	0xbb3
 1609 0a79 8D0A0000 		.4byte	0xa8d
 1610 0a7d 1E       		.uleb128 0x1e
 1611 0a7e 01       		.byte	0x1
 1612 0a7f 51       		.byte	0x51
 1613 0a80 05       		.byte	0x5
 1614 0a81 03       		.byte	0x3
 1615 0a82 00000000 		.4byte	.LANCHOR0
 1616 0a86 1E       		.uleb128 0x1e
 1617 0a87 01       		.byte	0x1
 1618 0a88 50       		.byte	0x50
 1619 0a89 02       		.byte	0x2
 1620 0a8a 74       		.byte	0x74
 1621 0a8b 00       		.sleb128 0
 1622 0a8c 00       		.byte	0
 1623 0a8d 1F       		.uleb128 0x1f
 1624 0a8e 38000000 		.4byte	.LVL2
 1625 0a92 01       		.byte	0x1
 1626 0a93 CD0B0000 		.4byte	0xbcd
 1627 0a97 1E       		.uleb128 0x1e
 1628 0a98 01       		.byte	0x1
 1629 0a99 53       		.byte	0x53
 1630 0a9a 01       		.byte	0x1
 1631 0a9b 31       		.byte	0x31
 1632 0a9c 1E       		.uleb128 0x1e
 1633 0a9d 01       		.byte	0x1
 1634 0a9e 52       		.byte	0x52
 1635 0a9f 05       		.byte	0x5
 1636 0aa0 03       		.byte	0x3
 1637 0aa1 00000000 		.4byte	.LANCHOR2
 1638 0aa5 1E       		.uleb128 0x1e
 1639 0aa6 01       		.byte	0x1
 1640 0aa7 51       		.byte	0x51
 1641 0aa8 05       		.byte	0x5
 1642 0aa9 03       		.byte	0x3
 1643 0aaa 00000000 		.4byte	.LANCHOR1
ARM GAS  /var/folders/pt/gxfsd_x53tx3h6kb8dkzftl80000gr/T//cc6oOow0.s 			page 30


 1644 0aae 1E       		.uleb128 0x1e
 1645 0aaf 01       		.byte	0x1
 1646 0ab0 50       		.byte	0x50
 1647 0ab1 02       		.byte	0x2
 1648 0ab2 74       		.byte	0x74
 1649 0ab3 00       		.sleb128 0
 1650 0ab4 00       		.byte	0
 1651 0ab5 00       		.byte	0
 1652 0ab6 20       		.uleb128 0x20
 1653 0ab7 2F0A0000 		.4byte	0xa2f
 1654 0abb 00000000 		.4byte	.LFB64
 1655 0abf 18000000 		.4byte	.LFE64
 1656 0ac3 02       		.byte	0x2
 1657 0ac4 7D       		.byte	0x7d
 1658 0ac5 00       		.sleb128 0
 1659 0ac6 01       		.byte	0x1
 1660 0ac7 D50A0000 		.4byte	0xad5
 1661 0acb 21       		.uleb128 0x21
 1662 0acc 410A0000 		.4byte	0xa41
 1663 0ad0 20000000 		.4byte	.LLST1
 1664 0ad4 00       		.byte	0
 1665 0ad5 1B       		.uleb128 0x1b
 1666 0ad6 01       		.byte	0x1
 1667 0ad7 1B060000 		.4byte	.LASF152
 1668 0adb 01       		.byte	0x1
 1669 0adc 88       		.byte	0x88
 1670 0add 01       		.byte	0x1
 1671 0ade 00000000 		.4byte	.LFB65
 1672 0ae2 28000000 		.4byte	.LFE65
 1673 0ae6 41000000 		.4byte	.LLST2
 1674 0aea 01       		.byte	0x1
 1675 0aeb 490B0000 		.4byte	0xb49
 1676 0aef 22       		.uleb128 0x22
 1677 0af0 63687000 		.ascii	"chp\000"
 1678 0af4 01       		.byte	0x1
 1679 0af5 88       		.byte	0x88
 1680 0af6 1D0A0000 		.4byte	0xa1d
 1681 0afa 61000000 		.4byte	.LLST3
 1682 0afe 23       		.uleb128 0x23
 1683 0aff 79060000 		.4byte	.LASF153
 1684 0b03 01       		.byte	0x1
 1685 0b04 88       		.byte	0x88
 1686 0b05 29000000 		.4byte	0x29
 1687 0b09 7F000000 		.4byte	.LLST4
 1688 0b0d 23       		.uleb128 0x23
 1689 0b0e 9F060000 		.4byte	.LASF154
 1690 0b12 01       		.byte	0x1
 1691 0b13 88       		.byte	0x88
 1692 0b14 230A0000 		.4byte	0xa23
 1693 0b18 A0000000 		.4byte	.LLST5
 1694 0b1c 24       		.uleb128 0x24
 1695 0b1d 6900     		.ascii	"i\000"
 1696 0b1f 01       		.byte	0x1
 1697 0b20 8A       		.byte	0x8a
 1698 0b21 29000000 		.4byte	0x29
 1699 0b25 C1000000 		.4byte	.LLST6
 1700 0b29 25       		.uleb128 0x25
ARM GAS  /var/folders/pt/gxfsd_x53tx3h6kb8dkzftl80000gr/T//cc6oOow0.s 			page 31


 1701 0b2a 18000000 		.4byte	.LVL8
 1702 0b2e F10B0000 		.4byte	0xbf1
 1703 0b32 1E       		.uleb128 0x1e
 1704 0b33 01       		.byte	0x1
 1705 0b34 52       		.byte	0x52
 1706 0b35 02       		.byte	0x2
 1707 0b36 74       		.byte	0x74
 1708 0b37 7F       		.sleb128 -1
 1709 0b38 1E       		.uleb128 0x1e
 1710 0b39 01       		.byte	0x1
 1711 0b3a 51       		.byte	0x51
 1712 0b3b 05       		.byte	0x5
 1713 0b3c 03       		.byte	0x3
 1714 0b3d 00000000 		.4byte	.LC0
 1715 0b41 1E       		.uleb128 0x1e
 1716 0b42 01       		.byte	0x1
 1717 0b43 50       		.byte	0x50
 1718 0b44 02       		.byte	0x2
 1719 0b45 76       		.byte	0x76
 1720 0b46 00       		.sleb128 0
 1721 0b47 00       		.byte	0
 1722 0b48 00       		.byte	0
 1723 0b49 26       		.uleb128 0x26
 1724 0b4a 98030000 		.4byte	.LASF155
 1725 0b4e 01       		.byte	0x1
 1726 0b4f 38       		.byte	0x38
 1727 0b50 28090000 		.4byte	0x928
 1728 0b54 05       		.byte	0x5
 1729 0b55 03       		.byte	0x3
 1730 0b56 00000000 		.4byte	adccfg
 1731 0b5a 27       		.uleb128 0x27
 1732 0b5b 30070000 		.4byte	0x730
 1733 0b5f 6A0B0000 		.4byte	0xb6a
 1734 0b63 28       		.uleb128 0x28
 1735 0b64 66030000 		.4byte	0x366
 1736 0b68 07       		.byte	0x7
 1737 0b69 00       		.byte	0
 1738 0b6a 26       		.uleb128 0x26
 1739 0b6b 28000000 		.4byte	.LASF156
 1740 0b6f 01       		.byte	0x1
 1741 0b70 3C       		.byte	0x3c
 1742 0b71 5A0B0000 		.4byte	0xb5a
 1743 0b75 05       		.byte	0x5
 1744 0b76 03       		.byte	0x3
 1745 0b77 00000000 		.4byte	samples_buf
 1746 0b7b 26       		.uleb128 0x26
 1747 0b7c D1040000 		.4byte	.LASF157
 1748 0b80 01       		.byte	0x1
 1749 0b81 3F       		.byte	0x3f
 1750 0b82 06090000 		.4byte	0x906
 1751 0b86 05       		.byte	0x5
 1752 0b87 03       		.byte	0x3
 1753 0b88 00000000 		.4byte	adccg
 1754 0b8c 29       		.uleb128 0x29
 1755 0b8d 92000000 		.4byte	.LASF158
 1756 0b91 11       		.byte	0x11
 1757 0b92 0706     		.2byte	0x607
ARM GAS  /var/folders/pt/gxfsd_x53tx3h6kb8dkzftl80000gr/T//cc6oOow0.s 			page 32


 1758 0b94 FB040000 		.4byte	0x4fb
 1759 0b98 01       		.byte	0x1
 1760 0b99 01       		.byte	0x1
 1761 0b9a 29       		.uleb128 0x29
 1762 0b9b 27060000 		.4byte	.LASF159
 1763 0b9f 0D       		.byte	0xd
 1764 0ba0 7601     		.2byte	0x176
 1765 0ba2 60070000 		.4byte	0x760
 1766 0ba6 01       		.byte	0x1
 1767 0ba7 01       		.byte	0x1
 1768 0ba8 2A       		.uleb128 0x2a
 1769 0ba9 01       		.byte	0x1
 1770 0baa 28030000 		.4byte	.LASF168
 1771 0bae 0C       		.byte	0xc
 1772 0baf 1C01     		.2byte	0x11c
 1773 0bb1 01       		.byte	0x1
 1774 0bb2 01       		.byte	0x1
 1775 0bb3 2B       		.uleb128 0x2b
 1776 0bb4 01       		.byte	0x1
 1777 0bb5 F8050000 		.4byte	.LASF160
 1778 0bb9 0C       		.byte	0xc
 1779 0bba 1E01     		.2byte	0x11e
 1780 0bbc 01       		.byte	0x1
 1781 0bbd 01       		.byte	0x1
 1782 0bbe CD0B0000 		.4byte	0xbcd
 1783 0bc2 12       		.uleb128 0x12
 1784 0bc3 35080000 		.4byte	0x835
 1785 0bc7 12       		.uleb128 0x12
 1786 0bc8 33090000 		.4byte	0x933
 1787 0bcc 00       		.byte	0
 1788 0bcd 2B       		.uleb128 0x2b
 1789 0bce 01       		.byte	0x1
 1790 0bcf D4050000 		.4byte	.LASF161
 1791 0bd3 0C       		.byte	0xc
 1792 0bd4 2001     		.2byte	0x120
 1793 0bd6 01       		.byte	0x1
 1794 0bd7 01       		.byte	0x1
 1795 0bd8 F10B0000 		.4byte	0xbf1
 1796 0bdc 12       		.uleb128 0x12
 1797 0bdd 35080000 		.4byte	0x835
 1798 0be1 12       		.uleb128 0x12
 1799 0be2 3E090000 		.4byte	0x93e
 1800 0be6 12       		.uleb128 0x12
 1801 0be7 3B080000 		.4byte	0x83b
 1802 0beb 12       		.uleb128 0x12
 1803 0bec 30000000 		.4byte	0x30
 1804 0bf0 00       		.byte	0
 1805 0bf1 2C       		.uleb128 0x2c
 1806 0bf2 01       		.byte	0x1
 1807 0bf3 C7010000 		.4byte	.LASF162
 1808 0bf7 12       		.byte	0x12
 1809 0bf8 3B       		.byte	0x3b
 1810 0bf9 01       		.byte	0x1
 1811 0bfa 29000000 		.4byte	0x29
 1812 0bfe 01       		.byte	0x1
 1813 0bff 12       		.uleb128 0x12
 1814 0c00 1D0A0000 		.4byte	0xa1d
ARM GAS  /var/folders/pt/gxfsd_x53tx3h6kb8dkzftl80000gr/T//cc6oOow0.s 			page 33


 1815 0c04 12       		.uleb128 0x12
 1816 0c05 EF030000 		.4byte	0x3ef
 1817 0c09 2D       		.uleb128 0x2d
 1818 0c0a 00       		.byte	0
 1819 0c0b 00       		.byte	0
 1820              		.section	.debug_abbrev,"",%progbits
 1821              	.Ldebug_abbrev0:
 1822 0000 01       		.uleb128 0x1
 1823 0001 11       		.uleb128 0x11
 1824 0002 01       		.byte	0x1
 1825 0003 25       		.uleb128 0x25
 1826 0004 0E       		.uleb128 0xe
 1827 0005 13       		.uleb128 0x13
 1828 0006 0B       		.uleb128 0xb
 1829 0007 03       		.uleb128 0x3
 1830 0008 0E       		.uleb128 0xe
 1831 0009 1B       		.uleb128 0x1b
 1832 000a 0E       		.uleb128 0xe
 1833 000b 55       		.uleb128 0x55
 1834 000c 06       		.uleb128 0x6
 1835 000d 11       		.uleb128 0x11
 1836 000e 01       		.uleb128 0x1
 1837 000f 52       		.uleb128 0x52
 1838 0010 01       		.uleb128 0x1
 1839 0011 10       		.uleb128 0x10
 1840 0012 06       		.uleb128 0x6
 1841 0013 00       		.byte	0
 1842 0014 00       		.byte	0
 1843 0015 02       		.uleb128 0x2
 1844 0016 24       		.uleb128 0x24
 1845 0017 00       		.byte	0
 1846 0018 0B       		.uleb128 0xb
 1847 0019 0B       		.uleb128 0xb
 1848 001a 3E       		.uleb128 0x3e
 1849 001b 0B       		.uleb128 0xb
 1850 001c 03       		.uleb128 0x3
 1851 001d 08       		.uleb128 0x8
 1852 001e 00       		.byte	0
 1853 001f 00       		.byte	0
 1854 0020 03       		.uleb128 0x3
 1855 0021 16       		.uleb128 0x16
 1856 0022 00       		.byte	0
 1857 0023 03       		.uleb128 0x3
 1858 0024 0E       		.uleb128 0xe
 1859 0025 3A       		.uleb128 0x3a
 1860 0026 0B       		.uleb128 0xb
 1861 0027 3B       		.uleb128 0x3b
 1862 0028 0B       		.uleb128 0xb
 1863 0029 49       		.uleb128 0x49
 1864 002a 13       		.uleb128 0x13
 1865 002b 00       		.byte	0
 1866 002c 00       		.byte	0
 1867 002d 04       		.uleb128 0x4
 1868 002e 24       		.uleb128 0x24
 1869 002f 00       		.byte	0
 1870 0030 0B       		.uleb128 0xb
 1871 0031 0B       		.uleb128 0xb
ARM GAS  /var/folders/pt/gxfsd_x53tx3h6kb8dkzftl80000gr/T//cc6oOow0.s 			page 34


 1872 0032 3E       		.uleb128 0x3e
 1873 0033 0B       		.uleb128 0xb
 1874 0034 03       		.uleb128 0x3
 1875 0035 0E       		.uleb128 0xe
 1876 0036 00       		.byte	0
 1877 0037 00       		.byte	0
 1878 0038 05       		.uleb128 0x5
 1879 0039 13       		.uleb128 0x13
 1880 003a 01       		.byte	0x1
 1881 003b 03       		.uleb128 0x3
 1882 003c 0E       		.uleb128 0xe
 1883 003d 0B       		.uleb128 0xb
 1884 003e 0B       		.uleb128 0xb
 1885 003f 3A       		.uleb128 0x3a
 1886 0040 0B       		.uleb128 0xb
 1887 0041 3B       		.uleb128 0x3b
 1888 0042 0B       		.uleb128 0xb
 1889 0043 01       		.uleb128 0x1
 1890 0044 13       		.uleb128 0x13
 1891 0045 00       		.byte	0
 1892 0046 00       		.byte	0
 1893 0047 06       		.uleb128 0x6
 1894 0048 0D       		.uleb128 0xd
 1895 0049 00       		.byte	0
 1896 004a 03       		.uleb128 0x3
 1897 004b 0E       		.uleb128 0xe
 1898 004c 3A       		.uleb128 0x3a
 1899 004d 0B       		.uleb128 0xb
 1900 004e 3B       		.uleb128 0x3b
 1901 004f 0B       		.uleb128 0xb
 1902 0050 49       		.uleb128 0x49
 1903 0051 13       		.uleb128 0x13
 1904 0052 38       		.uleb128 0x38
 1905 0053 0A       		.uleb128 0xa
 1906 0054 00       		.byte	0
 1907 0055 00       		.byte	0
 1908 0056 07       		.uleb128 0x7
 1909 0057 0D       		.uleb128 0xd
 1910 0058 00       		.byte	0
 1911 0059 03       		.uleb128 0x3
 1912 005a 08       		.uleb128 0x8
 1913 005b 3A       		.uleb128 0x3a
 1914 005c 0B       		.uleb128 0xb
 1915 005d 3B       		.uleb128 0x3b
 1916 005e 0B       		.uleb128 0xb
 1917 005f 49       		.uleb128 0x49
 1918 0060 13       		.uleb128 0x13
 1919 0061 38       		.uleb128 0x38
 1920 0062 0A       		.uleb128 0xa
 1921 0063 00       		.byte	0
 1922 0064 00       		.byte	0
 1923 0065 08       		.uleb128 0x8
 1924 0066 13       		.uleb128 0x13
 1925 0067 01       		.byte	0x1
 1926 0068 0B       		.uleb128 0xb
 1927 0069 0B       		.uleb128 0xb
 1928 006a 3A       		.uleb128 0x3a
ARM GAS  /var/folders/pt/gxfsd_x53tx3h6kb8dkzftl80000gr/T//cc6oOow0.s 			page 35


 1929 006b 0B       		.uleb128 0xb
 1930 006c 3B       		.uleb128 0x3b
 1931 006d 0B       		.uleb128 0xb
 1932 006e 01       		.uleb128 0x1
 1933 006f 13       		.uleb128 0x13
 1934 0070 00       		.byte	0
 1935 0071 00       		.byte	0
 1936 0072 09       		.uleb128 0x9
 1937 0073 0F       		.uleb128 0xf
 1938 0074 00       		.byte	0
 1939 0075 0B       		.uleb128 0xb
 1940 0076 0B       		.uleb128 0xb
 1941 0077 49       		.uleb128 0x49
 1942 0078 13       		.uleb128 0x13
 1943 0079 00       		.byte	0
 1944 007a 00       		.byte	0
 1945 007b 0A       		.uleb128 0xa
 1946 007c 0F       		.uleb128 0xf
 1947 007d 00       		.byte	0
 1948 007e 0B       		.uleb128 0xb
 1949 007f 0B       		.uleb128 0xb
 1950 0080 00       		.byte	0
 1951 0081 00       		.byte	0
 1952 0082 0B       		.uleb128 0xb
 1953 0083 13       		.uleb128 0x13
 1954 0084 01       		.byte	0x1
 1955 0085 03       		.uleb128 0x3
 1956 0086 0E       		.uleb128 0xe
 1957 0087 0B       		.uleb128 0xb
 1958 0088 0B       		.uleb128 0xb
 1959 0089 3A       		.uleb128 0x3a
 1960 008a 0B       		.uleb128 0xb
 1961 008b 3B       		.uleb128 0x3b
 1962 008c 05       		.uleb128 0x5
 1963 008d 01       		.uleb128 0x1
 1964 008e 13       		.uleb128 0x13
 1965 008f 00       		.byte	0
 1966 0090 00       		.byte	0
 1967 0091 0C       		.uleb128 0xc
 1968 0092 0D       		.uleb128 0xd
 1969 0093 00       		.byte	0
 1970 0094 03       		.uleb128 0x3
 1971 0095 08       		.uleb128 0x8
 1972 0096 3A       		.uleb128 0x3a
 1973 0097 0B       		.uleb128 0xb
 1974 0098 3B       		.uleb128 0x3b
 1975 0099 05       		.uleb128 0x5
 1976 009a 49       		.uleb128 0x49
 1977 009b 13       		.uleb128 0x13
 1978 009c 38       		.uleb128 0x38
 1979 009d 0A       		.uleb128 0xa
 1980 009e 00       		.byte	0
 1981 009f 00       		.byte	0
 1982 00a0 0D       		.uleb128 0xd
 1983 00a1 35       		.uleb128 0x35
 1984 00a2 00       		.byte	0
 1985 00a3 49       		.uleb128 0x49
ARM GAS  /var/folders/pt/gxfsd_x53tx3h6kb8dkzftl80000gr/T//cc6oOow0.s 			page 36


 1986 00a4 13       		.uleb128 0x13
 1987 00a5 00       		.byte	0
 1988 00a6 00       		.byte	0
 1989 00a7 0E       		.uleb128 0xe
 1990 00a8 17       		.uleb128 0x17
 1991 00a9 01       		.byte	0x1
 1992 00aa 0B       		.uleb128 0xb
 1993 00ab 0B       		.uleb128 0xb
 1994 00ac 3A       		.uleb128 0x3a
 1995 00ad 0B       		.uleb128 0xb
 1996 00ae 3B       		.uleb128 0x3b
 1997 00af 0B       		.uleb128 0xb
 1998 00b0 01       		.uleb128 0x1
 1999 00b1 13       		.uleb128 0x13
 2000 00b2 00       		.byte	0
 2001 00b3 00       		.byte	0
 2002 00b4 0F       		.uleb128 0xf
 2003 00b5 0D       		.uleb128 0xd
 2004 00b6 00       		.byte	0
 2005 00b7 03       		.uleb128 0x3
 2006 00b8 0E       		.uleb128 0xe
 2007 00b9 3A       		.uleb128 0x3a
 2008 00ba 0B       		.uleb128 0xb
 2009 00bb 3B       		.uleb128 0x3b
 2010 00bc 0B       		.uleb128 0xb
 2011 00bd 49       		.uleb128 0x49
 2012 00be 13       		.uleb128 0x13
 2013 00bf 00       		.byte	0
 2014 00c0 00       		.byte	0
 2015 00c1 10       		.uleb128 0x10
 2016 00c2 26       		.uleb128 0x26
 2017 00c3 00       		.byte	0
 2018 00c4 49       		.uleb128 0x49
 2019 00c5 13       		.uleb128 0x13
 2020 00c6 00       		.byte	0
 2021 00c7 00       		.byte	0
 2022 00c8 11       		.uleb128 0x11
 2023 00c9 15       		.uleb128 0x15
 2024 00ca 01       		.byte	0x1
 2025 00cb 27       		.uleb128 0x27
 2026 00cc 0C       		.uleb128 0xc
 2027 00cd 49       		.uleb128 0x49
 2028 00ce 13       		.uleb128 0x13
 2029 00cf 01       		.uleb128 0x1
 2030 00d0 13       		.uleb128 0x13
 2031 00d1 00       		.byte	0
 2032 00d2 00       		.byte	0
 2033 00d3 12       		.uleb128 0x12
 2034 00d4 05       		.uleb128 0x5
 2035 00d5 00       		.byte	0
 2036 00d6 49       		.uleb128 0x49
 2037 00d7 13       		.uleb128 0x13
 2038 00d8 00       		.byte	0
 2039 00d9 00       		.byte	0
 2040 00da 13       		.uleb128 0x13
 2041 00db 13       		.uleb128 0x13
 2042 00dc 01       		.byte	0x1
ARM GAS  /var/folders/pt/gxfsd_x53tx3h6kb8dkzftl80000gr/T//cc6oOow0.s 			page 37


 2043 00dd 0B       		.uleb128 0xb
 2044 00de 0B       		.uleb128 0xb
 2045 00df 3A       		.uleb128 0x3a
 2046 00e0 0B       		.uleb128 0xb
 2047 00e1 3B       		.uleb128 0x3b
 2048 00e2 05       		.uleb128 0x5
 2049 00e3 01       		.uleb128 0x1
 2050 00e4 13       		.uleb128 0x13
 2051 00e5 00       		.byte	0
 2052 00e6 00       		.byte	0
 2053 00e7 14       		.uleb128 0x14
 2054 00e8 0D       		.uleb128 0xd
 2055 00e9 00       		.byte	0
 2056 00ea 03       		.uleb128 0x3
 2057 00eb 0E       		.uleb128 0xe
 2058 00ec 3A       		.uleb128 0x3a
 2059 00ed 0B       		.uleb128 0xb
 2060 00ee 3B       		.uleb128 0x3b
 2061 00ef 05       		.uleb128 0x5
 2062 00f0 49       		.uleb128 0x49
 2063 00f1 13       		.uleb128 0x13
 2064 00f2 38       		.uleb128 0x38
 2065 00f3 0A       		.uleb128 0xa
 2066 00f4 00       		.byte	0
 2067 00f5 00       		.byte	0
 2068 00f6 15       		.uleb128 0x15
 2069 00f7 16       		.uleb128 0x16
 2070 00f8 00       		.byte	0
 2071 00f9 03       		.uleb128 0x3
 2072 00fa 0E       		.uleb128 0xe
 2073 00fb 3A       		.uleb128 0x3a
 2074 00fc 0B       		.uleb128 0xb
 2075 00fd 3B       		.uleb128 0x3b
 2076 00fe 05       		.uleb128 0x5
 2077 00ff 49       		.uleb128 0x49
 2078 0100 13       		.uleb128 0x13
 2079 0101 00       		.byte	0
 2080 0102 00       		.byte	0
 2081 0103 16       		.uleb128 0x16
 2082 0104 04       		.uleb128 0x4
 2083 0105 01       		.byte	0x1
 2084 0106 0B       		.uleb128 0xb
 2085 0107 0B       		.uleb128 0xb
 2086 0108 3A       		.uleb128 0x3a
 2087 0109 0B       		.uleb128 0xb
 2088 010a 3B       		.uleb128 0x3b
 2089 010b 0B       		.uleb128 0xb
 2090 010c 01       		.uleb128 0x1
 2091 010d 13       		.uleb128 0x13
 2092 010e 00       		.byte	0
 2093 010f 00       		.byte	0
 2094 0110 17       		.uleb128 0x17
 2095 0111 28       		.uleb128 0x28
 2096 0112 00       		.byte	0
 2097 0113 03       		.uleb128 0x3
 2098 0114 0E       		.uleb128 0xe
 2099 0115 1C       		.uleb128 0x1c
ARM GAS  /var/folders/pt/gxfsd_x53tx3h6kb8dkzftl80000gr/T//cc6oOow0.s 			page 38


 2100 0116 0D       		.uleb128 0xd
 2101 0117 00       		.byte	0
 2102 0118 00       		.byte	0
 2103 0119 18       		.uleb128 0x18
 2104 011a 15       		.uleb128 0x15
 2105 011b 01       		.byte	0x1
 2106 011c 27       		.uleb128 0x27
 2107 011d 0C       		.uleb128 0xc
 2108 011e 01       		.uleb128 0x1
 2109 011f 13       		.uleb128 0x13
 2110 0120 00       		.byte	0
 2111 0121 00       		.byte	0
 2112 0122 19       		.uleb128 0x19
 2113 0123 2E       		.uleb128 0x2e
 2114 0124 01       		.byte	0x1
 2115 0125 3F       		.uleb128 0x3f
 2116 0126 0C       		.uleb128 0xc
 2117 0127 03       		.uleb128 0x3
 2118 0128 0E       		.uleb128 0xe
 2119 0129 3A       		.uleb128 0x3a
 2120 012a 0B       		.uleb128 0xb
 2121 012b 3B       		.uleb128 0x3b
 2122 012c 0B       		.uleb128 0xb
 2123 012d 27       		.uleb128 0x27
 2124 012e 0C       		.uleb128 0xc
 2125 012f 49       		.uleb128 0x49
 2126 0130 13       		.uleb128 0x13
 2127 0131 20       		.uleb128 0x20
 2128 0132 0B       		.uleb128 0xb
 2129 0133 01       		.uleb128 0x1
 2130 0134 13       		.uleb128 0x13
 2131 0135 00       		.byte	0
 2132 0136 00       		.byte	0
 2133 0137 1A       		.uleb128 0x1a
 2134 0138 05       		.uleb128 0x5
 2135 0139 00       		.byte	0
 2136 013a 03       		.uleb128 0x3
 2137 013b 0E       		.uleb128 0xe
 2138 013c 3A       		.uleb128 0x3a
 2139 013d 0B       		.uleb128 0xb
 2140 013e 3B       		.uleb128 0x3b
 2141 013f 0B       		.uleb128 0xb
 2142 0140 49       		.uleb128 0x49
 2143 0141 13       		.uleb128 0x13
 2144 0142 00       		.byte	0
 2145 0143 00       		.byte	0
 2146 0144 1B       		.uleb128 0x1b
 2147 0145 2E       		.uleb128 0x2e
 2148 0146 01       		.byte	0x1
 2149 0147 3F       		.uleb128 0x3f
 2150 0148 0C       		.uleb128 0xc
 2151 0149 03       		.uleb128 0x3
 2152 014a 0E       		.uleb128 0xe
 2153 014b 3A       		.uleb128 0x3a
 2154 014c 0B       		.uleb128 0xb
 2155 014d 3B       		.uleb128 0x3b
 2156 014e 0B       		.uleb128 0xb
ARM GAS  /var/folders/pt/gxfsd_x53tx3h6kb8dkzftl80000gr/T//cc6oOow0.s 			page 39


 2157 014f 27       		.uleb128 0x27
 2158 0150 0C       		.uleb128 0xc
 2159 0151 11       		.uleb128 0x11
 2160 0152 01       		.uleb128 0x1
 2161 0153 12       		.uleb128 0x12
 2162 0154 01       		.uleb128 0x1
 2163 0155 40       		.uleb128 0x40
 2164 0156 06       		.uleb128 0x6
 2165 0157 9742     		.uleb128 0x2117
 2166 0159 0C       		.uleb128 0xc
 2167 015a 01       		.uleb128 0x1
 2168 015b 13       		.uleb128 0x13
 2169 015c 00       		.byte	0
 2170 015d 00       		.byte	0
 2171 015e 1C       		.uleb128 0x1c
 2172 015f 898201   		.uleb128 0x4109
 2173 0162 00       		.byte	0
 2174 0163 11       		.uleb128 0x11
 2175 0164 01       		.uleb128 0x1
 2176 0165 31       		.uleb128 0x31
 2177 0166 13       		.uleb128 0x13
 2178 0167 00       		.byte	0
 2179 0168 00       		.byte	0
 2180 0169 1D       		.uleb128 0x1d
 2181 016a 898201   		.uleb128 0x4109
 2182 016d 01       		.byte	0x1
 2183 016e 11       		.uleb128 0x11
 2184 016f 01       		.uleb128 0x1
 2185 0170 31       		.uleb128 0x31
 2186 0171 13       		.uleb128 0x13
 2187 0172 01       		.uleb128 0x1
 2188 0173 13       		.uleb128 0x13
 2189 0174 00       		.byte	0
 2190 0175 00       		.byte	0
 2191 0176 1E       		.uleb128 0x1e
 2192 0177 8A8201   		.uleb128 0x410a
 2193 017a 00       		.byte	0
 2194 017b 02       		.uleb128 0x2
 2195 017c 0A       		.uleb128 0xa
 2196 017d 9142     		.uleb128 0x2111
 2197 017f 0A       		.uleb128 0xa
 2198 0180 00       		.byte	0
 2199 0181 00       		.byte	0
 2200 0182 1F       		.uleb128 0x1f
 2201 0183 898201   		.uleb128 0x4109
 2202 0186 01       		.byte	0x1
 2203 0187 11       		.uleb128 0x11
 2204 0188 01       		.uleb128 0x1
 2205 0189 9542     		.uleb128 0x2115
 2206 018b 0C       		.uleb128 0xc
 2207 018c 31       		.uleb128 0x31
 2208 018d 13       		.uleb128 0x13
 2209 018e 00       		.byte	0
 2210 018f 00       		.byte	0
 2211 0190 20       		.uleb128 0x20
 2212 0191 2E       		.uleb128 0x2e
 2213 0192 01       		.byte	0x1
ARM GAS  /var/folders/pt/gxfsd_x53tx3h6kb8dkzftl80000gr/T//cc6oOow0.s 			page 40


 2214 0193 31       		.uleb128 0x31
 2215 0194 13       		.uleb128 0x13
 2216 0195 11       		.uleb128 0x11
 2217 0196 01       		.uleb128 0x1
 2218 0197 12       		.uleb128 0x12
 2219 0198 01       		.uleb128 0x1
 2220 0199 40       		.uleb128 0x40
 2221 019a 0A       		.uleb128 0xa
 2222 019b 9742     		.uleb128 0x2117
 2223 019d 0C       		.uleb128 0xc
 2224 019e 01       		.uleb128 0x1
 2225 019f 13       		.uleb128 0x13
 2226 01a0 00       		.byte	0
 2227 01a1 00       		.byte	0
 2228 01a2 21       		.uleb128 0x21
 2229 01a3 05       		.uleb128 0x5
 2230 01a4 00       		.byte	0
 2231 01a5 31       		.uleb128 0x31
 2232 01a6 13       		.uleb128 0x13
 2233 01a7 02       		.uleb128 0x2
 2234 01a8 06       		.uleb128 0x6
 2235 01a9 00       		.byte	0
 2236 01aa 00       		.byte	0
 2237 01ab 22       		.uleb128 0x22
 2238 01ac 05       		.uleb128 0x5
 2239 01ad 00       		.byte	0
 2240 01ae 03       		.uleb128 0x3
 2241 01af 08       		.uleb128 0x8
 2242 01b0 3A       		.uleb128 0x3a
 2243 01b1 0B       		.uleb128 0xb
 2244 01b2 3B       		.uleb128 0x3b
 2245 01b3 0B       		.uleb128 0xb
 2246 01b4 49       		.uleb128 0x49
 2247 01b5 13       		.uleb128 0x13
 2248 01b6 02       		.uleb128 0x2
 2249 01b7 06       		.uleb128 0x6
 2250 01b8 00       		.byte	0
 2251 01b9 00       		.byte	0
 2252 01ba 23       		.uleb128 0x23
 2253 01bb 05       		.uleb128 0x5
 2254 01bc 00       		.byte	0
 2255 01bd 03       		.uleb128 0x3
 2256 01be 0E       		.uleb128 0xe
 2257 01bf 3A       		.uleb128 0x3a
 2258 01c0 0B       		.uleb128 0xb
 2259 01c1 3B       		.uleb128 0x3b
 2260 01c2 0B       		.uleb128 0xb
 2261 01c3 49       		.uleb128 0x49
 2262 01c4 13       		.uleb128 0x13
 2263 01c5 02       		.uleb128 0x2
 2264 01c6 06       		.uleb128 0x6
 2265 01c7 00       		.byte	0
 2266 01c8 00       		.byte	0
 2267 01c9 24       		.uleb128 0x24
 2268 01ca 34       		.uleb128 0x34
 2269 01cb 00       		.byte	0
 2270 01cc 03       		.uleb128 0x3
ARM GAS  /var/folders/pt/gxfsd_x53tx3h6kb8dkzftl80000gr/T//cc6oOow0.s 			page 41


 2271 01cd 08       		.uleb128 0x8
 2272 01ce 3A       		.uleb128 0x3a
 2273 01cf 0B       		.uleb128 0xb
 2274 01d0 3B       		.uleb128 0x3b
 2275 01d1 0B       		.uleb128 0xb
 2276 01d2 49       		.uleb128 0x49
 2277 01d3 13       		.uleb128 0x13
 2278 01d4 02       		.uleb128 0x2
 2279 01d5 06       		.uleb128 0x6
 2280 01d6 00       		.byte	0
 2281 01d7 00       		.byte	0
 2282 01d8 25       		.uleb128 0x25
 2283 01d9 898201   		.uleb128 0x4109
 2284 01dc 01       		.byte	0x1
 2285 01dd 11       		.uleb128 0x11
 2286 01de 01       		.uleb128 0x1
 2287 01df 31       		.uleb128 0x31
 2288 01e0 13       		.uleb128 0x13
 2289 01e1 00       		.byte	0
 2290 01e2 00       		.byte	0
 2291 01e3 26       		.uleb128 0x26
 2292 01e4 34       		.uleb128 0x34
 2293 01e5 00       		.byte	0
 2294 01e6 03       		.uleb128 0x3
 2295 01e7 0E       		.uleb128 0xe
 2296 01e8 3A       		.uleb128 0x3a
 2297 01e9 0B       		.uleb128 0xb
 2298 01ea 3B       		.uleb128 0x3b
 2299 01eb 0B       		.uleb128 0xb
 2300 01ec 49       		.uleb128 0x49
 2301 01ed 13       		.uleb128 0x13
 2302 01ee 02       		.uleb128 0x2
 2303 01ef 0A       		.uleb128 0xa
 2304 01f0 00       		.byte	0
 2305 01f1 00       		.byte	0
 2306 01f2 27       		.uleb128 0x27
 2307 01f3 01       		.uleb128 0x1
 2308 01f4 01       		.byte	0x1
 2309 01f5 49       		.uleb128 0x49
 2310 01f6 13       		.uleb128 0x13
 2311 01f7 01       		.uleb128 0x1
 2312 01f8 13       		.uleb128 0x13
 2313 01f9 00       		.byte	0
 2314 01fa 00       		.byte	0
 2315 01fb 28       		.uleb128 0x28
 2316 01fc 21       		.uleb128 0x21
 2317 01fd 00       		.byte	0
 2318 01fe 49       		.uleb128 0x49
 2319 01ff 13       		.uleb128 0x13
 2320 0200 2F       		.uleb128 0x2f
 2321 0201 0B       		.uleb128 0xb
 2322 0202 00       		.byte	0
 2323 0203 00       		.byte	0
 2324 0204 29       		.uleb128 0x29
 2325 0205 34       		.uleb128 0x34
 2326 0206 00       		.byte	0
 2327 0207 03       		.uleb128 0x3
ARM GAS  /var/folders/pt/gxfsd_x53tx3h6kb8dkzftl80000gr/T//cc6oOow0.s 			page 42


 2328 0208 0E       		.uleb128 0xe
 2329 0209 3A       		.uleb128 0x3a
 2330 020a 0B       		.uleb128 0xb
 2331 020b 3B       		.uleb128 0x3b
 2332 020c 05       		.uleb128 0x5
 2333 020d 49       		.uleb128 0x49
 2334 020e 13       		.uleb128 0x13
 2335 020f 3F       		.uleb128 0x3f
 2336 0210 0C       		.uleb128 0xc
 2337 0211 3C       		.uleb128 0x3c
 2338 0212 0C       		.uleb128 0xc
 2339 0213 00       		.byte	0
 2340 0214 00       		.byte	0
 2341 0215 2A       		.uleb128 0x2a
 2342 0216 2E       		.uleb128 0x2e
 2343 0217 00       		.byte	0
 2344 0218 3F       		.uleb128 0x3f
 2345 0219 0C       		.uleb128 0xc
 2346 021a 03       		.uleb128 0x3
 2347 021b 0E       		.uleb128 0xe
 2348 021c 3A       		.uleb128 0x3a
 2349 021d 0B       		.uleb128 0xb
 2350 021e 3B       		.uleb128 0x3b
 2351 021f 05       		.uleb128 0x5
 2352 0220 27       		.uleb128 0x27
 2353 0221 0C       		.uleb128 0xc
 2354 0222 3C       		.uleb128 0x3c
 2355 0223 0C       		.uleb128 0xc
 2356 0224 00       		.byte	0
 2357 0225 00       		.byte	0
 2358 0226 2B       		.uleb128 0x2b
 2359 0227 2E       		.uleb128 0x2e
 2360 0228 01       		.byte	0x1
 2361 0229 3F       		.uleb128 0x3f
 2362 022a 0C       		.uleb128 0xc
 2363 022b 03       		.uleb128 0x3
 2364 022c 0E       		.uleb128 0xe
 2365 022d 3A       		.uleb128 0x3a
 2366 022e 0B       		.uleb128 0xb
 2367 022f 3B       		.uleb128 0x3b
 2368 0230 05       		.uleb128 0x5
 2369 0231 27       		.uleb128 0x27
 2370 0232 0C       		.uleb128 0xc
 2371 0233 3C       		.uleb128 0x3c
 2372 0234 0C       		.uleb128 0xc
 2373 0235 01       		.uleb128 0x1
 2374 0236 13       		.uleb128 0x13
 2375 0237 00       		.byte	0
 2376 0238 00       		.byte	0
 2377 0239 2C       		.uleb128 0x2c
 2378 023a 2E       		.uleb128 0x2e
 2379 023b 01       		.byte	0x1
 2380 023c 3F       		.uleb128 0x3f
 2381 023d 0C       		.uleb128 0xc
 2382 023e 03       		.uleb128 0x3
 2383 023f 0E       		.uleb128 0xe
 2384 0240 3A       		.uleb128 0x3a
ARM GAS  /var/folders/pt/gxfsd_x53tx3h6kb8dkzftl80000gr/T//cc6oOow0.s 			page 43


 2385 0241 0B       		.uleb128 0xb
 2386 0242 3B       		.uleb128 0x3b
 2387 0243 0B       		.uleb128 0xb
 2388 0244 27       		.uleb128 0x27
 2389 0245 0C       		.uleb128 0xc
 2390 0246 49       		.uleb128 0x49
 2391 0247 13       		.uleb128 0x13
 2392 0248 3C       		.uleb128 0x3c
 2393 0249 0C       		.uleb128 0xc
 2394 024a 00       		.byte	0
 2395 024b 00       		.byte	0
 2396 024c 2D       		.uleb128 0x2d
 2397 024d 18       		.uleb128 0x18
 2398 024e 00       		.byte	0
 2399 024f 00       		.byte	0
 2400 0250 00       		.byte	0
 2401 0251 00       		.byte	0
 2402              		.section	.debug_loc,"",%progbits
 2403              	.Ldebug_loc0:
 2404              	.LLST0:
 2405 0000 00000000 		.4byte	.LFB63
 2406 0004 02000000 		.4byte	.LCFI0
 2407 0008 0200     		.2byte	0x2
 2408 000a 7D       		.byte	0x7d
 2409 000b 00       		.sleb128 0
 2410 000c 02000000 		.4byte	.LCFI0
 2411 0010 38000000 		.4byte	.LFE63
 2412 0014 0200     		.2byte	0x2
 2413 0016 7D       		.byte	0x7d
 2414 0017 08       		.sleb128 8
 2415 0018 00000000 		.4byte	0
 2416 001c 00000000 		.4byte	0
 2417              	.LLST1:
 2418 0020 00000000 		.4byte	.LVL3
 2419 0024 0C000000 		.4byte	.LVL4
 2420 0028 0100     		.2byte	0x1
 2421 002a 50       		.byte	0x50
 2422 002b 0C000000 		.4byte	.LVL4
 2423 002f 18000000 		.4byte	.LFE64
 2424 0033 0400     		.2byte	0x4
 2425 0035 F3       		.byte	0xf3
 2426 0036 01       		.uleb128 0x1
 2427 0037 50       		.byte	0x50
 2428 0038 9F       		.byte	0x9f
 2429 0039 00000000 		.4byte	0
 2430 003d 00000000 		.4byte	0
 2431              	.LLST2:
 2432 0041 00000000 		.4byte	.LFB65
 2433 0045 02000000 		.4byte	.LCFI1
 2434 0049 0200     		.2byte	0x2
 2435 004b 7D       		.byte	0x7d
 2436 004c 00       		.sleb128 0
 2437 004d 02000000 		.4byte	.LCFI1
 2438 0051 28000000 		.4byte	.LFE65
 2439 0055 0200     		.2byte	0x2
 2440 0057 7D       		.byte	0x7d
 2441 0058 10       		.sleb128 16
ARM GAS  /var/folders/pt/gxfsd_x53tx3h6kb8dkzftl80000gr/T//cc6oOow0.s 			page 44


 2442 0059 00000000 		.4byte	0
 2443 005d 00000000 		.4byte	0
 2444              	.LLST3:
 2445 0061 00000000 		.4byte	.LVL5
 2446 0065 08000000 		.4byte	.LVL6
 2447 0069 0100     		.2byte	0x1
 2448 006b 50       		.byte	0x50
 2449 006c 08000000 		.4byte	.LVL6
 2450 0070 28000000 		.4byte	.LFE65
 2451 0074 0100     		.2byte	0x1
 2452 0076 56       		.byte	0x56
 2453 0077 00000000 		.4byte	0
 2454 007b 00000000 		.4byte	0
 2455              	.LLST4:
 2456 007f 00000000 		.4byte	.LVL5
 2457 0083 08000000 		.4byte	.LVL6
 2458 0087 0100     		.2byte	0x1
 2459 0089 51       		.byte	0x51
 2460 008a 08000000 		.4byte	.LVL6
 2461 008e 28000000 		.4byte	.LFE65
 2462 0092 0400     		.2byte	0x4
 2463 0094 F3       		.byte	0xf3
 2464 0095 01       		.uleb128 0x1
 2465 0096 51       		.byte	0x51
 2466 0097 9F       		.byte	0x9f
 2467 0098 00000000 		.4byte	0
 2468 009c 00000000 		.4byte	0
 2469              	.LLST5:
 2470 00a0 00000000 		.4byte	.LVL5
 2471 00a4 08000000 		.4byte	.LVL6
 2472 00a8 0100     		.2byte	0x1
 2473 00aa 52       		.byte	0x52
 2474 00ab 08000000 		.4byte	.LVL6
 2475 00af 28000000 		.4byte	.LFE65
 2476 00b3 0400     		.2byte	0x4
 2477 00b5 F3       		.byte	0xf3
 2478 00b6 01       		.uleb128 0x1
 2479 00b7 52       		.byte	0x52
 2480 00b8 9F       		.byte	0x9f
 2481 00b9 00000000 		.4byte	0
 2482 00bd 00000000 		.4byte	0
 2483              	.LLST6:
 2484 00c1 00000000 		.4byte	.LVL5
 2485 00c5 08000000 		.4byte	.LVL6
 2486 00c9 0200     		.2byte	0x2
 2487 00cb 30       		.byte	0x30
 2488 00cc 9F       		.byte	0x9f
 2489 00cd 18000000 		.4byte	.LVL8
 2490 00d1 28000000 		.4byte	.LFE65
 2491 00d5 0100     		.2byte	0x1
 2492 00d7 54       		.byte	0x54
 2493 00d8 00000000 		.4byte	0
 2494 00dc 00000000 		.4byte	0
 2495              		.section	.debug_aranges,"",%progbits
 2496 0000 2C000000 		.4byte	0x2c
 2497 0004 0200     		.2byte	0x2
 2498 0006 00000000 		.4byte	.Ldebug_info0
ARM GAS  /var/folders/pt/gxfsd_x53tx3h6kb8dkzftl80000gr/T//cc6oOow0.s 			page 45


 2499 000a 04       		.byte	0x4
 2500 000b 00       		.byte	0
 2501 000c 0000     		.2byte	0
 2502 000e 0000     		.2byte	0
 2503 0010 00000000 		.4byte	.LFB63
 2504 0014 38000000 		.4byte	.LFE63-.LFB63
 2505 0018 00000000 		.4byte	.LFB64
 2506 001c 18000000 		.4byte	.LFE64-.LFB64
 2507 0020 00000000 		.4byte	.LFB65
 2508 0024 28000000 		.4byte	.LFE65-.LFB65
 2509 0028 00000000 		.4byte	0
 2510 002c 00000000 		.4byte	0
 2511              		.section	.debug_ranges,"",%progbits
 2512              	.Ldebug_ranges0:
 2513 0000 00000000 		.4byte	.LFB63
 2514 0004 38000000 		.4byte	.LFE63
 2515 0008 00000000 		.4byte	.LFB64
 2516 000c 18000000 		.4byte	.LFE64
 2517 0010 00000000 		.4byte	.LFB65
 2518 0014 28000000 		.4byte	.LFE65
 2519 0018 00000000 		.4byte	0
 2520 001c 00000000 		.4byte	0
 2521              		.section	.debug_line,"",%progbits
 2522              	.Ldebug_line0:
 2523 0000 1A030000 		.section	.debug_str,"MS",%progbits,1
 2523      0200C102 
 2523      00000201 
 2523      FB0E0D00 
 2523      01010101 
 2524              	.LASF2:
 2525 0000 73697A65 		.ascii	"size_t\000"
 2525      5F7400
 2526              	.LASF55:
 2527 0007 7264796D 		.ascii	"rdymsg\000"
 2527      736700
 2528              	.LASF109:
 2529 000e 646D616D 		.ascii	"dmamode\000"
 2529      6F646500 
 2530              	.LASF95:
 2531 0016 61646373 		.ascii	"adcstate_t\000"
 2531      74617465 
 2531      5F7400
 2532              	.LASF87:
 2533 0021 76656374 		.ascii	"vector\000"
 2533      6F7200
 2534              	.LASF156:
 2535 0028 73616D70 		.ascii	"samples_buf\000"
 2535      6C65735F 
 2535      62756600 
 2536              	.LASF93:
 2537 0034 4144435F 		.ascii	"ADC_COMPLETE\000"
 2537      434F4D50 
 2537      4C455445 
 2537      00
 2538              	.LASF113:
 2539 0041 6E756D5F 		.ascii	"num_channels\000"
 2539      6368616E 
ARM GAS  /var/folders/pt/gxfsd_x53tx3h6kb8dkzftl80000gr/T//cc6oOow0.s 			page 46


 2539      6E656C73 
 2539      00
 2540              	.LASF140:
 2541 004e 6B566578 		.ascii	"kVexDigitalOutput\000"
 2541      44696769 
 2541      74616C4F 
 2541      75747075 
 2541      7400
 2542              	.LASF14:
 2543 0060 6C6F6E67 		.ascii	"long long unsigned int\000"
 2543      206C6F6E 
 2543      6720756E 
 2543      7369676E 
 2543      65642069 
 2544              	.LASF138:
 2545 0077 6B566578 		.ascii	"kVexDigital_Num\000"
 2545      44696769 
 2545      74616C5F 
 2545      4E756D00 
 2546              	.LASF89:
 2547 0087 4144435F 		.ascii	"ADC_UNINIT\000"
 2547      554E494E 
 2547      495400
 2548              	.LASF158:
 2549 0092 49544D5F 		.ascii	"ITM_RxBuffer\000"
 2549      52784275 
 2549      66666572 
 2549      00
 2550              	.LASF28:
 2551 009f 705F7072 		.ascii	"p_prio\000"
 2551      696F00
 2552              	.LASF73:
 2553 00a6 4A535152 		.ascii	"JSQR\000"
 2553      00
 2554              	.LASF5:
 2555 00ab 696E7431 		.ascii	"int16_t\000"
 2555      365F7400 
 2556              	.LASF13:
 2557 00b3 6C6F6E67 		.ascii	"long long int\000"
 2557      206C6F6E 
 2557      6720696E 
 2557      7400
 2558              	.LASF1:
 2559 00c1 7369676E 		.ascii	"signed char\000"
 2559      65642063 
 2559      68617200 
 2560              	.LASF44:
 2561 00cd 705F6D70 		.ascii	"p_mpool\000"
 2561      6F6F6C00 
 2562              	.LASF15:
 2563 00d5 626F6F6C 		.ascii	"bool_t\000"
 2563      5F7400
 2564              	.LASF52:
 2565 00dc 6D5F7175 		.ascii	"m_queue\000"
 2565      65756500 
 2566              	.LASF99:
 2567 00e4 61646365 		.ascii	"adcerror_t\000"
ARM GAS  /var/folders/pt/gxfsd_x53tx3h6kb8dkzftl80000gr/T//cc6oOow0.s 			page 47


 2567      72726F72 
 2567      5F7400
 2568              	.LASF108:
 2569 00ef 646D6173 		.ascii	"dmastp\000"
 2569      747000
 2570              	.LASF101:
 2571 00f6 73746174 		.ascii	"state\000"
 2571      6500
 2572              	.LASF112:
 2573 00fc 63697263 		.ascii	"circular\000"
 2573      756C6172 
 2573      00
 2574              	.LASF10:
 2575 0105 6C6F6E67 		.ascii	"long int\000"
 2575      20696E74 
 2575      00
 2576              	.LASF98:
 2577 010e 4144435F 		.ascii	"ADC_ERR_DMAFAILURE\000"
 2577      4552525F 
 2577      444D4146 
 2577      41494C55 
 2577      524500
 2578              	.LASF164:
 2579 0121 636F6E76 		.ascii	"convex/convex/cortex/fw/vexanalog.c\000"
 2579      65782F63 
 2579      6F6E7665 
 2579      782F636F 
 2579      72746578 
 2580              	.LASF111:
 2581 0145 61646365 		.ascii	"adcerrorcallback_t\000"
 2581      72726F72 
 2581      63616C6C 
 2581      6261636B 
 2581      5F7400
 2582              	.LASF18:
 2583 0158 74737461 		.ascii	"tstate_t\000"
 2583      74655F74 
 2583      00
 2584              	.LASF125:
 2585 0161 6B566578 		.ascii	"kVexDigital_None\000"
 2585      44696769 
 2585      74616C5F 
 2585      4E6F6E65 
 2585      00
 2586              	.LASF106:
 2587 0172 74687265 		.ascii	"thread\000"
 2587      616400
 2588              	.LASF7:
 2589 0179 75696E74 		.ascii	"uint16_t\000"
 2589      31365F74 
 2589      00
 2590              	.LASF37:
 2591 0182 705F7469 		.ascii	"p_time\000"
 2591      6D6500
 2592              	.LASF78:
 2593 0189 4144435F 		.ascii	"ADC_TypeDef\000"
 2593      54797065 
ARM GAS  /var/folders/pt/gxfsd_x53tx3h6kb8dkzftl80000gr/T//cc6oOow0.s 			page 48


 2593      44656600 
 2594              	.LASF30:
 2595 0195 705F6E65 		.ascii	"p_newer\000"
 2595      77657200 
 2596              	.LASF114:
 2597 019d 656E645F 		.ascii	"end_cb\000"
 2597      636200
 2598              	.LASF110:
 2599 01a4 61646363 		.ascii	"adccallback_t\000"
 2599      616C6C62 
 2599      61636B5F 
 2599      7400
 2600              	.LASF56:
 2601 01b2 65786974 		.ascii	"exitcode\000"
 2601      636F6465 
 2601      00
 2602              	.LASF96:
 2603 01bb 61646373 		.ascii	"adcsample_t\000"
 2603      616D706C 
 2603      655F7400 
 2604              	.LASF162:
 2605 01c7 7665785F 		.ascii	"vex_chprintf\000"
 2605      63687072 
 2605      696E7466 
 2605      00
 2606              	.LASF47:
 2607 01d4 72656761 		.ascii	"regarm_t\000"
 2607      726D5F74 
 2607      00
 2608              	.LASF86:
 2609 01dd 73656C66 		.ascii	"selfindex\000"
 2609      696E6465 
 2609      7800
 2610              	.LASF149:
 2611 01e7 6B496D65 		.ascii	"kImeTotal\000"
 2611      546F7461 
 2611      6C00
 2612              	.LASF122:
 2613 01f1 64756D6D 		.ascii	"dummy\000"
 2613      7900
 2614              	.LASF25:
 2615 01f7 54687265 		.ascii	"Thread\000"
 2615      616400
 2616              	.LASF63:
 2617 01fe 42617365 		.ascii	"BaseSequentialStream\000"
 2617      53657175 
 2617      656E7469 
 2617      616C5374 
 2617      7265616D 
 2618              	.LASF20:
 2619 0213 74736C69 		.ascii	"tslices_t\000"
 2619      6365735F 
 2619      7400
 2620              	.LASF0:
 2621 021d 756E7369 		.ascii	"unsigned int\000"
 2621      676E6564 
 2621      20696E74 
ARM GAS  /var/folders/pt/gxfsd_x53tx3h6kb8dkzftl80000gr/T//cc6oOow0.s 			page 49


 2621      00
 2622              	.LASF80:
 2623 022a 43504152 		.ascii	"CPAR\000"
 2623      00
 2624              	.LASF39:
 2625 022f 705F6D73 		.ascii	"p_msgqueue\000"
 2625      67717565 
 2625      756500
 2626              	.LASF100:
 2627 023a 41444344 		.ascii	"ADCDriver\000"
 2627      72697665 
 2627      7200
 2628              	.LASF82:
 2629 0244 444D415F 		.ascii	"DMA_Channel_TypeDef\000"
 2629      4368616E 
 2629      6E656C5F 
 2629      54797065 
 2629      44656600 
 2630              	.LASF85:
 2631 0258 69736869 		.ascii	"ishift\000"
 2631      667400
 2632              	.LASF166:
 2633 025f 76657841 		.ascii	"vexAdcGet\000"
 2633      64634765 
 2633      7400
 2634              	.LASF8:
 2635 0269 73686F72 		.ascii	"short unsigned int\000"
 2635      7420756E 
 2635      7369676E 
 2635      65642069 
 2635      6E7400
 2636              	.LASF91:
 2637 027c 4144435F 		.ascii	"ADC_READY\000"
 2637      52454144 
 2637      5900
 2638              	.LASF104:
 2639 0286 64657074 		.ascii	"depth\000"
 2639      6800
 2640              	.LASF22:
 2641 028c 6D73675F 		.ascii	"msg_t\000"
 2641      7400
 2642              	.LASF126:
 2643 0292 6B566578 		.ascii	"kVexDigital_1\000"
 2643      44696769 
 2643      74616C5F 
 2643      3100
 2644              	.LASF127:
 2645 02a0 6B566578 		.ascii	"kVexDigital_2\000"
 2645      44696769 
 2645      74616C5F 
 2645      3200
 2646              	.LASF128:
 2647 02ae 6B566578 		.ascii	"kVexDigital_3\000"
 2647      44696769 
 2647      74616C5F 
 2647      3300
 2648              	.LASF129:
ARM GAS  /var/folders/pt/gxfsd_x53tx3h6kb8dkzftl80000gr/T//cc6oOow0.s 			page 50


 2649 02bc 6B566578 		.ascii	"kVexDigital_4\000"
 2649      44696769 
 2649      74616C5F 
 2649      3400
 2650              	.LASF130:
 2651 02ca 6B566578 		.ascii	"kVexDigital_5\000"
 2651      44696769 
 2651      74616C5F 
 2651      3500
 2652              	.LASF131:
 2653 02d8 6B566578 		.ascii	"kVexDigital_6\000"
 2653      44696769 
 2653      74616C5F 
 2653      3600
 2654              	.LASF132:
 2655 02e6 6B566578 		.ascii	"kVexDigital_7\000"
 2655      44696769 
 2655      74616C5F 
 2655      3700
 2656              	.LASF133:
 2657 02f4 6B566578 		.ascii	"kVexDigital_8\000"
 2657      44696769 
 2657      74616C5F 
 2657      3800
 2658              	.LASF134:
 2659 0302 6B566578 		.ascii	"kVexDigital_9\000"
 2659      44696769 
 2659      74616C5F 
 2659      3900
 2660              	.LASF46:
 2661 0310 54687265 		.ascii	"ThreadsList\000"
 2661      6164734C 
 2661      69737400 
 2662              	.LASF23:
 2663 031c 6576656E 		.ascii	"eventmask_t\000"
 2663      746D6173 
 2663      6B5F7400 
 2664              	.LASF168:
 2665 0328 61646349 		.ascii	"adcInit\000"
 2665      6E697400 
 2666              	.LASF81:
 2667 0330 434D4152 		.ascii	"CMAR\000"
 2667      00
 2668              	.LASF61:
 2669 0335 77726974 		.ascii	"write\000"
 2669      6500
 2670              	.LASF105:
 2671 033b 67727070 		.ascii	"grpp\000"
 2671      00
 2672              	.LASF66:
 2673 0340 4A4F4652 		.ascii	"JOFR1\000"
 2673      3100
 2674              	.LASF67:
 2675 0346 4A4F4652 		.ascii	"JOFR2\000"
 2675      3200
 2676              	.LASF68:
 2677 034c 4A4F4652 		.ascii	"JOFR3\000"
ARM GAS  /var/folders/pt/gxfsd_x53tx3h6kb8dkzftl80000gr/T//cc6oOow0.s 			page 51


 2677      3300
 2678              	.LASF103:
 2679 0352 73616D70 		.ascii	"samples\000"
 2679      6C657300 
 2680              	.LASF50:
 2681 035a 73697A65 		.ascii	"sizetype\000"
 2681      74797065 
 2681      00
 2682              	.LASF51:
 2683 0363 4D757465 		.ascii	"Mutex\000"
 2683      7800
 2684              	.LASF165:
 2685 0369 2F557365 		.ascii	"/Users/programmer/git/Prototypes/Jaws\000"
 2685      72732F70 
 2685      726F6772 
 2685      616D6D65 
 2685      722F6769 
 2686              	.LASF90:
 2687 038f 4144435F 		.ascii	"ADC_STOP\000"
 2687      53544F50 
 2687      00
 2688              	.LASF155:
 2689 0398 61646363 		.ascii	"adccfg\000"
 2689      666700
 2690              	.LASF31:
 2691 039f 705F6F6C 		.ascii	"p_older\000"
 2691      64657200 
 2692              	.LASF45:
 2693 03a7 54687265 		.ascii	"ThreadsQueue\000"
 2693      61647351 
 2693      75657565 
 2693      00
 2694              	.LASF64:
 2695 03b4 534D5052 		.ascii	"SMPR1\000"
 2695      3100
 2696              	.LASF65:
 2697 03ba 534D5052 		.ascii	"SMPR2\000"
 2697      3200
 2698              	.LASF54:
 2699 03c0 6D5F6E65 		.ascii	"m_next\000"
 2699      787400
 2700              	.LASF163:
 2701 03c7 474E5520 		.ascii	"GNU C 4.7.2\000"
 2701      4320342E 
 2701      372E3200 
 2702              	.LASF70:
 2703 03d3 53515231 		.ascii	"SQR1\000"
 2703      00
 2704              	.LASF71:
 2705 03d8 53515232 		.ascii	"SQR2\000"
 2705      00
 2706              	.LASF72:
 2707 03dd 53515233 		.ascii	"SQR3\000"
 2707      00
 2708              	.LASF141:
 2709 03e2 6B496D65 		.ascii	"kImeChannel_1\000"
 2709      4368616E 
ARM GAS  /var/folders/pt/gxfsd_x53tx3h6kb8dkzftl80000gr/T//cc6oOow0.s 			page 52


 2709      6E656C5F 
 2709      3100
 2710              	.LASF146:
 2711 03f0 6B496D65 		.ascii	"kImeChannel_6\000"
 2711      4368616E 
 2711      6E656C5F 
 2711      3600
 2712              	.LASF27:
 2713 03fe 705F7072 		.ascii	"p_prev\000"
 2713      657600
 2714              	.LASF88:
 2715 0405 73746D33 		.ascii	"stm32_dma_stream_t\000"
 2715      325F646D 
 2715      615F7374 
 2715      7265616D 
 2715      5F7400
 2716              	.LASF21:
 2717 0418 74707269 		.ascii	"tprio_t\000"
 2717      6F5F7400 
 2718              	.LASF107:
 2719 0420 6D757465 		.ascii	"mutex\000"
 2719      7800
 2720              	.LASF16:
 2721 0426 5F426F6F 		.ascii	"_Bool\000"
 2721      6C00
 2722              	.LASF9:
 2723 042c 696E7433 		.ascii	"int32_t\000"
 2723      325F7400 
 2724              	.LASF4:
 2725 0434 756E7369 		.ascii	"unsigned char\000"
 2725      676E6564 
 2725      20636861 
 2725      7200
 2726              	.LASF42:
 2727 0442 705F6D74 		.ascii	"p_mtxlist\000"
 2727      786C6973 
 2727      7400
 2728              	.LASF6:
 2729 044c 73686F72 		.ascii	"short int\000"
 2729      7420696E 
 2729      7400
 2730              	.LASF33:
 2731 0456 705F7374 		.ascii	"p_state\000"
 2731      61746500 
 2732              	.LASF36:
 2733 045e 705F7072 		.ascii	"p_preempt\000"
 2733      65656D70 
 2733      7400
 2734              	.LASF115:
 2735 0468 6572726F 		.ascii	"error_cb\000"
 2735      725F6362 
 2735      00
 2736              	.LASF58:
 2737 0471 65776D61 		.ascii	"ewmask\000"
 2737      736B00
 2738              	.LASF26:
 2739 0478 705F6E65 		.ascii	"p_next\000"
ARM GAS  /var/folders/pt/gxfsd_x53tx3h6kb8dkzftl80000gr/T//cc6oOow0.s 			page 53


 2739      787400
 2740              	.LASF60:
 2741 047f 42617365 		.ascii	"BaseSequentialStreamVMT\000"
 2741      53657175 
 2741      656E7469 
 2741      616C5374 
 2741      7265616D 
 2742              	.LASF34:
 2743 0497 705F666C 		.ascii	"p_flags\000"
 2743      61677300 
 2744              	.LASF92:
 2745 049f 4144435F 		.ascii	"ADC_ACTIVE\000"
 2745      41435449 
 2745      564500
 2746              	.LASF69:
 2747 04aa 4A4F4652 		.ascii	"JOFR4\000"
 2747      3400
 2748              	.LASF83:
 2749 04b0 6368616E 		.ascii	"channel\000"
 2749      6E656C00 
 2750              	.LASF41:
 2751 04b8 705F6570 		.ascii	"p_epending\000"
 2751      656E6469 
 2751      6E6700
 2752              	.LASF84:
 2753 04c3 69666372 		.ascii	"ifcr\000"
 2753      00
 2754              	.LASF11:
 2755 04c8 75696E74 		.ascii	"uint32_t\000"
 2755      33325F74 
 2755      00
 2756              	.LASF157:
 2757 04d1 61646363 		.ascii	"adccg\000"
 2757      6700
 2758              	.LASF123:
 2759 04d7 41444343 		.ascii	"ADCConfig\000"
 2759      6F6E6669 
 2759      6700
 2760              	.LASF19:
 2761 04e1 74726566 		.ascii	"trefs_t\000"
 2761      735F7400 
 2762              	.LASF116:
 2763 04e9 736D7072 		.ascii	"smpr1\000"
 2763      3100
 2764              	.LASF12:
 2765 04ef 6C6F6E67 		.ascii	"long unsigned int\000"
 2765      20756E73 
 2765      69676E65 
 2765      6420696E 
 2765      7400
 2766              	.LASF62:
 2767 0501 72656164 		.ascii	"read\000"
 2767      00
 2768              	.LASF59:
 2769 0506 63686172 		.ascii	"char\000"
 2769      00
 2770              	.LASF142:
ARM GAS  /var/folders/pt/gxfsd_x53tx3h6kb8dkzftl80000gr/T//cc6oOow0.s 			page 54


 2771 050b 6B496D65 		.ascii	"kImeChannel_2\000"
 2771      4368616E 
 2771      6E656C5F 
 2771      3200
 2772              	.LASF143:
 2773 0519 6B496D65 		.ascii	"kImeChannel_3\000"
 2773      4368616E 
 2773      6E656C5F 
 2773      3300
 2774              	.LASF144:
 2775 0527 6B496D65 		.ascii	"kImeChannel_4\000"
 2775      4368616E 
 2775      6E656C5F 
 2775      3400
 2776              	.LASF145:
 2777 0535 6B496D65 		.ascii	"kImeChannel_5\000"
 2777      4368616E 
 2777      6E656C5F 
 2777      3500
 2778              	.LASF102:
 2779 0543 636F6E66 		.ascii	"config\000"
 2779      696700
 2780              	.LASF147:
 2781 054a 6B496D65 		.ascii	"kImeChannel_7\000"
 2781      4368616E 
 2781      6E656C5F 
 2781      3700
 2782              	.LASF148:
 2783 0558 6B496D65 		.ascii	"kImeChannel_8\000"
 2783      4368616E 
 2783      6E656C5F 
 2783      3800
 2784              	.LASF135:
 2785 0566 6B566578 		.ascii	"kVexDigital_10\000"
 2785      44696769 
 2785      74616C5F 
 2785      313000
 2786              	.LASF136:
 2787 0575 6B566578 		.ascii	"kVexDigital_11\000"
 2787      44696769 
 2787      74616C5F 
 2787      313100
 2788              	.LASF137:
 2789 0584 6B566578 		.ascii	"kVexDigital_12\000"
 2789      44696769 
 2789      74616C5F 
 2789      313200
 2790              	.LASF118:
 2791 0593 73717231 		.ascii	"sqr1\000"
 2791      00
 2792              	.LASF119:
 2793 0598 73717232 		.ascii	"sqr2\000"
 2793      00
 2794              	.LASF120:
 2795 059d 73717233 		.ascii	"sqr3\000"
 2795      00
 2796              	.LASF24:
ARM GAS  /var/folders/pt/gxfsd_x53tx3h6kb8dkzftl80000gr/T//cc6oOow0.s 			page 55


 2797 05a2 73797374 		.ascii	"systime_t\000"
 2797      696D655F 
 2797      7400
 2798              	.LASF43:
 2799 05ac 705F7265 		.ascii	"p_realprio\000"
 2799      616C7072 
 2799      696F00
 2800              	.LASF151:
 2801 05b7 76657841 		.ascii	"vexAdcInit\000"
 2801      6463496E 
 2801      697400
 2802              	.LASF49:
 2803 05c2 636F6E74 		.ascii	"context\000"
 2803      65787400 
 2804              	.LASF124:
 2805 05ca 76657853 		.ascii	"vexStream\000"
 2805      74726561 
 2805      6D00
 2806              	.LASF161:
 2807 05d4 61646353 		.ascii	"adcStartConversion\000"
 2807      74617274 
 2807      436F6E76 
 2807      65727369 
 2807      6F6E00
 2808              	.LASF48:
 2809 05e7 696E7463 		.ascii	"intctx\000"
 2809      747800
 2810              	.LASF94:
 2811 05ee 4144435F 		.ascii	"ADC_ERROR\000"
 2811      4552524F 
 2811      5200
 2812              	.LASF160:
 2813 05f8 61646353 		.ascii	"adcStart\000"
 2813      74617274 
 2813      00
 2814              	.LASF32:
 2815 0601 705F6E61 		.ascii	"p_name\000"
 2815      6D6500
 2816              	.LASF35:
 2817 0608 705F7265 		.ascii	"p_refs\000"
 2817      667300
 2818              	.LASF79:
 2819 060f 434E4454 		.ascii	"CNDTR\000"
 2819      5200
 2820              	.LASF117:
 2821 0615 736D7072 		.ascii	"smpr2\000"
 2821      3200
 2822              	.LASF152:
 2823 061b 76657841 		.ascii	"vexAdcDebug\000"
 2823      64634465 
 2823      62756700 
 2824              	.LASF159:
 2825 0627 41444344 		.ascii	"ADCD1\000"
 2825      3100
 2826              	.LASF150:
 2827 062d 6B496D65 		.ascii	"kImeChannelNone\000"
 2827      4368616E 
ARM GAS  /var/folders/pt/gxfsd_x53tx3h6kb8dkzftl80000gr/T//cc6oOow0.s 			page 56


 2827      6E656C4E 
 2827      6F6E6500 
 2828              	.LASF3:
 2829 063d 75696E74 		.ascii	"uint8_t\000"
 2829      385F7400 
 2830              	.LASF121:
 2831 0645 41444343 		.ascii	"ADCConversionGroup\000"
 2831      6F6E7665 
 2831      7273696F 
 2831      6E47726F 
 2831      757000
 2832              	.LASF74:
 2833 0658 4A445231 		.ascii	"JDR1\000"
 2833      00
 2834              	.LASF75:
 2835 065d 4A445232 		.ascii	"JDR2\000"
 2835      00
 2836              	.LASF76:
 2837 0662 4A445233 		.ascii	"JDR3\000"
 2837      00
 2838              	.LASF77:
 2839 0667 4A445234 		.ascii	"JDR4\000"
 2839      00
 2840              	.LASF57:
 2841 066c 77746F62 		.ascii	"wtobjp\000"
 2841      6A7000
 2842              	.LASF167:
 2843 0673 696E6465 		.ascii	"index\000"
 2843      7800
 2844              	.LASF153:
 2845 0679 61726763 		.ascii	"argc\000"
 2845      00
 2846              	.LASF97:
 2847 067e 6164635F 		.ascii	"adc_channels_num_t\000"
 2847      6368616E 
 2847      6E656C73 
 2847      5F6E756D 
 2847      5F7400
 2848              	.LASF17:
 2849 0691 746D6F64 		.ascii	"tmode_t\000"
 2849      655F7400 
 2850              	.LASF40:
 2851 0699 705F6D73 		.ascii	"p_msg\000"
 2851      6700
 2852              	.LASF154:
 2853 069f 61726776 		.ascii	"argv\000"
 2853      00
 2854              	.LASF53:
 2855 06a4 6D5F6F77 		.ascii	"m_owner\000"
 2855      6E657200 
 2856              	.LASF29:
 2857 06ac 705F6374 		.ascii	"p_ctx\000"
 2857      7800
 2858              	.LASF38:
 2859 06b2 705F7761 		.ascii	"p_waiting\000"
 2859      6974696E 
 2859      6700
ARM GAS  /var/folders/pt/gxfsd_x53tx3h6kb8dkzftl80000gr/T//cc6oOow0.s 			page 57


 2860              	.LASF139:
 2861 06bc 6B566578 		.ascii	"kVexDigitalInput\000"
 2861      44696769 
 2861      74616C49 
 2861      6E707574 
 2861      00
 2862              		.ident	"GCC: (GNU) 4.7.2"
ARM GAS  /var/folders/pt/gxfsd_x53tx3h6kb8dkzftl80000gr/T//cc6oOow0.s 			page 58


DEFINED SYMBOLS
                            *ABS*:0000000000000000 vexanalog.c
/var/folders/pt/gxfsd_x53tx3h6kb8dkzftl80000gr/T//cc6oOow0.s:19     .text.vexAdcInit:0000000000000000 $t
/var/folders/pt/gxfsd_x53tx3h6kb8dkzftl80000gr/T//cc6oOow0.s:25     .text.vexAdcInit:0000000000000000 vexAdcInit
/var/folders/pt/gxfsd_x53tx3h6kb8dkzftl80000gr/T//cc6oOow0.s:155    .bss.adccfg:0000000000000000 .LANCHOR0
/var/folders/pt/gxfsd_x53tx3h6kb8dkzftl80000gr/T//cc6oOow0.s:166    .data.adccg:0000000000000000 .LANCHOR1
/var/folders/pt/gxfsd_x53tx3h6kb8dkzftl80000gr/T//cc6oOow0.s:184    .bss.samples_buf:0000000000000000 .LANCHOR2
/var/folders/pt/gxfsd_x53tx3h6kb8dkzftl80000gr/T//cc6oOow0.s:65     .text.vexAdcGet:0000000000000000 $t
/var/folders/pt/gxfsd_x53tx3h6kb8dkzftl80000gr/T//cc6oOow0.s:71     .text.vexAdcGet:0000000000000000 vexAdcGet
/var/folders/pt/gxfsd_x53tx3h6kb8dkzftl80000gr/T//cc6oOow0.s:96     .text.vexAdcGet:0000000000000014 $d
/var/folders/pt/gxfsd_x53tx3h6kb8dkzftl80000gr/T//cc6oOow0.s:101    .text.vexAdcDebug:0000000000000000 $t
/var/folders/pt/gxfsd_x53tx3h6kb8dkzftl80000gr/T//cc6oOow0.s:107    .text.vexAdcDebug:0000000000000000 vexAdcDebug
/var/folders/pt/gxfsd_x53tx3h6kb8dkzftl80000gr/T//cc6oOow0.s:148    .text.vexAdcDebug:0000000000000020 $d
/var/folders/pt/gxfsd_x53tx3h6kb8dkzftl80000gr/T//cc6oOow0.s:154    .bss.adccfg:0000000000000000 $d
/var/folders/pt/gxfsd_x53tx3h6kb8dkzftl80000gr/T//cc6oOow0.s:158    .bss.adccfg:0000000000000000 adccfg
/var/folders/pt/gxfsd_x53tx3h6kb8dkzftl80000gr/T//cc6oOow0.s:161    .rodata.str1.4:0000000000000000 $d
/var/folders/pt/gxfsd_x53tx3h6kb8dkzftl80000gr/T//cc6oOow0.s:165    .data.adccg:0000000000000000 $d
/var/folders/pt/gxfsd_x53tx3h6kb8dkzftl80000gr/T//cc6oOow0.s:169    .data.adccg:0000000000000000 adccg
/var/folders/pt/gxfsd_x53tx3h6kb8dkzftl80000gr/T//cc6oOow0.s:183    .bss.samples_buf:0000000000000000 $d
/var/folders/pt/gxfsd_x53tx3h6kb8dkzftl80000gr/T//cc6oOow0.s:187    .bss.samples_buf:0000000000000000 samples_buf
                     .debug_frame:0000000000000010 $d
/var/folders/pt/gxfsd_x53tx3h6kb8dkzftl80000gr/T//cc6oOow0.s:100    .text.vexAdcGet:0000000000000018 $t
/var/folders/pt/gxfsd_x53tx3h6kb8dkzftl80000gr/T//cc6oOow0.s:153    .text.vexAdcDebug:0000000000000028 $t

UNDEFINED SYMBOLS
ADCD1
adcInit
adcStart
adcStartConversion
vex_chprintf
