ARM GAS  /var/folders/pt/gxfsd_x53tx3h6kb8dkzftl80000gr/T//ccdQ2u5O.s 			page 1


   1              		.syntax unified
   2              		.cpu cortex-m3
   3              		.fpu softvfp
   4              		.eabi_attribute 20, 1
   5              		.eabi_attribute 21, 1
   6              		.eabi_attribute 23, 3
   7              		.eabi_attribute 24, 1
   8              		.eabi_attribute 25, 1
   9              		.eabi_attribute 26, 1
  10              		.eabi_attribute 30, 2
  11              		.eabi_attribute 34, 1
  12              		.eabi_attribute 18, 4
  13              		.thumb
  14              		.file	"vexbkup.c"
  15              		.text
  16              	.Ltext0:
  17              		.cfi_sections	.debug_frame
  18              		.section	.text.vexBkupInit,"ax",%progbits
  19              		.align	2
  20              		.p2align 4,,15
  21              		.global	vexBkupInit
  22              		.thumb
  23              		.thumb_func
  24              		.type	vexBkupInit, %function
  25              	vexBkupInit:
  26              	.LFB63:
  27              		.file 1 "convex/convex/cortex/fw/vexbkup.c"
  28              		.loc 1 62 0
  29              		.cfi_startproc
  30              		@ args = 0, pretend = 0, frame = 0
  31              		@ frame_needed = 0, uses_anonymous_args = 0
  32              		@ link register save eliminated.
  33              	.LVL0:
  34              		.loc 1 67 0
  35 0000 4FF48052 		mov	r2, #4096
  36 0004 C4F20202 		movt	r2, 16386
  37 0008 D169     		ldr	r1, [r2, #28]
  38              		.loc 1 69 0
  39 000a 4FF4E043 		mov	r3, #28672
  40              		.loc 1 67 0
  41 000e 41F0C051 		orr	r1, r1, #402653184
  42 0012 D161     		str	r1, [r2, #28]
  43              		.loc 1 69 0
  44 0014 C4F20003 		movt	r3, 16384
  45 0018 1A68     		ldr	r2, [r3, #0]
  46 001a 42F48072 		orr	r2, r2, #256
  47 001e 1A60     		str	r2, [r3, #0]
  48 0020 7047     		bx	lr
  49              		.cfi_endproc
  50              	.LFE63:
  51              		.size	vexBkupInit, .-vexBkupInit
  52 0022 00BFAFF3 		.section	.text.vexBkupRegisterWrite,"ax",%progbits
  52      0080AFF3 
  52      0080AFF3 
  52      0080
  53              		.align	2
  54              		.p2align 4,,15
ARM GAS  /var/folders/pt/gxfsd_x53tx3h6kb8dkzftl80000gr/T//ccdQ2u5O.s 			page 2


  55              		.global	vexBkupRegisterWrite
  56              		.thumb
  57              		.thumb_func
  58              		.type	vexBkupRegisterWrite, %function
  59              	vexBkupRegisterWrite:
  60              	.LFB64:
  61              		.loc 1 80 0
  62              		.cfi_startproc
  63              		@ args = 0, pretend = 0, frame = 0
  64              		@ frame_needed = 0, uses_anonymous_args = 0
  65              		@ link register save eliminated.
  66              	.LVL1:
  67              		.loc 1 85 0
  68 0000 83B2     		uxth	r3, r0
  69 0002 092B     		cmp	r3, #9
  70 0004 0AD9     		bls	.L6
  71              		.loc 1 93 0
  72 0006 0A3B     		subs	r3, r3, #10
  73 0008 1F2B     		cmp	r3, #31
  74 000a 06D8     		bhi	.L2
  75              		.loc 1 95 0
  76 000c 46F64043 		movw	r3, #27712
  77 0010 C4F20003 		movt	r3, 16384
  78              	.LVL2:
  79              		.loc 1 96 0
  80 0014 0A38     		subs	r0, r0, #10
  81              	.LVL3:
  82              		.loc 1 98 0
  83 0016 23F82010 		strh	r1, [r3, r0, lsl #2]	@ movhi
  84              	.LVL4:
  85              	.L2:
  86 001a 7047     		bx	lr
  87              	.LVL5:
  88              	.L6:
  89              		.loc 1 87 0
  90 001c 46F60443 		movw	r3, #27652
  91 0020 C4F20003 		movt	r3, 16384
  92              	.LVL6:
  93              		.loc 1 90 0
  94 0024 23F82010 		strh	r1, [r3, r0, lsl #2]	@ movhi
  95 0028 7047     		bx	lr
  96              		.cfi_endproc
  97              	.LFE64:
  98              		.size	vexBkupRegisterWrite, .-vexBkupRegisterWrite
  99 002a 00BFAFF3 		.section	.text.vexBkupRegisterRead,"ax",%progbits
  99      0080
 100              		.align	2
 101              		.p2align 4,,15
 102              		.global	vexBkupRegisterRead
 103              		.thumb
 104              		.thumb_func
 105              		.type	vexBkupRegisterRead, %function
 106              	vexBkupRegisterRead:
 107              	.LFB65:
 108              		.loc 1 110 0
 109              		.cfi_startproc
 110              		@ args = 0, pretend = 0, frame = 0
ARM GAS  /var/folders/pt/gxfsd_x53tx3h6kb8dkzftl80000gr/T//ccdQ2u5O.s 			page 3


 111              		@ frame_needed = 0, uses_anonymous_args = 0
 112              		@ link register save eliminated.
 113              	.LVL7:
 114              		.loc 1 115 0
 115 0000 83B2     		uxth	r3, r0
 116 0002 092B     		cmp	r3, #9
 117 0004 0DD9     		bls	.L11
 118              		.loc 1 122 0
 119 0006 0A3B     		subs	r3, r3, #10
 120 0008 1F2B     		cmp	r3, #31
 121 000a 08D8     		bhi	.L10
 122              	.LVL8:
 123              	.LBB4:
 124              	.LBB5:
 125              		.loc 1 124 0
 126 000c 46F64043 		movw	r3, #27712
 127 0010 C4F20003 		movt	r3, 16384
 128              	.LVL9:
 129              		.loc 1 125 0
 130 0014 0A38     		subs	r0, r0, #10
 131              	.LVL10:
 132              		.loc 1 126 0
 133 0016 33F82000 		ldrh	r0, [r3, r0, lsl #2]
 134              	.LVL11:
 135 001a 80B2     		uxth	r0, r0
 136 001c 7047     		bx	lr
 137              	.LVL12:
 138              	.L10:
 139              	.LBE5:
 140              	.LBE4:
 141              		.loc 1 129 0
 142 001e 0020     		movs	r0, #0
 143              	.LVL13:
 144              		.loc 1 130 0
 145 0020 7047     		bx	lr
 146              	.LVL14:
 147              	.L11:
 148              		.loc 1 117 0
 149 0022 46F60443 		movw	r3, #27652
 150 0026 C4F20003 		movt	r3, 16384
 151              	.LVL15:
 152              		.loc 1 119 0
 153 002a 33F82000 		ldrh	r0, [r3, r0, lsl #2]
 154              	.LVL16:
 155 002e 80B2     		uxth	r0, r0
 156 0030 7047     		bx	lr
 157              		.cfi_endproc
 158              	.LFE65:
 159              		.size	vexBkupRegisterRead, .-vexBkupRegisterRead
 160 0032 00BFAFF3 		.section	.text.vexBkupDebug,"ax",%progbits
 160      0080AFF3 
 160      0080AFF3 
 160      0080
 161              		.align	2
 162              		.p2align 4,,15
 163              		.global	vexBkupDebug
 164              		.thumb
ARM GAS  /var/folders/pt/gxfsd_x53tx3h6kb8dkzftl80000gr/T//ccdQ2u5O.s 			page 4


 165              		.thumb_func
 166              		.type	vexBkupDebug, %function
 167              	vexBkupDebug:
 168              	.LFB66:
 169              		.loc 1 141 0
 170              		.cfi_startproc
 171              		@ args = 0, pretend = 0, frame = 0
 172              		@ frame_needed = 0, uses_anonymous_args = 0
 173              	.LVL17:
 174 0000 38B5     		push	{r3, r4, r5, lr}
 175              	.LCFI0:
 176              		.cfi_def_cfa_offset 16
 177              		.cfi_offset 3, -16
 178              		.cfi_offset 4, -12
 179              		.cfi_offset 5, -8
 180              		.cfi_offset 14, -4
 181              		.loc 1 147 0
 182 0002 2049     		ldr	r1, .L19
 183              	.LVL18:
 184              		.loc 1 141 0
 185 0004 0546     		mov	r5, r0
 186              		.loc 1 147 0
 187 0006 FFF7FEFF 		bl	vex_chprintf
 188              	.LVL19:
 189              		.loc 1 148 0
 190 000a 2846     		mov	r0, r5
 191 000c 1E49     		ldr	r1, .L19+4
 192 000e FFF7FEFF 		bl	vex_chprintf
 193              	.LVL20:
 194              		.loc 1 149 0
 195 0012 0024     		movs	r4, #0
 196              	.LVL21:
 197              	.L13:
 198              		.loc 1 150 0 discriminator 2
 199 0014 20B2     		sxth	r0, r4
 200 0016 FFF7FEFF 		bl	vexBkupRegisterRead
 201              	.LVL22:
 202              		.loc 1 149 0 discriminator 2
 203 001a 0134     		adds	r4, r4, #1
 204              		.loc 1 150 0 discriminator 2
 205 001c 0246     		mov	r2, r0
 206 001e 1B49     		ldr	r1, .L19+8
 207 0020 2846     		mov	r0, r5
 208 0022 FFF7FEFF 		bl	vex_chprintf
 209              	.LVL23:
 210              		.loc 1 149 0 discriminator 2
 211 0026 102C     		cmp	r4, #16
 212 0028 F4D1     		bne	.L13
 213              		.loc 1 151 0
 214 002a 1949     		ldr	r1, .L19+12
 215 002c 2846     		mov	r0, r5
 216 002e FFF7FEFF 		bl	vex_chprintf
 217              	.LVL24:
 218              		.loc 1 152 0
 219 0032 2846     		mov	r0, r5
 220 0034 1749     		ldr	r1, .L19+16
 221 0036 FFF7FEFF 		bl	vex_chprintf
ARM GAS  /var/folders/pt/gxfsd_x53tx3h6kb8dkzftl80000gr/T//ccdQ2u5O.s 			page 5


 222              	.LVL25:
 223              	.L14:
 224              		.loc 1 154 0 discriminator 2
 225 003a 20B2     		sxth	r0, r4
 226 003c FFF7FEFF 		bl	vexBkupRegisterRead
 227              	.LVL26:
 228              		.loc 1 153 0 discriminator 2
 229 0040 0134     		adds	r4, r4, #1
 230              		.loc 1 154 0 discriminator 2
 231 0042 0246     		mov	r2, r0
 232 0044 1149     		ldr	r1, .L19+8
 233 0046 2846     		mov	r0, r5
 234 0048 FFF7FEFF 		bl	vex_chprintf
 235              	.LVL27:
 236              		.loc 1 153 0 discriminator 2
 237 004c 202C     		cmp	r4, #32
 238 004e F4D1     		bne	.L14
 239              		.loc 1 155 0
 240 0050 0F49     		ldr	r1, .L19+12
 241 0052 2846     		mov	r0, r5
 242 0054 FFF7FEFF 		bl	vex_chprintf
 243              	.LVL28:
 244              		.loc 1 156 0
 245 0058 2846     		mov	r0, r5
 246 005a 0F49     		ldr	r1, .L19+20
 247 005c FFF7FEFF 		bl	vex_chprintf
 248              	.LVL29:
 249              	.L15:
 250              		.loc 1 158 0 discriminator 2
 251 0060 20B2     		sxth	r0, r4
 252 0062 FFF7FEFF 		bl	vexBkupRegisterRead
 253              	.LVL30:
 254              		.loc 1 157 0 discriminator 2
 255 0066 0134     		adds	r4, r4, #1
 256              		.loc 1 158 0 discriminator 2
 257 0068 0246     		mov	r2, r0
 258 006a 0849     		ldr	r1, .L19+8
 259 006c 2846     		mov	r0, r5
 260 006e FFF7FEFF 		bl	vex_chprintf
 261              	.LVL31:
 262              		.loc 1 157 0 discriminator 2
 263 0072 2A2C     		cmp	r4, #42
 264 0074 F4D1     		bne	.L15
 265              		.loc 1 159 0
 266 0076 0649     		ldr	r1, .L19+12
 267 0078 2846     		mov	r0, r5
 268              		.loc 1 160 0
 269 007a BDE83840 		pop	{r3, r4, r5, lr}
 270              		.loc 1 159 0
 271 007e FFF7FEBF 		b	vex_chprintf
 272              	.LVL32:
 273              	.L20:
 274 0082 00BF     		.align	2
 275              	.L19:
 276 0084 00000000 		.word	.LC0
 277 0088 14000000 		.word	.LC1
 278 008c 1C000000 		.word	.LC2
ARM GAS  /var/folders/pt/gxfsd_x53tx3h6kb8dkzftl80000gr/T//ccdQ2u5O.s 			page 6


 279 0090 24000000 		.word	.LC3
 280 0094 28000000 		.word	.LC4
 281 0098 30000000 		.word	.LC5
 282              		.cfi_endproc
 283              	.LFE66:
 284              		.size	vexBkupDebug, .-vexBkupDebug
 285 009c AFF30080 		.section	.rodata.str1.4,"aMS",%progbits,1
 286              		.align	2
 287              	.LC0:
 288 0000 4261636B 		.ascii	"Backup Registers\015\012\000"
 288      75702052 
 288      65676973 
 288      74657273 
 288      0D0A00
 289 0013 00       		.space	1
 290              	.LC1:
 291 0014 30302D31 		.ascii	"00-15: \000"
 291      353A2000 
 292              	.LC2:
 293 001c 25303258 		.ascii	"%02X \000"
 293      2000
 294 0022 0000     		.space	2
 295              	.LC3:
 296 0024 0D0A00   		.ascii	"\015\012\000"
 297 0027 00       		.space	1
 298              	.LC4:
 299 0028 31362D33 		.ascii	"16-32: \000"
 299      323A2000 
 300              	.LC5:
 301 0030 33322D34 		.ascii	"32-41: \000"
 301      313A2000 
 302              		.text
 303              	.Letext0:
 304              		.file 2 "/Users/programmer/ConVEX/yagarto-4.7.2/bin/../lib/gcc/arm-none-eabi/4.7.2/include/stddef.
 305              		.file 3 "/Users/programmer/ConVEX/yagarto-4.7.2/bin/../lib/gcc/arm-none-eabi/4.7.2/../../../../arm
 306              		.file 4 "convex/ChibiOS_2.6.2/os/ports/GCC/ARMCMx/chtypes.h"
 307              		.file 5 "convex/ChibiOS_2.6.2/os/kernel/include/chstreams.h"
 308              		.file 6 "convex/ChibiOS_2.6.2/os/hal/platforms/STM32F1xx/stm32f10x.h"
 309              		.file 7 "convex/convex/cortex/fw/vexcompat.h"
 310              		.file 8 "convex/ChibiOS_2.6.2/os/ports/common/ARMCMx/CMSIS/include/core_cm3.h"
 311              		.file 9 "convex/convex/cortex/fw/vexprintf.h"