ARM GAS  /var/folders/pt/gxfsd_x53tx3h6kb8dkzftl80000gr/T//ccBEaULq.s 			page 1


   1              		.syntax unified
   2              		.cpu cortex-m3
   3              		.fpu softvfp
   4              		.eabi_attribute 20, 1
   5              		.eabi_attribute 21, 1
   6              		.eabi_attribute 23, 3
   7              		.eabi_attribute 24, 1
   8              		.eabi_attribute 25, 1
   9              		.eabi_attribute 26, 1
  10              		.eabi_attribute 30, 2
  11              		.eabi_attribute 34, 1
  12              		.eabi_attribute 18, 4
  13              		.thumb
  14              		.file	"vexctl.c"
  15              		.text
  16              	.Ltext0:
  17              		.cfi_sections	.debug_frame
  18              		.section	.text.vexControllerCompetitionStateSet,"ax",%progbits
  19              		.align	2
  20              		.p2align 4,,15
  21              		.global	vexControllerCompetitionStateSet
  22              		.thumb
  23              		.thumb_func
  24              		.type	vexControllerCompetitionStateSet, %function
  25              	vexControllerCompetitionStateSet:
  26              	.LFB63:
  27              		.file 1 "convex/convex/cortex/fw/vexctl.c"
  28              		.loc 1 70 0
  29              		.cfi_startproc
  30              		@ args = 0, pretend = 0, frame = 0
  31              		@ frame_needed = 0, uses_anonymous_args = 0
  32              	.LVL0:
  33 0000 38B5     		push	{r3, r4, r5, lr}
  34              	.LCFI0:
  35              		.cfi_def_cfa_offset 16
  36              		.cfi_offset 3, -16
  37              		.cfi_offset 4, -12
  38              		.cfi_offset 5, -8
  39              		.cfi_offset 14, -4
  40              		.loc 1 70 0
  41 0002 0546     		mov	r5, r0
  42 0004 0C46     		mov	r4, r1
  43              		.loc 1 73 0
  44 0006 FFF7FEFF 		bl	vexSpiGetControl
  45              	.LVL1:
  46 000a 00F00800 		and	r0, r0, #8
  47 000e 83B2     		uxth	r3, r0
  48 0010 1BB1     		cbz	r3, .L5
  49              		.loc 1 84 0
  50 0012 074B     		ldr	r3, .L6
  51 0014 0020     		movs	r0, #0
  52 0016 1880     		strh	r0, [r3, #0]	@ movhi
  53              		.loc 1 87 0
  54 0018 38BD     		pop	{r3, r4, r5, pc}
  55              	.L5:
  56              		.loc 1 80 0
  57 001a 054B     		ldr	r3, .L6
ARM GAS  /var/folders/pt/gxfsd_x53tx3h6kb8dkzftl80000gr/T//ccBEaULq.s 			page 2


  58 001c 2540     		ands	r5, r5, r4
  59              		.loc 1 79 0
  60 001e 1A88     		ldrh	r2, [r3, #0]
  61              		.loc 1 80 0
  62 0020 05F0C005 		and	r5, r5, #192
  63              		.loc 1 79 0
  64 0024 22EA0404 		bic	r4, r2, r4
  65              		.loc 1 80 0
  66 0028 2C43     		orrs	r4, r4, r5
  67 002a 1C80     		strh	r4, [r3, #0]	@ movhi
  68              		.loc 1 81 0
  69 002c 0120     		movs	r0, #1
  70 002e 38BD     		pop	{r3, r4, r5, pc}
  71              	.L7:
  72              		.align	2
  73              	.L6:
  74 0030 00000000 		.word	.LANCHOR0
  75              		.cfi_endproc
  76              	.LFE63:
  77              		.size	vexControllerCompetitionStateSet, .-vexControllerCompetitionStateSet
  78 0034 AFF30080 		.section	.text.vexControllerCompetitonState,"ax",%progbits
  78      AFF30080 
  78      AFF30080 
  79              		.align	2
  80              		.p2align 4,,15
  81              		.global	vexControllerCompetitonState
  82              		.thumb
  83              		.thumb_func
  84              		.type	vexControllerCompetitonState, %function
  85              	vexControllerCompetitonState:
  86              	.LFB64:
  87              		.loc 1 96 0
  88              		.cfi_startproc
  89              		@ args = 0, pretend = 0, frame = 0
  90              		@ frame_needed = 0, uses_anonymous_args = 0
  91 0000 08B5     		push	{r3, lr}
  92              	.LCFI1:
  93              		.cfi_def_cfa_offset 8
  94              		.cfi_offset 3, -8
  95              		.cfi_offset 14, -4
  96              		.loc 1 97 0
  97 0002 FFF7FEFF 		bl	vexSpiGetControl
  98              	.LVL2:
  99              		.loc 1 105 0
 100 0006 00F00803 		and	r3, r0, #8
 101 000a 9BB2     		uxth	r3, r3
 102 000c 1BB1     		cbz	r3, .L11
 103              		.loc 1 112 0
 104 000e 044B     		ldr	r3, .L12
 105 0010 0022     		movs	r2, #0
 106 0012 1A80     		strh	r2, [r3, #0]	@ movhi
 107              		.loc 1 115 0
 108 0014 08BD     		pop	{r3, pc}
 109              	.L11:
 110              		.loc 1 108 0
 111 0016 024B     		ldr	r3, .L12
 112 0018 1B88     		ldrh	r3, [r3, #0]
ARM GAS  /var/folders/pt/gxfsd_x53tx3h6kb8dkzftl80000gr/T//ccBEaULq.s 			page 3


 113 001a 1843     		orrs	r0, r0, r3
 114              	.LVL3:
 115 001c 80B2     		uxth	r0, r0
 116              	.LVL4:
 117 001e 08BD     		pop	{r3, pc}
 118              	.L13:
 119              		.align	2
 120              	.L12:
 121 0020 00000000 		.word	.LANCHOR0
 122              		.cfi_endproc
 123              	.LFE64:
 124              		.size	vexControllerCompetitonState, .-vexControllerCompetitonState
 125 0024 AFF30080 		.section	.text.vexControllerGet,"ax",%progbits
 125      AFF30080 
 125      AFF30080 
 126              		.align	2
 127              		.p2align 4,,15
 128              		.global	vexControllerGet
 129              		.thumb
 130              		.thumb_func
 131              		.type	vexControllerGet, %function
 132              	vexControllerGet:
 133              	.LFB65:
 134              		.loc 1 125 0
 135              		.cfi_startproc
 136              		@ args = 0, pretend = 0, frame = 0
 137              		@ frame_needed = 0, uses_anonymous_args = 0
 138              	.LVL5:
 139              		.loc 1 130 0
 140 0000 0306     		lsls	r3, r0, #24
 141              		.loc 1 125 0
 142 0002 10B5     		push	{r4, lr}
 143              	.LCFI2:
 144              		.cfi_def_cfa_offset 8
 145              		.cfi_offset 4, -8
 146              		.cfi_offset 14, -4
 147              		.loc 1 125 0
 148 0004 0446     		mov	r4, r0
 149              		.loc 1 130 0
 150 0006 15D4     		bmi	.L15
 151              		.loc 1 131 0
 152 0008 0120     		movs	r0, #1
 153              	.LVL6:
 154 000a FFF7FEFF 		bl	vexSpiGetJoystickDataPtr
 155              	.LVL7:
 156              	.L16:
 157              		.loc 1 136 0
 158 000e 04F07F04 		and	r4, r4, #127
 159 0012 172C     		cmp	r4, #23
 160 0014 00F28980 		bhi	.L46
 161 0018 DFE804F0 		tbb	[pc, r4]
 162              	.L42:
 163 001c 7C       		.byte	(.L18-.L42)/2
 164 001d 81       		.byte	(.L19-.L42)/2
 165 001e 75       		.byte	(.L20-.L42)/2
 166 001f 70       		.byte	(.L21-.L42)/2
 167 0020 6C       		.byte	(.L22-.L42)/2
ARM GAS  /var/folders/pt/gxfsd_x53tx3h6kb8dkzftl80000gr/T//ccBEaULq.s 			page 4


 168 0021 68       		.byte	(.L23-.L42)/2
 169 0022 64       		.byte	(.L24-.L42)/2
 170 0023 60       		.byte	(.L25-.L42)/2
 171 0024 5C       		.byte	(.L26-.L42)/2
 172 0025 58       		.byte	(.L27-.L42)/2
 173 0026 54       		.byte	(.L28-.L42)/2
 174 0027 50       		.byte	(.L29-.L42)/2
 175 0028 4C       		.byte	(.L30-.L42)/2
 176 0029 48       		.byte	(.L31-.L42)/2
 177 002a 44       		.byte	(.L32-.L42)/2
 178 002b 2C       		.byte	(.L33-.L42)/2
 179 002c 27       		.byte	(.L34-.L42)/2
 180 002d 23       		.byte	(.L35-.L42)/2
 181 002e 1F       		.byte	(.L36-.L42)/2
 182 002f 37       		.byte	(.L37-.L42)/2
 183 0030 30       		.byte	(.L38-.L42)/2
 184 0031 3D       		.byte	(.L39-.L42)/2
 185 0032 19       		.byte	(.L40-.L42)/2
 186 0033 10       		.byte	(.L41-.L42)/2
 187              		.align	1
 188              	.LVL8:
 189              	.L15:
 190              		.loc 1 133 0
 191 0034 0220     		movs	r0, #2
 192              	.LVL9:
 193 0036 FFF7FEFF 		bl	vexSpiGetJoystickDataPtr
 194              	.LVL10:
 195 003a E8E7     		b	.L16
 196              	.L41:
 197              		.loc 1 223 0
 198 003c C379     		ldrb	r3, [r0, #7]	@ zero_extendqisi2
 199 003e 002B     		cmp	r3, #0
 200 0040 75D1     		bne	.L51
 201              		.loc 1 223 0 is_stmt 0 discriminator 2
 202 0042 007A     		ldrb	r0, [r0, #8]	@ zero_extendqisi2
 203              	.LVL11:
 204 0044 0030     		adds	r0, r0, #0
 205 0046 18BF     		it	ne
 206 0048 0120     		movne	r0, #1
 207              	.L17:
 208              		.loc 1 229 0 is_stmt 1
 209 004a 00B2     		sxth	r0, r0
 210 004c 10BD     		pop	{r4, pc}
 211              	.LVL12:
 212              	.L40:
 213              		.loc 1 218 0
 214 004e 007A     		ldrb	r0, [r0, #8]	@ zero_extendqisi2
 215              	.LVL13:
 216 0050 10F00F00 		ands	r0, r0, #15
 217 0054 18BF     		it	ne
 218 0056 0120     		movne	r0, #1
 219 0058 F7E7     		b	.L17
 220              	.LVL14:
 221              	.L36:
 222              		.loc 1 204 0
 223 005a 8079     		ldrb	r0, [r0, #6]	@ zero_extendqisi2
 224              	.LVL15:
ARM GAS  /var/folders/pt/gxfsd_x53tx3h6kb8dkzftl80000gr/T//ccBEaULq.s 			page 5


 225 005c 7F38     		subs	r0, r0, #127
 226 005e 80B2     		uxth	r0, r0
 227 0060 F3E7     		b	.L17
 228              	.LVL16:
 229              	.L35:
 230              		.loc 1 201 0
 231 0062 0079     		ldrb	r0, [r0, #4]	@ zero_extendqisi2
 232              	.LVL17:
 233 0064 7F38     		subs	r0, r0, #127
 234 0066 80B2     		uxth	r0, r0
 235 0068 EFE7     		b	.L17
 236              	.LVL18:
 237              	.L34:
 238              		.loc 1 198 0
 239 006a 4079     		ldrb	r0, [r0, #5]	@ zero_extendqisi2
 240              	.LVL19:
 241              	.L54:
 242 006c 7F38     		subs	r0, r0, #127
 243 006e 80B2     		uxth	r0, r0
 244              		.loc 1 229 0
 245 0070 00B2     		sxth	r0, r0
 246 0072 10BD     		pop	{r4, pc}
 247              	.LVL20:
 248              	.L33:
 249              		.loc 1 193 0
 250 0074 C079     		ldrb	r0, [r0, #7]	@ zero_extendqisi2
 251              	.LVL21:
 252 0076 C0F3C000 		ubfx	r0, r0, #3, #1
 253 007a E6E7     		b	.L17
 254              	.LVL22:
 255              	.L38:
 256              		.loc 1 212 0
 257 007c C379     		ldrb	r3, [r0, #7]	@ zero_extendqisi2
 258 007e 13F00C0F 		tst	r3, #12
 259 0082 0CBF     		ite	eq
 260 0084 0020     		moveq	r0, #0
 261 0086 0120     		movne	r0, #1
 262              	.LVL23:
 263 0088 DFE7     		b	.L17
 264              	.LVL24:
 265              	.L37:
 266              		.loc 1 209 0
 267 008a C079     		ldrb	r0, [r0, #7]	@ zero_extendqisi2
 268              	.LVL25:
 269 008c 10F00300 		ands	r0, r0, #3
 270 0090 18BF     		it	ne
 271 0092 0120     		movne	r0, #1
 272 0094 D9E7     		b	.L17
 273              	.LVL26:
 274              	.L39:
 275              		.loc 1 215 0
 276 0096 037A     		ldrb	r3, [r0, #8]	@ zero_extendqisi2
 277 0098 13F0F00F 		tst	r3, #240
 278 009c 0CBF     		ite	eq
 279 009e 0020     		moveq	r0, #0
 280 00a0 0120     		movne	r0, #1
 281              	.LVL27:
ARM GAS  /var/folders/pt/gxfsd_x53tx3h6kb8dkzftl80000gr/T//ccBEaULq.s 			page 6


 282 00a2 D2E7     		b	.L17
 283              	.LVL28:
 284              	.L32:
 285              		.loc 1 190 0
 286 00a4 C079     		ldrb	r0, [r0, #7]	@ zero_extendqisi2
 287              	.LVL29:
 288 00a6 C0F38000 		ubfx	r0, r0, #2, #1
 289 00aa CEE7     		b	.L17
 290              	.LVL30:
 291              	.L31:
 292              		.loc 1 186 0
 293 00ac C079     		ldrb	r0, [r0, #7]	@ zero_extendqisi2
 294              	.LVL31:
 295 00ae C0F34000 		ubfx	r0, r0, #1, #1
 296 00b2 CAE7     		b	.L17
 297              	.LVL32:
 298              	.L30:
 299              		.loc 1 183 0
 300 00b4 C079     		ldrb	r0, [r0, #7]	@ zero_extendqisi2
 301              	.LVL33:
 302 00b6 00F00100 		and	r0, r0, #1
 303 00ba C6E7     		b	.L17
 304              	.LVL34:
 305              	.L29:
 306              		.loc 1 179 0
 307 00bc 90F90800 		ldrsb	r0, [r0, #8]
 308              	.LVL35:
 309 00c0 C00F     		lsrs	r0, r0, #31
 310 00c2 C2E7     		b	.L17
 311              	.LVL36:
 312              	.L28:
 313              		.loc 1 176 0
 314 00c4 007A     		ldrb	r0, [r0, #8]	@ zero_extendqisi2
 315              	.LVL37:
 316 00c6 C0F38010 		ubfx	r0, r0, #6, #1
 317 00ca BEE7     		b	.L17
 318              	.LVL38:
 319              	.L27:
 320              		.loc 1 173 0
 321 00cc 007A     		ldrb	r0, [r0, #8]	@ zero_extendqisi2
 322              	.LVL39:
 323 00ce C0F34010 		ubfx	r0, r0, #5, #1
 324 00d2 BAE7     		b	.L17
 325              	.LVL40:
 326              	.L26:
 327              		.loc 1 170 0
 328 00d4 007A     		ldrb	r0, [r0, #8]	@ zero_extendqisi2
 329              	.LVL41:
 330 00d6 C0F30010 		ubfx	r0, r0, #4, #1
 331 00da B6E7     		b	.L17
 332              	.LVL42:
 333              	.L25:
 334              		.loc 1 166 0
 335 00dc 007A     		ldrb	r0, [r0, #8]	@ zero_extendqisi2
 336              	.LVL43:
 337 00de C0F3C000 		ubfx	r0, r0, #3, #1
 338 00e2 B2E7     		b	.L17
ARM GAS  /var/folders/pt/gxfsd_x53tx3h6kb8dkzftl80000gr/T//ccBEaULq.s 			page 7


 339              	.LVL44:
 340              	.L24:
 341              		.loc 1 163 0
 342 00e4 007A     		ldrb	r0, [r0, #8]	@ zero_extendqisi2
 343              	.LVL45:
 344 00e6 C0F38000 		ubfx	r0, r0, #2, #1
 345 00ea AEE7     		b	.L17
 346              	.LVL46:
 347              	.L23:
 348              		.loc 1 160 0
 349 00ec 007A     		ldrb	r0, [r0, #8]	@ zero_extendqisi2
 350              	.LVL47:
 351 00ee C0F34000 		ubfx	r0, r0, #1, #1
 352 00f2 AAE7     		b	.L17
 353              	.LVL48:
 354              	.L22:
 355              		.loc 1 157 0
 356 00f4 007A     		ldrb	r0, [r0, #8]	@ zero_extendqisi2
 357              	.LVL49:
 358 00f6 00F00100 		and	r0, r0, #1
 359 00fa A6E7     		b	.L17
 360              	.LVL50:
 361              	.L21:
 362              		.loc 1 152 0
 363 00fc C078     		ldrb	r0, [r0, #3]	@ zero_extendqisi2
 364              	.LVL51:
 365 00fe FF28     		cmp	r0, #255
 366 0100 B4D1     		bne	.L54
 367              		.loc 1 140 0
 368 0102 7F20     		movs	r0, #127
 369 0104 A1E7     		b	.L17
 370              	.LVL52:
 371              	.L20:
 372              		.loc 1 148 0
 373 0106 8078     		ldrb	r0, [r0, #2]	@ zero_extendqisi2
 374              	.LVL53:
 375 0108 FF28     		cmp	r0, #255
 376 010a 0BD0     		beq	.L49
 377              	.L52:
 378 010c C0F17F00 		rsb	r0, r0, #127
 379 0110 80B2     		uxth	r0, r0
 380 0112 9AE7     		b	.L17
 381              	.LVL54:
 382              	.L18:
 383              		.loc 1 140 0
 384 0114 0078     		ldrb	r0, [r0, #0]	@ zero_extendqisi2
 385              	.LVL55:
 386 0116 FF28     		cmp	r0, #255
 387 0118 A8D1     		bne	.L54
 388 011a 7F20     		movs	r0, #127
 389 011c 95E7     		b	.L17
 390              	.LVL56:
 391              	.L19:
 392              		.loc 1 144 0
 393 011e 4078     		ldrb	r0, [r0, #1]	@ zero_extendqisi2
 394              	.LVL57:
 395 0120 FF28     		cmp	r0, #255
ARM GAS  /var/folders/pt/gxfsd_x53tx3h6kb8dkzftl80000gr/T//ccBEaULq.s 			page 8


 396 0122 F3D1     		bne	.L52
 397              	.L49:
 398              		.loc 1 148 0
 399 0124 4FF68170 		movw	r0, #65409
 400              		.loc 1 149 0
 401 0128 8FE7     		b	.L17
 402              	.LVL58:
 403              	.L46:
 404              		.loc 1 227 0
 405 012a 0020     		movs	r0, #0
 406              	.LVL59:
 407 012c 8DE7     		b	.L17
 408              	.LVL60:
 409              	.L51:
 410              		.loc 1 223 0
 411 012e 0120     		movs	r0, #1
 412              	.LVL61:
 413 0130 8BE7     		b	.L17
 414              		.cfi_endproc
 415              	.LFE65:
 416              		.size	vexControllerGet, .-vexControllerGet
 417 0132 00BFAFF3 		.section	.text.vexControllerReleaseWait,"ax",%progbits
 417      0080AFF3 
 417      0080AFF3 
 417      0080
 418              		.align	2
 419              		.p2align 4,,15
 420              		.global	vexControllerReleaseWait
 421              		.thumb
 422              		.thumb_func
 423              		.type	vexControllerReleaseWait, %function
 424              	vexControllerReleaseWait:
 425              	.LFB66:
 426              		.loc 1 237 0
 427              		.cfi_startproc
 428              		@ args = 0, pretend = 0, frame = 0
 429              		@ frame_needed = 0, uses_anonymous_args = 0
 430              	.LVL62:
 431 0000 38B5     		push	{r3, r4, r5, lr}
 432              	.LCFI3:
 433              		.cfi_def_cfa_offset 16
 434              		.cfi_offset 3, -16
 435              		.cfi_offset 4, -12
 436              		.cfi_offset 5, -8
 437              		.cfi_offset 14, -4
 438              		.loc 1 242 0
 439 0002 00F07F03 		and	r3, r0, #127
 440 0006 032B     		cmp	r3, #3
 441              		.loc 1 237 0
 442 0008 0546     		mov	r5, r0
 443              		.loc 1 242 0
 444 000a 0BDD     		ble	.L56
 445 000c C824     		movs	r4, #200
 446 000e 04E0     		b	.L57
 447              	.LVL63:
 448              	.L64:
 449              		.loc 1 251 0
ARM GAS  /var/folders/pt/gxfsd_x53tx3h6kb8dkzftl80000gr/T//ccBEaULq.s 			page 9


 450 0010 1920     		movs	r0, #25
 451 0012 FFF7FEFF 		bl	vexSleep
 452              	.LVL64:
 453              		.loc 1 246 0
 454 0016 013C     		subs	r4, r4, #1
 455 0018 04D0     		beq	.L56
 456              	.L57:
 457              		.loc 1 248 0
 458 001a 2846     		mov	r0, r5
 459 001c FFF7FEFF 		bl	vexControllerGet
 460              	.LVL65:
 461 0020 0028     		cmp	r0, #0
 462 0022 F5D1     		bne	.L64
 463              	.L56:
 464 0024 38BD     		pop	{r3, r4, r5, pc}
 465              		.cfi_endproc
 466              	.LFE66:
 467              		.size	vexControllerReleaseWait, .-vexControllerReleaseWait
 468 0026 00BFAFF3 		.section	.bss.vexLocalCompState,"aw",%nobits
 468      0080AFF3 
 468      0080
 469              		.align	1
 470              		.set	.LANCHOR0,. + 0
 471              		.type	vexLocalCompState, %object
 472              		.size	vexLocalCompState, 2
 473              	vexLocalCompState:
 474 0000 0000     		.space	2
 475              		.text
 476              	.Letext0:
 477              		.file 2 "/Users/programmer/ConVEX/yagarto-4.7.2/bin/../lib/gcc/arm-none-eabi/4.7.2/../../../../arm
 478              		.file 3 "convex/convex/cortex/fw/vexdigital.h"
 479              		.file 4 "convex/convex/cortex/fw/vexime.h"
 480              		.file 5 "convex/convex/cortex/fw/vexspi.h"
 481              		.file 6 "convex/convex/cortex/fw/vexctl.h"
 482              		.file 7 "convex/ChibiOS_2.6.2/os/ports/common/ARMCMx/CMSIS/include/core_cm3.h"
 483              		.file 8 "convex/convex/cortex/fw/vex.h"