ARM GAS  /var/folders/pt/gxfsd_x53tx3h6kb8dkzftl80000gr/T//ccG9x9hO.s 			page 1


   1              		.syntax unified
   2              		.cpu cortex-m3
   3              		.fpu softvfp
   4              		.eabi_attribute 20, 1
   5              		.eabi_attribute 21, 1
   6              		.eabi_attribute 23, 3
   7              		.eabi_attribute 24, 1
   8              		.eabi_attribute 25, 1
   9              		.eabi_attribute 26, 1
  10              		.eabi_attribute 30, 2
  11              		.eabi_attribute 34, 1
  12              		.eabi_attribute 18, 4
  13              		.thumb
  14              		.file	"vexencoder.c"
  15              		.text
  16              	.Ltext0:
  17              		.cfi_sections	.debug_frame
  18              		.section	.text._vqe_4_cb_b,"ax",%progbits
  19              		.align	2
  20              		.p2align 4,,15
  21              		.thumb
  22              		.thumb_func
  23              		.type	_vqe_4_cb_b, %function
  24              	_vqe_4_cb_b:
  25              	.LFB72:
  26              		.file 1 "convex/convex/cortex/fw/vexencoder.c"
  27              		.loc 1 224 0
  28              		.cfi_startproc
  29              		@ args = 0, pretend = 0, frame = 0
  30              		@ frame_needed = 0, uses_anonymous_args = 0
  31              		@ link register save eliminated.
  32              	.LVL0:
  33 0000 10B4     		push	{r4}
  34              	.LCFI0:
  35              		.cfi_def_cfa_offset 4
  36              		.cfi_offset 4, -4
  37              	.LBB6:
  38              		.loc 1 228 0
  39 0002 2023     		movs	r3, #32
  40              	.LVL1:
  41              	@ 228 "convex/convex/cortex/fw/vexencoder.c" 1
  42 0004 83F31188 		msr     BASEPRI, r3
  43              	@ 0 "" 2
  44              	.LVL2:
  45              		.thumb
  46              	.LBE6:
  47              	.LBB7:
  48              	.LBB8:
  49              		.loc 1 96 0
  50 0008 0E4B     		ldr	r3, .L5
  51              	.LVL3:
  52 000a 196E     		ldr	r1, [r3, #96]
  53              	.LVL4:
  54              		.loc 1 97 0
  55 000c 9A6E     		ldr	r2, [r3, #104]
  56              		.loc 1 96 0
  57 000e 8C68     		ldr	r4, [r1, #8]
ARM GAS  /var/folders/pt/gxfsd_x53tx3h6kb8dkzftl80000gr/T//ccG9x9hO.s 			page 2


  58              	.LVL5:
  59              		.loc 1 97 0
  60 0010 9068     		ldr	r0, [r2, #8]
  61              	.LVL6:
  62              		.loc 1 96 0
  63 0012 B3F96410 		ldrsh	r1, [r3, #100]
  64              		.loc 1 97 0
  65 0016 B3F96C20 		ldrsh	r2, [r3, #108]
  66              		.loc 1 96 0
  67 001a 24FA01F1 		lsr	r1, r4, r1
  68              		.loc 1 97 0
  69 001e 20FA02F2 		lsr	r2, r0, r2
  70              		.loc 1 100 0
  71 0022 01F00101 		and	r1, r1, #1
  72 0026 02F00102 		and	r2, r2, #1
  73 002a 9142     		cmp	r1, r2
  74 002c 5A6D     		ldr	r2, [r3, #84]
  75 002e 06D0     		beq	.L2
  76 0030 0132     		adds	r2, r2, #1
  77 0032 5A65     		str	r2, [r3, #84]
  78              	.L3:
  79              	.LBE8:
  80              	.LBE7:
  81              	.LBB10:
  82              		.loc 1 233 0
  83 0034 0023     		movs	r3, #0
  84              	.LVL7:
  85              	@ 233 "convex/convex/cortex/fw/vexencoder.c" 1
  86 0036 83F31188 		msr     BASEPRI, r3
  87              	@ 0 "" 2
  88              	.LVL8:
  89              		.thumb
  90              	.LBE10:
  91              		.loc 1 234 0
  92 003a 10BC     		pop	{r4}
  93 003c 7047     		bx	lr
  94              	.LVL9:
  95              	.L2:
  96              	.LBB11:
  97              	.LBB9:
  98              		.loc 1 100 0
  99 003e 013A     		subs	r2, r2, #1
 100 0040 5A65     		str	r2, [r3, #84]
 101 0042 F7E7     		b	.L3
 102              	.L6:
 103              		.align	2
 104              	.L5:
 105 0044 00000000 		.word	.LANCHOR0
 106              	.LBE9:
 107              	.LBE11:
 108              		.cfi_endproc
 109              	.LFE72:
 110              		.size	_vqe_4_cb_b, .-_vqe_4_cb_b
 111 0048 AFF30080 		.section	.text._vqe_5_cb_a,"ax",%progbits
 111      AFF30080 
 112              		.align	2
 113              		.p2align 4,,15
ARM GAS  /var/folders/pt/gxfsd_x53tx3h6kb8dkzftl80000gr/T//ccG9x9hO.s 			page 3


 114              		.thumb
 115              		.thumb_func
 116              		.type	_vqe_5_cb_a, %function
 117              	_vqe_5_cb_a:
 118              	.LFB73:
 119              		.loc 1 238 0
 120              		.cfi_startproc
 121              		@ args = 0, pretend = 0, frame = 0
 122              		@ frame_needed = 0, uses_anonymous_args = 0
 123              		@ link register save eliminated.
 124              	.LVL10:
 125 0000 10B4     		push	{r4}
 126              	.LCFI1:
 127              		.cfi_def_cfa_offset 4
 128              		.cfi_offset 4, -4
 129              	.LBB16:
 130              		.loc 1 242 0
 131 0002 2023     		movs	r3, #32
 132              	.LVL11:
 133              	@ 242 "convex/convex/cortex/fw/vexencoder.c" 1
 134 0004 83F31188 		msr     BASEPRI, r3
 135              	@ 0 "" 2
 136              	.LVL12:
 137              		.thumb
 138              	.LBE16:
 139              	.LBB17:
 140              	.LBB18:
 141              		.loc 1 79 0
 142 0008 0F4B     		ldr	r3, .L10
 143              	.LVL13:
 144 000a D96F     		ldr	r1, [r3, #124]
 145              	.LVL14:
 146              		.loc 1 80 0
 147 000c D3F88420 		ldr	r2, [r3, #132]
 148              		.loc 1 79 0
 149 0010 8C68     		ldr	r4, [r1, #8]
 150              	.LVL15:
 151              		.loc 1 80 0
 152 0012 9068     		ldr	r0, [r2, #8]
 153              	.LVL16:
 154              		.loc 1 79 0
 155 0014 B3F98010 		ldrsh	r1, [r3, #128]
 156              		.loc 1 80 0
 157 0018 B3F98820 		ldrsh	r2, [r3, #136]
 158              		.loc 1 79 0
 159 001c 24FA01F1 		lsr	r1, r4, r1
 160              		.loc 1 80 0
 161 0020 20FA02F2 		lsr	r2, r0, r2
 162              		.loc 1 83 0
 163 0024 01F00101 		and	r1, r1, #1
 164 0028 02F00102 		and	r2, r2, #1
 165 002c 9142     		cmp	r1, r2
 166 002e 1A6F     		ldr	r2, [r3, #112]
 167 0030 06D0     		beq	.L8
 168 0032 013A     		subs	r2, r2, #1
 169 0034 1A67     		str	r2, [r3, #112]
 170              	.L9:
ARM GAS  /var/folders/pt/gxfsd_x53tx3h6kb8dkzftl80000gr/T//ccG9x9hO.s 			page 4


 171              	.LBE18:
 172              	.LBE17:
 173              	.LBB20:
 174              		.loc 1 247 0
 175 0036 0023     		movs	r3, #0
 176              	.LVL17:
 177              	@ 247 "convex/convex/cortex/fw/vexencoder.c" 1
 178 0038 83F31188 		msr     BASEPRI, r3
 179              	@ 0 "" 2
 180              	.LVL18:
 181              		.thumb
 182              	.LBE20:
 183              		.loc 1 248 0
 184 003c 10BC     		pop	{r4}
 185 003e 7047     		bx	lr
 186              	.LVL19:
 187              	.L8:
 188              	.LBB21:
 189              	.LBB19:
 190              		.loc 1 83 0
 191 0040 0132     		adds	r2, r2, #1
 192 0042 1A67     		str	r2, [r3, #112]
 193 0044 F7E7     		b	.L9
 194              	.L11:
 195 0046 00BF     		.align	2
 196              	.L10:
 197 0048 00000000 		.word	.LANCHOR0
 198              	.LBE19:
 199              	.LBE21:
 200              		.cfi_endproc
 201              	.LFE73:
 202              		.size	_vqe_5_cb_a, .-_vqe_5_cb_a
 203 004c AFF30080 		.section	.text._vqe_5_cb_b,"ax",%progbits
 204              		.align	2
 205              		.p2align 4,,15
 206              		.thumb
 207              		.thumb_func
 208              		.type	_vqe_5_cb_b, %function
 209              	_vqe_5_cb_b:
 210              	.LFB74:
 211              		.loc 1 255 0
 212              		.cfi_startproc
 213              		@ args = 0, pretend = 0, frame = 0
 214              		@ frame_needed = 0, uses_anonymous_args = 0
 215              		@ link register save eliminated.
 216              	.LVL20:
 217 0000 10B4     		push	{r4}
 218              	.LCFI2:
 219              		.cfi_def_cfa_offset 4
 220              		.cfi_offset 4, -4
 221              	.LBB26:
 222              		.loc 1 259 0
 223 0002 2023     		movs	r3, #32
 224              	.LVL21:
 225              	@ 259 "convex/convex/cortex/fw/vexencoder.c" 1
 226 0004 83F31188 		msr     BASEPRI, r3
 227              	@ 0 "" 2
ARM GAS  /var/folders/pt/gxfsd_x53tx3h6kb8dkzftl80000gr/T//ccG9x9hO.s 			page 5


 228              	.LVL22:
 229              		.thumb
 230              	.LBE26:
 231              	.LBB27:
 232              	.LBB28:
 233              		.loc 1 96 0
 234 0008 0F4B     		ldr	r3, .L15
 235              	.LVL23:
 236 000a D96F     		ldr	r1, [r3, #124]
 237              	.LVL24:
 238              		.loc 1 97 0
 239 000c D3F88420 		ldr	r2, [r3, #132]
 240              		.loc 1 96 0
 241 0010 8C68     		ldr	r4, [r1, #8]
 242              	.LVL25:
 243              		.loc 1 97 0
 244 0012 9068     		ldr	r0, [r2, #8]
 245              	.LVL26:
 246              		.loc 1 96 0
 247 0014 B3F98010 		ldrsh	r1, [r3, #128]
 248              		.loc 1 97 0
 249 0018 B3F98820 		ldrsh	r2, [r3, #136]
 250              		.loc 1 96 0
 251 001c 24FA01F1 		lsr	r1, r4, r1
 252              		.loc 1 97 0
 253 0020 20FA02F2 		lsr	r2, r0, r2
 254              		.loc 1 100 0
 255 0024 01F00101 		and	r1, r1, #1
 256 0028 02F00102 		and	r2, r2, #1
 257 002c 9142     		cmp	r1, r2
 258 002e 1A6F     		ldr	r2, [r3, #112]
 259 0030 06D0     		beq	.L13
 260 0032 0132     		adds	r2, r2, #1
 261 0034 1A67     		str	r2, [r3, #112]
 262              	.L14:
 263              	.LBE28:
 264              	.LBE27:
 265              	.LBB30:
 266              		.loc 1 264 0
 267 0036 0023     		movs	r3, #0
 268              	.LVL27:
 269              	@ 264 "convex/convex/cortex/fw/vexencoder.c" 1
 270 0038 83F31188 		msr     BASEPRI, r3
 271              	@ 0 "" 2
 272              	.LVL28:
 273              		.thumb
 274              	.LBE30:
 275              		.loc 1 265 0
 276 003c 10BC     		pop	{r4}
 277 003e 7047     		bx	lr
 278              	.LVL29:
 279              	.L13:
 280              	.LBB31:
 281              	.LBB29:
 282              		.loc 1 100 0
 283 0040 013A     		subs	r2, r2, #1
 284 0042 1A67     		str	r2, [r3, #112]
ARM GAS  /var/folders/pt/gxfsd_x53tx3h6kb8dkzftl80000gr/T//ccG9x9hO.s 			page 6


 285 0044 F7E7     		b	.L14
 286              	.L16:
 287 0046 00BF     		.align	2
 288              	.L15:
 289 0048 00000000 		.word	.LANCHOR0
 290              	.LBE29:
 291              	.LBE31:
 292              		.cfi_endproc
 293              	.LFE74:
 294              		.size	_vqe_5_cb_b, .-_vqe_5_cb_b
 295 004c AFF30080 		.section	.text._vqe_1_cb_a,"ax",%progbits
 296              		.align	2
 297              		.p2align 4,,15
 298              		.thumb
 299              		.thumb_func
 300              		.type	_vqe_1_cb_a, %function
 301              	_vqe_1_cb_a:
 302              	.LFB65:
 303              		.loc 1 108 0
 304              		.cfi_startproc
 305              		@ args = 0, pretend = 0, frame = 0
 306              		@ frame_needed = 0, uses_anonymous_args = 0
 307              		@ link register save eliminated.
 308              	.LVL30:
 309 0000 10B4     		push	{r4}
 310              	.LCFI3:
 311              		.cfi_def_cfa_offset 4
 312              		.cfi_offset 4, -4
 313              	.LBB36:
 314              		.loc 1 112 0
 315 0002 2023     		movs	r3, #32
 316              	.LVL31:
 317              	@ 112 "convex/convex/cortex/fw/vexencoder.c" 1
 318 0004 83F31188 		msr     BASEPRI, r3
 319              	@ 0 "" 2
 320              	.LVL32:
 321              		.thumb
 322              	.LBE36:
 323              	.LBB37:
 324              	.LBB38:
 325              		.loc 1 79 0
 326 0008 0E4B     		ldr	r3, .L20
 327              	.LVL33:
 328 000a D968     		ldr	r1, [r3, #12]
 329              	.LVL34:
 330              		.loc 1 80 0
 331 000c 5A69     		ldr	r2, [r3, #20]
 332              		.loc 1 79 0
 333 000e 8C68     		ldr	r4, [r1, #8]
 334              	.LVL35:
 335              		.loc 1 80 0
 336 0010 9068     		ldr	r0, [r2, #8]
 337              	.LVL36:
 338              		.loc 1 79 0
 339 0012 B3F91010 		ldrsh	r1, [r3, #16]
 340              		.loc 1 80 0
 341 0016 B3F91820 		ldrsh	r2, [r3, #24]
ARM GAS  /var/folders/pt/gxfsd_x53tx3h6kb8dkzftl80000gr/T//ccG9x9hO.s 			page 7


 342              		.loc 1 79 0
 343 001a 24FA01F1 		lsr	r1, r4, r1
 344              		.loc 1 80 0
 345 001e 20FA02F2 		lsr	r2, r0, r2
 346              		.loc 1 83 0
 347 0022 01F00101 		and	r1, r1, #1
 348 0026 02F00102 		and	r2, r2, #1
 349 002a 9142     		cmp	r1, r2
 350 002c 1A68     		ldr	r2, [r3, #0]
 351 002e 06D0     		beq	.L18
 352 0030 013A     		subs	r2, r2, #1
 353 0032 1A60     		str	r2, [r3, #0]
 354              	.L19:
 355              	.LBE38:
 356              	.LBE37:
 357              	.LBB40:
 358              		.loc 1 117 0
 359 0034 0023     		movs	r3, #0
 360              	.LVL37:
 361              	@ 117 "convex/convex/cortex/fw/vexencoder.c" 1
 362 0036 83F31188 		msr     BASEPRI, r3
 363              	@ 0 "" 2
 364              	.LVL38:
 365              		.thumb
 366              	.LBE40:
 367              		.loc 1 118 0
 368 003a 10BC     		pop	{r4}
 369 003c 7047     		bx	lr
 370              	.LVL39:
 371              	.L18:
 372              	.LBB41:
 373              	.LBB39:
 374              		.loc 1 83 0
 375 003e 0132     		adds	r2, r2, #1
 376 0040 1A60     		str	r2, [r3, #0]
 377 0042 F7E7     		b	.L19
 378              	.L21:
 379              		.align	2
 380              	.L20:
 381 0044 00000000 		.word	.LANCHOR0
 382              	.LBE39:
 383              	.LBE41:
 384              		.cfi_endproc
 385              	.LFE65:
 386              		.size	_vqe_1_cb_a, .-_vqe_1_cb_a
 387 0048 AFF30080 		.section	.text._vqe_2_cb_a,"ax",%progbits
 387      AFF30080 
 388              		.align	2
 389              		.p2align 4,,15
 390              		.thumb
 391              		.thumb_func
 392              		.type	_vqe_2_cb_a, %function
 393              	_vqe_2_cb_a:
 394              	.LFB67:
 395              		.loc 1 142 0
 396              		.cfi_startproc
 397              		@ args = 0, pretend = 0, frame = 0
ARM GAS  /var/folders/pt/gxfsd_x53tx3h6kb8dkzftl80000gr/T//ccG9x9hO.s 			page 8


 398              		@ frame_needed = 0, uses_anonymous_args = 0
 399              		@ link register save eliminated.
 400              	.LVL40:
 401 0000 10B4     		push	{r4}
 402              	.LCFI4:
 403              		.cfi_def_cfa_offset 4
 404              		.cfi_offset 4, -4
 405              	.LBB46:
 406              		.loc 1 146 0
 407 0002 2023     		movs	r3, #32
 408              	.LVL41:
 409              	@ 146 "convex/convex/cortex/fw/vexencoder.c" 1
 410 0004 83F31188 		msr     BASEPRI, r3
 411              	@ 0 "" 2
 412              	.LVL42:
 413              		.thumb
 414              	.LBE46:
 415              	.LBB47:
 416              	.LBB48:
 417              		.loc 1 79 0
 418 0008 0E4B     		ldr	r3, .L25
 419              	.LVL43:
 420 000a 996A     		ldr	r1, [r3, #40]
 421              	.LVL44:
 422              		.loc 1 80 0
 423 000c 1A6B     		ldr	r2, [r3, #48]
 424              		.loc 1 79 0
 425 000e 8C68     		ldr	r4, [r1, #8]
 426              	.LVL45:
 427              		.loc 1 80 0
 428 0010 9068     		ldr	r0, [r2, #8]
 429              	.LVL46:
 430              		.loc 1 79 0
 431 0012 B3F92C10 		ldrsh	r1, [r3, #44]
 432              		.loc 1 80 0
 433 0016 B3F93420 		ldrsh	r2, [r3, #52]
 434              		.loc 1 79 0
 435 001a 24FA01F1 		lsr	r1, r4, r1
 436              		.loc 1 80 0
 437 001e 20FA02F2 		lsr	r2, r0, r2
 438              		.loc 1 83 0
 439 0022 01F00101 		and	r1, r1, #1
 440 0026 02F00102 		and	r2, r2, #1
 441 002a 9142     		cmp	r1, r2
 442 002c DA69     		ldr	r2, [r3, #28]
 443 002e 06D0     		beq	.L23
 444 0030 013A     		subs	r2, r2, #1
 445 0032 DA61     		str	r2, [r3, #28]
 446              	.L24:
 447              	.LBE48:
 448              	.LBE47:
 449              	.LBB50:
 450              		.loc 1 151 0
 451 0034 0023     		movs	r3, #0
 452              	.LVL47:
 453              	@ 151 "convex/convex/cortex/fw/vexencoder.c" 1
 454 0036 83F31188 		msr     BASEPRI, r3
ARM GAS  /var/folders/pt/gxfsd_x53tx3h6kb8dkzftl80000gr/T//ccG9x9hO.s 			page 9


 455              	@ 0 "" 2
 456              	.LVL48:
 457              		.thumb
 458              	.LBE50:
 459              		.loc 1 152 0
 460 003a 10BC     		pop	{r4}
 461 003c 7047     		bx	lr
 462              	.LVL49:
 463              	.L23:
 464              	.LBB51:
 465              	.LBB49:
 466              		.loc 1 83 0
 467 003e 0132     		adds	r2, r2, #1
 468 0040 DA61     		str	r2, [r3, #28]
 469 0042 F7E7     		b	.L24
 470              	.L26:
 471              		.align	2
 472              	.L25:
 473 0044 00000000 		.word	.LANCHOR0
 474              	.LBE49:
 475              	.LBE51:
 476              		.cfi_endproc
 477              	.LFE67:
 478              		.size	_vqe_2_cb_a, .-_vqe_2_cb_a
 479 0048 AFF30080 		.section	.text._vqe_3_cb_a,"ax",%progbits
 479      AFF30080 
 480              		.align	2
 481              		.p2align 4,,15
 482              		.thumb
 483              		.thumb_func
 484              		.type	_vqe_3_cb_a, %function
 485              	_vqe_3_cb_a:
 486              	.LFB69:
 487              		.loc 1 176 0
 488              		.cfi_startproc
 489              		@ args = 0, pretend = 0, frame = 0
 490              		@ frame_needed = 0, uses_anonymous_args = 0
 491              		@ link register save eliminated.
 492              	.LVL50:
 493 0000 10B4     		push	{r4}
 494              	.LCFI5:
 495              		.cfi_def_cfa_offset 4
 496              		.cfi_offset 4, -4
 497              	.LBB56:
 498              		.loc 1 180 0
 499 0002 2023     		movs	r3, #32
 500              	.LVL51:
 501              	@ 180 "convex/convex/cortex/fw/vexencoder.c" 1
 502 0004 83F31188 		msr     BASEPRI, r3
 503              	@ 0 "" 2
 504              	.LVL52:
 505              		.thumb
 506              	.LBE56:
 507              	.LBB57:
 508              	.LBB58:
 509              		.loc 1 79 0
 510 0008 0E4B     		ldr	r3, .L30
ARM GAS  /var/folders/pt/gxfsd_x53tx3h6kb8dkzftl80000gr/T//ccG9x9hO.s 			page 10


 511              	.LVL53:
 512 000a 596C     		ldr	r1, [r3, #68]
 513              	.LVL54:
 514              		.loc 1 80 0
 515 000c DA6C     		ldr	r2, [r3, #76]
 516              		.loc 1 79 0
 517 000e 8C68     		ldr	r4, [r1, #8]
 518              	.LVL55:
 519              		.loc 1 80 0
 520 0010 9068     		ldr	r0, [r2, #8]
 521              	.LVL56:
 522              		.loc 1 79 0
 523 0012 B3F94810 		ldrsh	r1, [r3, #72]
 524              		.loc 1 80 0
 525 0016 B3F95020 		ldrsh	r2, [r3, #80]
 526              		.loc 1 79 0
 527 001a 24FA01F1 		lsr	r1, r4, r1
 528              		.loc 1 80 0
 529 001e 20FA02F2 		lsr	r2, r0, r2
 530              		.loc 1 83 0
 531 0022 01F00101 		and	r1, r1, #1
 532 0026 02F00102 		and	r2, r2, #1
 533 002a 9142     		cmp	r1, r2
 534 002c 9A6B     		ldr	r2, [r3, #56]
 535 002e 06D0     		beq	.L28
 536 0030 013A     		subs	r2, r2, #1
 537 0032 9A63     		str	r2, [r3, #56]
 538              	.L29:
 539              	.LBE58:
 540              	.LBE57:
 541              	.LBB60:
 542              		.loc 1 185 0
 543 0034 0023     		movs	r3, #0
 544              	.LVL57:
 545              	@ 185 "convex/convex/cortex/fw/vexencoder.c" 1
 546 0036 83F31188 		msr     BASEPRI, r3
 547              	@ 0 "" 2
 548              	.LVL58:
 549              		.thumb
 550              	.LBE60:
 551              		.loc 1 186 0
 552 003a 10BC     		pop	{r4}
 553 003c 7047     		bx	lr
 554              	.LVL59:
 555              	.L28:
 556              	.LBB61:
 557              	.LBB59:
 558              		.loc 1 83 0
 559 003e 0132     		adds	r2, r2, #1
 560 0040 9A63     		str	r2, [r3, #56]
 561 0042 F7E7     		b	.L29
 562              	.L31:
 563              		.align	2
 564              	.L30:
 565 0044 00000000 		.word	.LANCHOR0
 566              	.LBE59:
 567              	.LBE61:
ARM GAS  /var/folders/pt/gxfsd_x53tx3h6kb8dkzftl80000gr/T//ccG9x9hO.s 			page 11


 568              		.cfi_endproc
 569              	.LFE69:
 570              		.size	_vqe_3_cb_a, .-_vqe_3_cb_a
 571 0048 AFF30080 		.section	.text._vqe_4_cb_a,"ax",%progbits
 571      AFF30080 
 572              		.align	2
 573              		.p2align 4,,15
 574              		.thumb
 575              		.thumb_func
 576              		.type	_vqe_4_cb_a, %function
 577              	_vqe_4_cb_a:
 578              	.LFB71:
 579              		.loc 1 207 0
 580              		.cfi_startproc
 581              		@ args = 0, pretend = 0, frame = 0
 582              		@ frame_needed = 0, uses_anonymous_args = 0
 583              		@ link register save eliminated.
 584              	.LVL60:
 585 0000 10B4     		push	{r4}
 586              	.LCFI6:
 587              		.cfi_def_cfa_offset 4
 588              		.cfi_offset 4, -4
 589              	.LBB66:
 590              		.loc 1 211 0
 591 0002 2023     		movs	r3, #32
 592              	.LVL61:
 593              	@ 211 "convex/convex/cortex/fw/vexencoder.c" 1
 594 0004 83F31188 		msr     BASEPRI, r3
 595              	@ 0 "" 2
 596              	.LVL62:
 597              		.thumb
 598              	.LBE66:
 599              	.LBB67:
 600              	.LBB68:
 601              		.loc 1 79 0
 602 0008 0E4B     		ldr	r3, .L35
 603              	.LVL63:
 604 000a 196E     		ldr	r1, [r3, #96]
 605              	.LVL64:
 606              		.loc 1 80 0
 607 000c 9A6E     		ldr	r2, [r3, #104]
 608              		.loc 1 79 0
 609 000e 8C68     		ldr	r4, [r1, #8]
 610              	.LVL65:
 611              		.loc 1 80 0
 612 0010 9068     		ldr	r0, [r2, #8]
 613              	.LVL66:
 614              		.loc 1 79 0
 615 0012 B3F96410 		ldrsh	r1, [r3, #100]
 616              		.loc 1 80 0
 617 0016 B3F96C20 		ldrsh	r2, [r3, #108]
 618              		.loc 1 79 0
 619 001a 24FA01F1 		lsr	r1, r4, r1
 620              		.loc 1 80 0
 621 001e 20FA02F2 		lsr	r2, r0, r2
 622              		.loc 1 83 0
 623 0022 01F00101 		and	r1, r1, #1
ARM GAS  /var/folders/pt/gxfsd_x53tx3h6kb8dkzftl80000gr/T//ccG9x9hO.s 			page 12


 624 0026 02F00102 		and	r2, r2, #1
 625 002a 9142     		cmp	r1, r2
 626 002c 5A6D     		ldr	r2, [r3, #84]
 627 002e 06D0     		beq	.L33
 628 0030 013A     		subs	r2, r2, #1
 629 0032 5A65     		str	r2, [r3, #84]
 630              	.L34:
 631              	.LBE68:
 632              	.LBE67:
 633              	.LBB70:
 634              		.loc 1 216 0
 635 0034 0023     		movs	r3, #0
 636              	.LVL67:
 637              	@ 216 "convex/convex/cortex/fw/vexencoder.c" 1
 638 0036 83F31188 		msr     BASEPRI, r3
 639              	@ 0 "" 2
 640              	.LVL68:
 641              		.thumb
 642              	.LBE70:
 643              		.loc 1 217 0
 644 003a 10BC     		pop	{r4}
 645 003c 7047     		bx	lr
 646              	.LVL69:
 647              	.L33:
 648              	.LBB71:
 649              	.LBB69:
 650              		.loc 1 83 0
 651 003e 0132     		adds	r2, r2, #1
 652 0040 5A65     		str	r2, [r3, #84]
 653 0042 F7E7     		b	.L34
 654              	.L36:
 655              		.align	2
 656              	.L35:
 657 0044 00000000 		.word	.LANCHOR0
 658              	.LBE69:
 659              	.LBE71:
 660              		.cfi_endproc
 661              	.LFE71:
 662              		.size	_vqe_4_cb_a, .-_vqe_4_cb_a
 663 0048 AFF30080 		.section	.text._vqe_1_cb_b,"ax",%progbits
 663      AFF30080 
 664              		.align	2
 665              		.p2align 4,,15
 666              		.thumb
 667              		.thumb_func
 668              		.type	_vqe_1_cb_b, %function
 669              	_vqe_1_cb_b:
 670              	.LFB66:
 671              		.loc 1 125 0
 672              		.cfi_startproc
 673              		@ args = 0, pretend = 0, frame = 0
 674              		@ frame_needed = 0, uses_anonymous_args = 0
 675              		@ link register save eliminated.
 676              	.LVL70:
 677 0000 10B4     		push	{r4}
 678              	.LCFI7:
 679              		.cfi_def_cfa_offset 4
ARM GAS  /var/folders/pt/gxfsd_x53tx3h6kb8dkzftl80000gr/T//ccG9x9hO.s 			page 13


 680              		.cfi_offset 4, -4
 681              	.LBB76:
 682              		.loc 1 129 0
 683 0002 2023     		movs	r3, #32
 684              	.LVL71:
 685              	@ 129 "convex/convex/cortex/fw/vexencoder.c" 1
 686 0004 83F31188 		msr     BASEPRI, r3
 687              	@ 0 "" 2
 688              	.LVL72:
 689              		.thumb
 690              	.LBE76:
 691              	.LBB77:
 692              	.LBB78:
 693              		.loc 1 96 0
 694 0008 0E4B     		ldr	r3, .L40
 695              	.LVL73:
 696 000a D968     		ldr	r1, [r3, #12]
 697              	.LVL74:
 698              		.loc 1 97 0
 699 000c 5A69     		ldr	r2, [r3, #20]
 700              		.loc 1 96 0
 701 000e 8C68     		ldr	r4, [r1, #8]
 702              	.LVL75:
 703              		.loc 1 97 0
 704 0010 9068     		ldr	r0, [r2, #8]
 705              	.LVL76:
 706              		.loc 1 96 0
 707 0012 B3F91010 		ldrsh	r1, [r3, #16]
 708              		.loc 1 97 0
 709 0016 B3F91820 		ldrsh	r2, [r3, #24]
 710              		.loc 1 96 0
 711 001a 24FA01F1 		lsr	r1, r4, r1
 712              		.loc 1 97 0
 713 001e 20FA02F2 		lsr	r2, r0, r2
 714              		.loc 1 100 0
 715 0022 01F00101 		and	r1, r1, #1
 716 0026 02F00102 		and	r2, r2, #1
 717 002a 9142     		cmp	r1, r2
 718 002c 1A68     		ldr	r2, [r3, #0]
 719 002e 06D0     		beq	.L38
 720 0030 0132     		adds	r2, r2, #1
 721 0032 1A60     		str	r2, [r3, #0]
 722              	.L39:
 723              	.LBE78:
 724              	.LBE77:
 725              	.LBB80:
 726              		.loc 1 134 0
 727 0034 0023     		movs	r3, #0
 728              	.LVL77:
 729              	@ 134 "convex/convex/cortex/fw/vexencoder.c" 1
 730 0036 83F31188 		msr     BASEPRI, r3
 731              	@ 0 "" 2
 732              	.LVL78:
 733              		.thumb
 734              	.LBE80:
 735              		.loc 1 135 0
 736 003a 10BC     		pop	{r4}
ARM GAS  /var/folders/pt/gxfsd_x53tx3h6kb8dkzftl80000gr/T//ccG9x9hO.s 			page 14


 737 003c 7047     		bx	lr
 738              	.LVL79:
 739              	.L38:
 740              	.LBB81:
 741              	.LBB79:
 742              		.loc 1 100 0
 743 003e 013A     		subs	r2, r2, #1
 744 0040 1A60     		str	r2, [r3, #0]
 745 0042 F7E7     		b	.L39
 746              	.L41:
 747              		.align	2
 748              	.L40:
 749 0044 00000000 		.word	.LANCHOR0
 750              	.LBE79:
 751              	.LBE81:
 752              		.cfi_endproc
 753              	.LFE66:
 754              		.size	_vqe_1_cb_b, .-_vqe_1_cb_b
 755 0048 AFF30080 		.section	.text._vqe_2_cb_b,"ax",%progbits
 755      AFF30080 
 756              		.align	2
 757              		.p2align 4,,15
 758              		.thumb
 759              		.thumb_func
 760              		.type	_vqe_2_cb_b, %function
 761              	_vqe_2_cb_b:
 762              	.LFB68:
 763              		.loc 1 159 0
 764              		.cfi_startproc
 765              		@ args = 0, pretend = 0, frame = 0
 766              		@ frame_needed = 0, uses_anonymous_args = 0
 767              		@ link register save eliminated.
 768              	.LVL80:
 769 0000 10B4     		push	{r4}
 770              	.LCFI8:
 771              		.cfi_def_cfa_offset 4
 772              		.cfi_offset 4, -4
 773              	.LBB86:
 774              		.loc 1 163 0
 775 0002 2023     		movs	r3, #32
 776              	.LVL81:
 777              	@ 163 "convex/convex/cortex/fw/vexencoder.c" 1
 778 0004 83F31188 		msr     BASEPRI, r3
 779              	@ 0 "" 2
 780              	.LVL82:
 781              		.thumb
 782              	.LBE86:
 783              	.LBB87:
 784              	.LBB88:
 785              		.loc 1 96 0
 786 0008 0E4B     		ldr	r3, .L45
 787              	.LVL83:
 788 000a 996A     		ldr	r1, [r3, #40]
 789              	.LVL84:
 790              		.loc 1 97 0
 791 000c 1A6B     		ldr	r2, [r3, #48]
 792              		.loc 1 96 0
ARM GAS  /var/folders/pt/gxfsd_x53tx3h6kb8dkzftl80000gr/T//ccG9x9hO.s 			page 15


 793 000e 8C68     		ldr	r4, [r1, #8]
 794              	.LVL85:
 795              		.loc 1 97 0
 796 0010 9068     		ldr	r0, [r2, #8]
 797              	.LVL86:
 798              		.loc 1 96 0
 799 0012 B3F92C10 		ldrsh	r1, [r3, #44]
 800              		.loc 1 97 0
 801 0016 B3F93420 		ldrsh	r2, [r3, #52]
 802              		.loc 1 96 0
 803 001a 24FA01F1 		lsr	r1, r4, r1
 804              		.loc 1 97 0
 805 001e 20FA02F2 		lsr	r2, r0, r2
 806              		.loc 1 100 0
 807 0022 01F00101 		and	r1, r1, #1
 808 0026 02F00102 		and	r2, r2, #1
 809 002a 9142     		cmp	r1, r2
 810 002c DA69     		ldr	r2, [r3, #28]
 811 002e 06D0     		beq	.L43
 812 0030 0132     		adds	r2, r2, #1
 813 0032 DA61     		str	r2, [r3, #28]
 814              	.L44:
 815              	.LBE88:
 816              	.LBE87:
 817              	.LBB90:
 818              		.loc 1 168 0
 819 0034 0023     		movs	r3, #0
 820              	.LVL87:
 821              	@ 168 "convex/convex/cortex/fw/vexencoder.c" 1
 822 0036 83F31188 		msr     BASEPRI, r3
 823              	@ 0 "" 2
 824              	.LVL88:
 825              		.thumb
 826              	.LBE90:
 827              		.loc 1 169 0
 828 003a 10BC     		pop	{r4}
 829 003c 7047     		bx	lr
 830              	.LVL89:
 831              	.L43:
 832              	.LBB91:
 833              	.LBB89:
 834              		.loc 1 100 0
 835 003e 013A     		subs	r2, r2, #1
 836 0040 DA61     		str	r2, [r3, #28]
 837 0042 F7E7     		b	.L44
 838              	.L46:
 839              		.align	2
 840              	.L45:
 841 0044 00000000 		.word	.LANCHOR0
 842              	.LBE89:
 843              	.LBE91:
 844              		.cfi_endproc
 845              	.LFE68:
 846              		.size	_vqe_2_cb_b, .-_vqe_2_cb_b
 847 0048 AFF30080 		.section	.text._vqe_3_cb_b,"ax",%progbits
 847      AFF30080 
 848              		.align	2
ARM GAS  /var/folders/pt/gxfsd_x53tx3h6kb8dkzftl80000gr/T//ccG9x9hO.s 			page 16


 849              		.p2align 4,,15
 850              		.thumb
 851              		.thumb_func
 852              		.type	_vqe_3_cb_b, %function
 853              	_vqe_3_cb_b:
 854              	.LFB70:
 855              		.loc 1 193 0
 856              		.cfi_startproc
 857              		@ args = 0, pretend = 0, frame = 0
 858              		@ frame_needed = 0, uses_anonymous_args = 0
 859              		@ link register save eliminated.
 860              	.LVL90:
 861 0000 10B4     		push	{r4}
 862              	.LCFI9:
 863              		.cfi_def_cfa_offset 4
 864              		.cfi_offset 4, -4
 865              	.LBB96:
 866              		.loc 1 197 0
 867 0002 2023     		movs	r3, #32
 868              	.LVL91:
 869              	@ 197 "convex/convex/cortex/fw/vexencoder.c" 1
 870 0004 83F31188 		msr     BASEPRI, r3
 871              	@ 0 "" 2
 872              	.LVL92:
 873              		.thumb
 874              	.LBE96:
 875              	.LBB97:
 876              	.LBB98:
 877              		.loc 1 96 0
 878 0008 0E4B     		ldr	r3, .L50
 879              	.LVL93:
 880 000a 596C     		ldr	r1, [r3, #68]
 881              	.LVL94:
 882              		.loc 1 97 0
 883 000c DA6C     		ldr	r2, [r3, #76]
 884              		.loc 1 96 0
 885 000e 8C68     		ldr	r4, [r1, #8]
 886              	.LVL95:
 887              		.loc 1 97 0
 888 0010 9068     		ldr	r0, [r2, #8]
 889              	.LVL96:
 890              		.loc 1 96 0
 891 0012 B3F94810 		ldrsh	r1, [r3, #72]
 892              		.loc 1 97 0
 893 0016 B3F95020 		ldrsh	r2, [r3, #80]
 894              		.loc 1 96 0
 895 001a 24FA01F1 		lsr	r1, r4, r1
 896              		.loc 1 97 0
 897 001e 20FA02F2 		lsr	r2, r0, r2
 898              		.loc 1 100 0
 899 0022 01F00101 		and	r1, r1, #1
 900 0026 02F00102 		and	r2, r2, #1
 901 002a 9142     		cmp	r1, r2
 902 002c 9A6B     		ldr	r2, [r3, #56]
 903 002e 06D0     		beq	.L48
 904 0030 0132     		adds	r2, r2, #1
 905 0032 9A63     		str	r2, [r3, #56]
ARM GAS  /var/folders/pt/gxfsd_x53tx3h6kb8dkzftl80000gr/T//ccG9x9hO.s 			page 17


 906              	.L49:
 907              	.LBE98:
 908              	.LBE97:
 909              	.LBB100:
 910              		.loc 1 202 0
 911 0034 0023     		movs	r3, #0
 912              	.LVL97:
 913              	@ 202 "convex/convex/cortex/fw/vexencoder.c" 1
 914 0036 83F31188 		msr     BASEPRI, r3
 915              	@ 0 "" 2
 916              	.LVL98:
 917              		.thumb
 918              	.LBE100:
 919              		.loc 1 203 0
 920 003a 10BC     		pop	{r4}
 921 003c 7047     		bx	lr
 922              	.LVL99:
 923              	.L48:
 924              	.LBB101:
 925              	.LBB99:
 926              		.loc 1 100 0
 927 003e 013A     		subs	r2, r2, #1
 928 0040 9A63     		str	r2, [r3, #56]
 929 0042 F7E7     		b	.L49
 930              	.L51:
 931              		.align	2
 932              	.L50:
 933 0044 00000000 		.word	.LANCHOR0
 934              	.LBE99:
 935              	.LBE101:
 936              		.cfi_endproc
 937              	.LFE70:
 938              		.size	_vqe_3_cb_b, .-_vqe_3_cb_b
 939 0048 AFF30080 		.section	.text.vexEncoderInit,"ax",%progbits
 939      AFF30080 
 940              		.align	2
 941              		.p2align 4,,15
 942              		.global	vexEncoderInit
 943              		.thumb
 944              		.thumb_func
 945              		.type	vexEncoderInit, %function
 946              	vexEncoderInit:
 947              	.LFB75:
 948              		.loc 1 292 0
 949              		.cfi_startproc
 950              		@ args = 0, pretend = 0, frame = 0
 951              		@ frame_needed = 0, uses_anonymous_args = 0
 952              		@ link register save eliminated.
 953              	.LVL100:
 954 0000 10B4     		push	{r4}
 955              	.LCFI10:
 956              		.cfi_def_cfa_offset 4
 957              		.cfi_offset 4, -4
 958              		.loc 1 295 0
 959 0002 0023     		movs	r3, #0
 960 0004 074C     		ldr	r4, .L55
 961              		.loc 1 297 0
ARM GAS  /var/folders/pt/gxfsd_x53tx3h6kb8dkzftl80000gr/T//ccG9x9hO.s 			page 18


 962 0006 1A46     		mov	r2, r3
 963              	.LVL101:
 964              	.L53:
 965              		.loc 1 297 0 is_stmt 0 discriminator 2
 966 0008 C3EBC300 		rsb	r0, r3, r3, lsl #3
 967              		.loc 1 295 0 is_stmt 1 discriminator 2
 968 000c 0133     		adds	r3, r3, #1
 969 000e DBB2     		uxtb	r3, r3
 970              	.LVL102:
 971              		.loc 1 297 0 discriminator 2
 972 0010 04EB8001 		add	r1, r4, r0, lsl #2
 973              		.loc 1 295 0 discriminator 2
 974 0014 052B     		cmp	r3, #5
 975              		.loc 1 297 0 discriminator 2
 976 0016 0A81     		strh	r2, [r1, #8]	@ movhi
 977              		.loc 1 298 0 discriminator 2
 978 0018 44F82020 		str	r2, [r4, r0, lsl #2]
 979              		.loc 1 299 0 discriminator 2
 980 001c 4A60     		str	r2, [r1, #4]
 981              		.loc 1 295 0 discriminator 2
 982 001e F3D1     		bne	.L53
 983              		.loc 1 301 0
 984 0020 10BC     		pop	{r4}
 985 0022 7047     		bx	lr
 986              	.L56:
 987              		.align	2
 988              	.L55:
 989 0024 00000000 		.word	.LANCHOR0
 990              		.cfi_endproc
 991              	.LFE75:
 992              		.size	vexEncoderInit, .-vexEncoderInit
 993 0028 AFF30080 		.section	.text.vexEncoderAdd,"ax",%progbits
 993      AFF30080 
 994              		.align	2
 995              		.p2align 4,,15
 996              		.global	vexEncoderAdd
 997              		.thumb
 998              		.thumb_func
 999              		.type	vexEncoderAdd, %function
 1000              	vexEncoderAdd:
 1001              	.LFB76:
 1002              		.loc 1 315 0
 1003              		.cfi_startproc
 1004              		@ args = 0, pretend = 0, frame = 0
 1005              		@ frame_needed = 0, uses_anonymous_args = 0
 1006              	.LVL103:
 1007              		.loc 1 316 0
 1008 0000 0428     		cmp	r0, #4
 1009              		.loc 1 315 0
 1010 0002 2DE9F047 		push	{r4, r5, r6, r7, r8, r9, sl, lr}
 1011              	.LCFI11:
 1012              		.cfi_def_cfa_offset 32
 1013              		.cfi_offset 4, -32
 1014              		.cfi_offset 5, -28
 1015              		.cfi_offset 6, -24
 1016              		.cfi_offset 7, -20
 1017              		.cfi_offset 8, -16
ARM GAS  /var/folders/pt/gxfsd_x53tx3h6kb8dkzftl80000gr/T//ccG9x9hO.s 			page 19


 1018              		.cfi_offset 9, -12
 1019              		.cfi_offset 10, -8
 1020              		.cfi_offset 14, -4
 1021              		.loc 1 315 0
 1022 0006 0446     		mov	r4, r0
 1023 0008 0D46     		mov	r5, r1
 1024 000a 1646     		mov	r6, r2
 1025              		.loc 1 316 0
 1026 000c 03D8     		bhi	.L57
 1027              		.loc 1 319 0
 1028 000e 0B29     		cmp	r1, #11
 1029 0010 01DC     		bgt	.L57
 1030              		.loc 1 321 0
 1031 0012 0B2A     		cmp	r2, #11
 1032 0014 01DD     		ble	.L59
 1033              	.L57:
 1034 0016 BDE8F087 		pop	{r4, r5, r6, r7, r8, r9, sl, pc}
 1035              	.L59:
 1036              		.loc 1 325 0
 1037 001a 224A     		ldr	r2, .L60
 1038              	.LVL104:
 1039 001c C0EBC003 		rsb	r3, r0, r0, lsl #3
 1040 0020 9B00     		lsls	r3, r3, #2
 1041 0022 D718     		adds	r7, r2, r3
 1042 0024 4FF00009 		mov	r9, #0
 1043              		.loc 1 329 0
 1044 0028 0846     		mov	r0, r1
 1045              	.LVL105:
 1046              		.loc 1 325 0
 1047 002a 42F80390 		str	r9, [r2, r3]
 1048              		.loc 1 329 0
 1049 002e 4946     		mov	r1, r9
 1050              	.LVL106:
 1051              		.loc 1 326 0
 1052 0030 C7F80490 		str	r9, [r7, #4]
 1053              		.loc 1 329 0
 1054 0034 FFF7FEFF 		bl	vexDigitalModeSet
 1055              	.LVL107:
 1056              		.loc 1 331 0
 1057 0038 DFF87480 		ldr	r8, .L60+12
 1058 003c 05EB4503 		add	r3, r5, r5, lsl #1
 1059 0040 9B00     		lsls	r3, r3, #2
 1060 0042 08EB0302 		add	r2, r8, r3
 1061 0046 58F803C0 		ldr	ip, [r8, r3]
 1062              		.loc 1 332 0
 1063 004a B2F804E0 		ldrh	lr, [r2, #4]
 1064              		.loc 1 333 0
 1065 004e 164B     		ldr	r3, .L60+4
 1066 0050 6046     		mov	r0, ip
 1067 0052 7146     		mov	r1, lr
 1068 0054 0322     		movs	r2, #3
 1069 0056 53F82430 		ldr	r3, [r3, r4, lsl #2]
 1070              		.loc 1 331 0
 1071 005a C7F80CC0 		str	ip, [r7, #12]
 1072              		.loc 1 332 0
 1073 005e A7F810E0 		strh	lr, [r7, #16]	@ movhi
 1074              		.loc 1 330 0
ARM GAS  /var/folders/pt/gxfsd_x53tx3h6kb8dkzftl80000gr/T//ccG9x9hO.s 			page 20


 1075 0062 BD72     		strb	r5, [r7, #10]
 1076              		.loc 1 333 0
 1077 0064 FFF7FEFF 		bl	vexExtSet
 1078              	.LVL108:
 1079              		.loc 1 336 0
 1080 0068 3046     		mov	r0, r6
 1081 006a 4946     		mov	r1, r9
 1082 006c FFF7FEFF 		bl	vexDigitalModeSet
 1083              	.LVL109:
 1084              		.loc 1 338 0
 1085 0070 06EB4603 		add	r3, r6, r6, lsl #1
 1086 0074 9B00     		lsls	r3, r3, #2
 1087 0076 08EB0302 		add	r2, r8, r3
 1088 007a 58F803E0 		ldr	lr, [r8, r3]
 1089              		.loc 1 339 0
 1090 007e 9588     		ldrh	r5, [r2, #4]
 1091              		.loc 1 340 0
 1092 0080 0A4B     		ldr	r3, .L60+8
 1093 0082 7046     		mov	r0, lr
 1094 0084 53F82430 		ldr	r3, [r3, r4, lsl #2]
 1095 0088 2946     		mov	r1, r5
 1096 008a 0322     		movs	r2, #3
 1097              		.loc 1 337 0
 1098 008c FE72     		strb	r6, [r7, #11]
 1099              		.loc 1 338 0
 1100 008e C7F814E0 		str	lr, [r7, #20]
 1101              		.loc 1 339 0
 1102 0092 3D83     		strh	r5, [r7, #24]	@ movhi
 1103              		.loc 1 340 0
 1104 0094 FFF7FEFF 		bl	vexExtSet
 1105              	.LVL110:
 1106              		.loc 1 342 0
 1107 0098 0123     		movs	r3, #1
 1108              		.loc 1 330 0
 1109 009a 07F1080A 		add	sl, r7, #8
 1110              		.loc 1 342 0
 1111 009e 3B81     		strh	r3, [r7, #8]	@ movhi
 1112 00a0 BDE8F087 		pop	{r4, r5, r6, r7, r8, r9, sl, pc}
 1113              	.L61:
 1114              		.align	2
 1115              	.L60:
 1116 00a4 00000000 		.word	.LANCHOR0
 1117 00a8 00000000 		.word	.LANCHOR1
 1118 00ac 00000000 		.word	.LANCHOR2
 1119 00b0 00000000 		.word	vexioDefinition
 1120              		.cfi_endproc
 1121              	.LFE76:
 1122              		.size	vexEncoderAdd, .-vexEncoderAdd
 1123 00b4 AFF30080 		.section	.text.vexEncoderStart,"ax",%progbits
 1123      AFF30080 
 1123      AFF30080 
 1124              		.align	2
 1125              		.p2align 4,,15
 1126              		.global	vexEncoderStart
 1127              		.thumb
 1128              		.thumb_func
 1129              		.type	vexEncoderStart, %function
ARM GAS  /var/folders/pt/gxfsd_x53tx3h6kb8dkzftl80000gr/T//ccG9x9hO.s 			page 21


 1130              	vexEncoderStart:
 1131              	.LFB77:
 1132              		.loc 1 352 0
 1133              		.cfi_startproc
 1134              		@ args = 0, pretend = 0, frame = 0
 1135              		@ frame_needed = 0, uses_anonymous_args = 0
 1136              	.LVL111:
 1137              		.loc 1 353 0
 1138 0000 0B4B     		ldr	r3, .L65
 1139 0002 C0EBC000 		rsb	r0, r0, r0, lsl #3
 1140              	.LVL112:
 1141              		.loc 1 352 0
 1142 0006 10B5     		push	{r4, lr}
 1143              	.LCFI12:
 1144              		.cfi_def_cfa_offset 8
 1145              		.cfi_offset 4, -8
 1146              		.cfi_offset 14, -4
 1147              		.loc 1 353 0
 1148 0008 03EB8004 		add	r4, r3, r0, lsl #2
 1149 000c B4F90830 		ldrsh	r3, [r4, #8]
 1150 0010 012B     		cmp	r3, #1
 1151 0012 00D0     		beq	.L64
 1152 0014 10BD     		pop	{r4, pc}
 1153              	.L64:
 1154              		.loc 1 355 0
 1155 0016 B4F91010 		ldrsh	r1, [r4, #16]
 1156 001a 0648     		ldr	r0, .L65+4
 1157 001c FFF7FEFF 		bl	extChannelEnable
 1158              	.LVL113:
 1159              		.loc 1 356 0
 1160 0020 0448     		ldr	r0, .L65+4
 1161 0022 B4F91810 		ldrsh	r1, [r4, #24]
 1162              		.loc 1 358 0
 1163 0026 BDE81040 		pop	{r4, lr}
 1164              		.loc 1 356 0
 1165 002a FFF7FEBF 		b	extChannelEnable
 1166              	.LVL114:
 1167              	.L66:
 1168 002e 00BF     		.align	2
 1169              	.L65:
 1170 0030 00000000 		.word	.LANCHOR0
 1171 0034 00000000 		.word	EXTD1
 1172              		.cfi_endproc
 1173              	.LFE77:
 1174              		.size	vexEncoderStart, .-vexEncoderStart
 1175 0038 AFF30080 		.section	.text.vexEncoderStop,"ax",%progbits
 1175      AFF30080 
 1176              		.align	2
 1177              		.p2align 4,,15
 1178              		.global	vexEncoderStop
 1179              		.thumb
 1180              		.thumb_func
 1181              		.type	vexEncoderStop, %function
 1182              	vexEncoderStop:
 1183              	.LFB78:
 1184              		.loc 1 367 0
 1185              		.cfi_startproc
ARM GAS  /var/folders/pt/gxfsd_x53tx3h6kb8dkzftl80000gr/T//ccG9x9hO.s 			page 22


 1186              		@ args = 0, pretend = 0, frame = 0
 1187              		@ frame_needed = 0, uses_anonymous_args = 0
 1188              	.LVL115:
 1189              		.loc 1 368 0
 1190 0000 0B4B     		ldr	r3, .L70
 1191 0002 C0EBC000 		rsb	r0, r0, r0, lsl #3
 1192              	.LVL116:
 1193              		.loc 1 367 0
 1194 0006 10B5     		push	{r4, lr}
 1195              	.LCFI13:
 1196              		.cfi_def_cfa_offset 8
 1197              		.cfi_offset 4, -8
 1198              		.cfi_offset 14, -4
 1199              		.loc 1 368 0
 1200 0008 03EB8004 		add	r4, r3, r0, lsl #2
 1201 000c B4F90830 		ldrsh	r3, [r4, #8]
 1202 0010 012B     		cmp	r3, #1
 1203 0012 00D0     		beq	.L69
 1204 0014 10BD     		pop	{r4, pc}
 1205              	.L69:
 1206              		.loc 1 370 0
 1207 0016 B4F91010 		ldrsh	r1, [r4, #16]
 1208 001a 0648     		ldr	r0, .L70+4
 1209 001c FFF7FEFF 		bl	extChannelDisable
 1210              	.LVL117:
 1211              		.loc 1 371 0
 1212 0020 0448     		ldr	r0, .L70+4
 1213 0022 B4F91810 		ldrsh	r1, [r4, #24]
 1214              		.loc 1 373 0
 1215 0026 BDE81040 		pop	{r4, lr}
 1216              		.loc 1 371 0
 1217 002a FFF7FEBF 		b	extChannelDisable
 1218              	.LVL118:
 1219              	.L71:
 1220 002e 00BF     		.align	2
 1221              	.L70:
 1222 0030 00000000 		.word	.LANCHOR0
 1223 0034 00000000 		.word	EXTD1
 1224              		.cfi_endproc
 1225              	.LFE78:
 1226              		.size	vexEncoderStop, .-vexEncoderStop
 1227 0038 AFF30080 		.section	.text.vexEncoderStartAll,"ax",%progbits
 1227      AFF30080 
 1228              		.align	2
 1229              		.p2align 4,,15
 1230              		.global	vexEncoderStartAll
 1231              		.thumb
 1232              		.thumb_func
 1233              		.type	vexEncoderStartAll, %function
 1234              	vexEncoderStartAll:
 1235              	.LFB79:
 1236              		.loc 1 381 0
 1237              		.cfi_startproc
 1238              		@ args = 0, pretend = 0, frame = 0
 1239              		@ frame_needed = 0, uses_anonymous_args = 0
 1240              	.LVL119:
 1241 0000 08B5     		push	{r3, lr}
ARM GAS  /var/folders/pt/gxfsd_x53tx3h6kb8dkzftl80000gr/T//ccG9x9hO.s 			page 23


 1242              	.LCFI14:
 1243              		.cfi_def_cfa_offset 8
 1244              		.cfi_offset 3, -8
 1245              		.cfi_offset 14, -4
 1246              		.loc 1 385 0
 1247 0002 0020     		movs	r0, #0
 1248 0004 FFF7FEFF 		bl	vexEncoderStart
 1249              	.LVL120:
 1250 0008 0120     		movs	r0, #1
 1251 000a FFF7FEFF 		bl	vexEncoderStart
 1252              	.LVL121:
 1253 000e 0220     		movs	r0, #2
 1254 0010 FFF7FEFF 		bl	vexEncoderStart
 1255              	.LVL122:
 1256 0014 0320     		movs	r0, #3
 1257 0016 FFF7FEFF 		bl	vexEncoderStart
 1258              	.LVL123:
 1259 001a 0420     		movs	r0, #4
 1260              		.loc 1 386 0
 1261 001c BDE80840 		pop	{r3, lr}
 1262              		.loc 1 385 0
 1263 0020 FFF7FEBF 		b	vexEncoderStart
 1264              	.LVL124:
 1265              		.cfi_endproc
 1266              	.LFE79:
 1267              		.size	vexEncoderStartAll, .-vexEncoderStartAll
 1268 0024 AFF30080 		.section	.text.vexEncoderGet,"ax",%progbits
 1268      AFF30080 
 1268      AFF30080 
 1269              		.align	2
 1270              		.p2align 4,,15
 1271              		.global	vexEncoderGet
 1272              		.thumb
 1273              		.thumb_func
 1274              		.type	vexEncoderGet, %function
 1275              	vexEncoderGet:
 1276              	.LFB80:
 1277              		.loc 1 402 0
 1278              		.cfi_startproc
 1279              		@ args = 0, pretend = 0, frame = 0
 1280              		@ frame_needed = 0, uses_anonymous_args = 0
 1281              		@ link register save eliminated.
 1282              	.LVL125:
 1283              		.loc 1 403 0
 1284 0000 83B2     		uxth	r3, r0
 1285 0002 042B     		cmp	r3, #4
 1286 0004 08D8     		bhi	.L75
 1287              		.loc 1 406 0
 1288 0006 054B     		ldr	r3, .L76
 1289 0008 C0EBC000 		rsb	r0, r0, r0, lsl #3
 1290              	.LVL126:
 1291 000c 8000     		lsls	r0, r0, #2
 1292 000e 1A18     		adds	r2, r3, r0
 1293 0010 1858     		ldr	r0, [r3, r0]
 1294 0012 5368     		ldr	r3, [r2, #4]
 1295 0014 C01A     		subs	r0, r0, r3
 1296 0016 7047     		bx	lr
ARM GAS  /var/folders/pt/gxfsd_x53tx3h6kb8dkzftl80000gr/T//ccG9x9hO.s 			page 24


 1297              	.LVL127:
 1298              	.L75:
 1299              		.loc 1 404 0
 1300 0018 0020     		movs	r0, #0
 1301              	.LVL128:
 1302              		.loc 1 407 0
 1303 001a 7047     		bx	lr
 1304              	.L77:
 1305              		.align	2
 1306              	.L76:
 1307 001c 00000000 		.word	.LANCHOR0
 1308              		.cfi_endproc
 1309              	.LFE80:
 1310              		.size	vexEncoderGet, .-vexEncoderGet
 1311              		.section	.text.vexEncoderSet,"ax",%progbits
 1312              		.align	2
 1313              		.p2align 4,,15
 1314              		.global	vexEncoderSet
 1315              		.thumb
 1316              		.thumb_func
 1317              		.type	vexEncoderSet, %function
 1318              	vexEncoderSet:
 1319              	.LFB81:
 1320              		.loc 1 421 0
 1321              		.cfi_startproc
 1322              		@ args = 0, pretend = 0, frame = 0
 1323              		@ frame_needed = 0, uses_anonymous_args = 0
 1324              		@ link register save eliminated.
 1325              	.LVL129:
 1326              		.loc 1 422 0
 1327 0000 83B2     		uxth	r3, r0
 1328 0002 042B     		cmp	r3, #4
 1329 0004 07D8     		bhi	.L78
 1330              		.loc 1 425 0
 1331 0006 044B     		ldr	r3, .L80
 1332 0008 C0EBC000 		rsb	r0, r0, r0, lsl #3
 1333              	.LVL130:
 1334 000c 8000     		lsls	r0, r0, #2
 1335 000e 1A58     		ldr	r2, [r3, r0]
 1336 0010 1818     		adds	r0, r3, r0
 1337 0012 511A     		subs	r1, r2, r1
 1338              	.LVL131:
 1339 0014 4160     		str	r1, [r0, #4]
 1340              	.L78:
 1341 0016 7047     		bx	lr
 1342              	.L81:
 1343              		.align	2
 1344              	.L80:
 1345 0018 00000000 		.word	.LANCHOR0
 1346              		.cfi_endproc
 1347              	.LFE81:
 1348              		.size	vexEncoderSet, .-vexEncoderSet
 1349 001c AFF30080 		.section	.text.vexEncoderGetId,"ax",%progbits
 1350              		.align	2
 1351              		.p2align 4,,15
 1352              		.global	vexEncoderGetId
 1353              		.thumb
ARM GAS  /var/folders/pt/gxfsd_x53tx3h6kb8dkzftl80000gr/T//ccG9x9hO.s 			page 25


 1354              		.thumb_func
 1355              		.type	vexEncoderGetId, %function
 1356              	vexEncoderGetId:
 1357              	.LFB82:
 1358              		.loc 1 442 0
 1359              		.cfi_startproc
 1360              		@ args = 0, pretend = 0, frame = 0
 1361              		@ frame_needed = 0, uses_anonymous_args = 0
 1362              		@ link register save eliminated.
 1363              	.LVL132:
 1364              		.loc 1 443 0
 1365 0000 0428     		cmp	r0, #4
 1366              		.loc 1 447 0
 1367 0002 DFBF     		itttt	le
 1368 0004 064B     		ldrle	r3, .L85
 1369 0006 C0EBC000 		rsble	r0, r0, r0, lsl #3
 1370              	.LVL133:
 1371 000a 03EB8000 		addle	r0, r3, r0, lsl #2
 1372 000e 90F90A00 		ldrsble	r0, [r0, #10]
 1373              		.loc 1 444 0
 1374 0012 CCBF     		ite	gt
 1375 0014 4FF6FF70 		movwgt	r0, #65535
 1376              		.loc 1 447 0
 1377 0018 80B2     		uxthle	r0, r0
 1378              		.loc 1 448 0
 1379 001a 00B2     		sxth	r0, r0
 1380 001c 7047     		bx	lr
 1381              	.L86:
 1382 001e 00BF     		.align	2
 1383              	.L85:
 1384 0020 00000000 		.word	.LANCHOR0
 1385              		.cfi_endproc
 1386              	.LFE82:
 1387              		.size	vexEncoderGetId, .-vexEncoderGetId
 1388 0024 AFF30080 		.section	.text.vexEncoderDebug,"ax",%progbits
 1388      AFF30080 
 1388      AFF30080 
 1389              		.align	2
 1390              		.p2align 4,,15
 1391              		.global	vexEncoderDebug
 1392              		.thumb
 1393              		.thumb_func
 1394              		.type	vexEncoderDebug, %function
 1395              	vexEncoderDebug:
 1396              	.LFB83:
 1397              		.loc 1 459 0
 1398              		.cfi_startproc
 1399              		@ args = 0, pretend = 0, frame = 0
 1400              		@ frame_needed = 0, uses_anonymous_args = 0
 1401              	.LVL134:
 1402 0000 70B5     		push	{r4, r5, r6, lr}
 1403              	.LCFI15:
 1404              		.cfi_def_cfa_offset 16
 1405              		.cfi_offset 4, -16
 1406              		.cfi_offset 5, -12
 1407              		.cfi_offset 6, -8
 1408              		.cfi_offset 14, -4
ARM GAS  /var/folders/pt/gxfsd_x53tx3h6kb8dkzftl80000gr/T//ccG9x9hO.s 			page 26


 1409 0002 0B4D     		ldr	r5, .L90
 1410 0004 82B0     		sub	sp, sp, #8
 1411              	.LCFI16:
 1412              		.cfi_def_cfa_offset 24
 1413              		.loc 1 459 0
 1414 0006 0646     		mov	r6, r0
 1415              		.loc 1 465 0
 1416 0008 0024     		movs	r4, #0
 1417              	.LVL135:
 1418              	.L88:
 1419              		.loc 1 466 0 discriminator 2
 1420 000a C4EBC403 		rsb	r3, r4, r4, lsl #3
 1421 000e 05EB8302 		add	r2, r5, r3, lsl #2
 1422 0012 5168     		ldr	r1, [r2, #4]
 1423 0014 2246     		mov	r2, r4
 1424              		.loc 1 465 0 discriminator 2
 1425 0016 0134     		adds	r4, r4, #1
 1426              		.loc 1 466 0 discriminator 2
 1427 0018 0091     		str	r1, [sp, #0]
 1428 001a 55F82330 		ldr	r3, [r5, r3, lsl #2]
 1429 001e 3046     		mov	r0, r6
 1430 0020 0449     		ldr	r1, .L90+4
 1431              		.loc 1 465 0 discriminator 2
 1432 0022 E4B2     		uxtb	r4, r4
 1433              		.loc 1 466 0 discriminator 2
 1434 0024 FFF7FEFF 		bl	vex_chprintf
 1435              	.LVL136:
 1436              		.loc 1 465 0 discriminator 2
 1437 0028 052C     		cmp	r4, #5
 1438 002a EED1     		bne	.L88
 1439              		.loc 1 467 0
 1440 002c 02B0     		add	sp, sp, #8
 1441 002e 70BD     		pop	{r4, r5, r6, pc}
 1442              	.L91:
 1443              		.align	2
 1444              	.L90:
 1445 0030 00000000 		.word	.LANCHOR0
 1446 0034 00000000 		.word	.LC0
 1447              		.cfi_endproc
 1448              	.LFE83:
 1449              		.size	vexEncoderDebug, .-vexEncoderDebug
 1450 0038 AFF30080 		.section	.rodata._vqe_cb_a,"a",%progbits
 1450      AFF30080 
 1451              		.align	2
 1452              		.set	.LANCHOR1,. + 0
 1453              		.type	_vqe_cb_a, %object
 1454              		.size	_vqe_cb_a, 20
 1455              	_vqe_cb_a:
 1456 0000 00000000 		.word	_vqe_1_cb_a
 1457 0004 00000000 		.word	_vqe_2_cb_a
 1458 0008 00000000 		.word	_vqe_3_cb_a
 1459 000c 00000000 		.word	_vqe_4_cb_a
 1460 0010 00000000 		.word	_vqe_5_cb_a
 1461              		.section	.rodata._vqe_cb_b,"a",%progbits
 1462              		.align	2
 1463              		.set	.LANCHOR2,. + 0
 1464              		.type	_vqe_cb_b, %object
ARM GAS  /var/folders/pt/gxfsd_x53tx3h6kb8dkzftl80000gr/T//ccG9x9hO.s 			page 27


 1465              		.size	_vqe_cb_b, 20
 1466              	_vqe_cb_b:
 1467 0000 00000000 		.word	_vqe_1_cb_b
 1468 0004 00000000 		.word	_vqe_2_cb_b
 1469 0008 00000000 		.word	_vqe_3_cb_b
 1470 000c 00000000 		.word	_vqe_4_cb_b
 1471 0010 00000000 		.word	_vqe_5_cb_b
 1472              		.section	.rodata.str1.4,"aMS",%progbits,1
 1473              		.align	2
 1474              	.LC0:
 1475 0000 45256420 		.ascii	"E%d %8ld  %8ld\015\012\000"
 1475      25386C64 
 1475      20202538 
 1475      6C640D0A 
 1475      00
 1476 0011 000000   		.section	.bss.vexQuadEncoders,"aw",%nobits
 1477              		.align	2
 1478              		.set	.LANCHOR0,. + 0
 1479              		.type	vexQuadEncoders, %object
 1480              		.size	vexQuadEncoders, 140
 1481              	vexQuadEncoders:
 1482 0000 00000000 		.space	140
 1482      00000000 
 1482      00000000 
 1482      00000000 
 1482      00000000 
 1483              		.text
 1484              	.Letext0:
 1485              		.file 2 "/Users/programmer/ConVEX/yagarto-4.7.2/bin/../lib/gcc/arm-none-eabi/4.7.2/include/stddef.
 1486              		.file 3 "/Users/programmer/ConVEX/yagarto-4.7.2/bin/../lib/gcc/arm-none-eabi/4.7.2/../../../../arm
 1487              		.file 4 "convex/ChibiOS_2.6.2/os/ports/GCC/ARMCMx/chtypes.h"
 1488              		.file 5 "convex/ChibiOS_2.6.2/os/kernel/include/chstreams.h"
 1489              		.file 6 "convex/ChibiOS_2.6.2/os/hal/platforms/STM32F1xx/stm32f10x.h"
 1490              		.file 7 "convex/ChibiOS_2.6.2/os/hal/platforms/STM32/GPIOv1/pal_lld.h"
 1491              		.file 8 "convex/ChibiOS_2.6.2/os/hal/include/ext.h"
 1492              		.file 9 "convex/ChibiOS_2.6.2/os/hal/platforms/STM32/ext_lld.h"
 1493              		.file 10 "convex/convex/cortex/fw/vexcompat.h"
 1494              		.file 11 "convex/convex/cortex/fw/vexdigital.h"
 1495              		.file 12 "convex/convex/cortex/fw/vexencoder.h"
 1496              		.file 13 "convex/convex/cortex/fw/vexime.h"
 1497              		.file 14 "convex/ChibiOS_2.6.2/os/ports/common/ARMCMx/CMSIS/include/core_cm3.h"
 1498              		.file 15 "convex/convex/cortex/fw/vexprintf.h"