ARM GAS  /var/folders/pt/gxfsd_x53tx3h6kb8dkzftl80000gr/T//cceTBJ4B.s 			page 1


   1              		.syntax unified
   2              		.cpu cortex-m3
   3              		.fpu softvfp
   4              		.eabi_attribute 20, 1
   5              		.eabi_attribute 21, 1
   6              		.eabi_attribute 23, 3
   7              		.eabi_attribute 24, 1
   8              		.eabi_attribute 25, 1
   9              		.eabi_attribute 26, 1
  10              		.eabi_attribute 30, 2
  11              		.eabi_attribute 34, 1
  12              		.eabi_attribute 18, 4
  13              		.thumb
  14              		.file	"vexflash.c"
  15              		.text
  16              	.Ltext0:
  17              		.cfi_sections	.debug_frame
  18              		.section	.text.vexFlashUserParamRead,"ax",%progbits
  19              		.align	2
  20              		.p2align 4,,15
  21              		.global	vexFlashUserParamRead
  22              		.thumb
  23              		.thumb_func
  24              		.type	vexFlashUserParamRead, %function
  25              	vexFlashUserParamRead:
  26              	.LFB64:
  27              		.file 1 "convex/convex/cortex/opt/vexflash.c"
  28              		.loc 1 106 0
  29              		.cfi_startproc
  30              		@ args = 0, pretend = 0, frame = 0
  31              		@ frame_needed = 0, uses_anonymous_args = 0
  32              		@ link register save eliminated.
  33              	.LVL0:
  34 0000 10B4     		push	{r4}
  35              	.LCFI0:
  36              		.cfi_def_cfa_offset 4
  37              		.cfi_offset 4, -4
  38              		.loc 1 84 0
  39 0002 4FF47043 		mov	r3, #61440
  40              	.LBB6:
  41              	.LBB7:
  42              		.loc 1 87 0
  43 0006 4FF47144 		mov	r4, #61696
  44              	.LBE7:
  45              	.LBE6:
  46              		.loc 1 79 0
  47 000a 4FF6FF72 		movw	r2, #65535
  48              		.loc 1 84 0
  49 000e C0F60503 		movt	r3, 2053
  50              	.LVL1:
  51              	.LBB9:
  52              	.LBB8:
  53              		.loc 1 87 0
  54 0012 C0F60504 		movt	r4, 2053
  55 0016 02E0     		b	.L3
  56              	.LVL2:
  57              	.L15:
ARM GAS  /var/folders/pt/gxfsd_x53tx3h6kb8dkzftl80000gr/T//cceTBJ4B.s 			page 2


  58 0018 A342     		cmp	r3, r4
  59              		.loc 1 90 0
  60 001a 82B2     		uxth	r2, r0
  61              	.LVL3:
  62              		.loc 1 87 0
  63 001c 04D0     		beq	.L2
  64              	.LVL4:
  65              	.L3:
  66              		.loc 1 89 0
  67 001e 53F8041B 		ldr	r1, [r3], #4
  68              	.LVL5:
  69              		.loc 1 90 0
  70 0022 501C     		adds	r0, r2, #1
  71              		.loc 1 89 0
  72 0024 0131     		adds	r1, r1, #1
  73 0026 F7D1     		bne	.L15
  74              	.L2:
  75              	.LBE8:
  76              	.LBE9:
  77              		.loc 1 111 0
  78 0028 12B2     		sxth	r2, r2
  79 002a 1049     		ldr	r1, .L17
  80              		.loc 1 113 0
  81 002c 531C     		adds	r3, r2, #1
  82              	.LVL6:
  83              		.loc 1 111 0
  84 002e 0A62     		str	r2, [r1, #32]
  85              		.loc 1 113 0
  86 0030 12D0     		beq	.L16
  87              		.loc 1 125 0
  88 0032 42F68874 		movw	r4, #12168
  89 0036 C0F24004 		movt	r4, 64
  90 003a 1419     		adds	r4, r2, r4
  91 003c 6401     		lsls	r4, r4, #5
  92              	.LVL7:
  93              		.loc 1 128 0
  94 003e 4C62     		str	r4, [r1, #36]
  95              	.LVL8:
  96              		.loc 1 108 0
  97 0040 0B46     		mov	r3, r1
  98 0042 01F12000 		add	r0, r1, #32
  99              	.LVL9:
 100              	.L7:
 101              		.loc 1 105 0 discriminator 2
 102 0046 5A1A     		subs	r2, r3, r1
 103              		.loc 1 132 0 discriminator 2
 104 0048 1259     		ldr	r2, [r2, r4]
 105 004a 43F8042B 		str	r2, [r3], #4
 106              	.LVL10:
 107              		.loc 1 131 0 discriminator 2
 108 004e 8342     		cmp	r3, r0
 109 0050 F9D1     		bne	.L7
 110              	.LVL11:
 111              	.L6:
 112              		.loc 1 136 0
 113 0052 0648     		ldr	r0, .L17
 114 0054 10BC     		pop	{r4}
ARM GAS  /var/folders/pt/gxfsd_x53tx3h6kb8dkzftl80000gr/T//cceTBJ4B.s 			page 3


 115 0056 7047     		bx	lr
 116              	.LVL12:
 117              	.L16:
 118 0058 01F12000 		add	r0, r1, #32
 119              	.LVL13:
 120              	.L5:
 121              		.loc 1 117 0 discriminator 2
 122 005c 41F8042B 		str	r2, [r1], #4
 123              	.LVL14:
 124              		.loc 1 116 0 discriminator 2
 125 0060 8142     		cmp	r1, r0
 126 0062 FBD1     		bne	.L5
 127              		.loc 1 120 0
 128 0064 014B     		ldr	r3, .L17
 129 0066 0022     		movs	r2, #0
 130 0068 5A62     		str	r2, [r3, #36]
 131 006a F2E7     		b	.L6
 132              	.L18:
 133              		.align	2
 134              	.L17:
 135 006c 00000000 		.word	.LANCHOR0
 136              		.cfi_endproc
 137              	.LFE64:
 138              		.size	vexFlashUserParamRead, .-vexFlashUserParamRead
 139              		.section	.text.vexFlashUserParamWrite,"ax",%progbits
 140              		.align	2
 141              		.p2align 4,,15
 142              		.global	vexFlashUserParamWrite
 143              		.thumb
 144              		.thumb_func
 145              		.type	vexFlashUserParamWrite, %function
 146              	vexFlashUserParamWrite:
 147              	.LFB65:
 148              		.loc 1 146 0
 149              		.cfi_startproc
 150              		@ args = 0, pretend = 0, frame = 8
 151              		@ frame_needed = 0, uses_anonymous_args = 0
 152              	.LVL15:
 153 0000 F0B5     		push	{r4, r5, r6, r7, lr}
 154              	.LCFI1:
 155              		.cfi_def_cfa_offset 20
 156              		.cfi_offset 4, -20
 157              		.cfi_offset 5, -16
 158              		.cfi_offset 6, -12
 159              		.cfi_offset 7, -8
 160              		.cfi_offset 14, -4
 161              		.loc 1 155 0
 162 0002 0423     		movs	r3, #4
 163              		.loc 1 146 0
 164 0004 83B0     		sub	sp, sp, #12
 165              	.LCFI2:
 166              		.cfi_def_cfa_offset 32
 167              		.loc 1 159 0
 168 0006 0646     		mov	r6, r0
 169              		.loc 1 155 0
 170 0008 8DF80730 		strb	r3, [sp, #7]
 171              	.LVL16:
ARM GAS  /var/folders/pt/gxfsd_x53tx3h6kb8dkzftl80000gr/T//cceTBJ4B.s 			page 4


 172              		.loc 1 159 0
 173 000c 0028     		cmp	r0, #0
 174 000e 6ED0     		beq	.L27
 175              		.loc 1 163 0
 176 0010 384B     		ldr	r3, .L38
 177 0012 1A88     		ldrh	r2, [r3, #0]
 178 0014 11B2     		sxth	r1, r2
 179 0016 1F29     		cmp	r1, #31
 180 0018 63DC     		bgt	.L28
 181              		.loc 1 167 0
 182 001a 0132     		adds	r2, r2, #1
 183 001c 1A80     		strh	r2, [r3, #0]	@ movhi
 184              		.loc 1 170 0
 185 001e FFF7FEFF 		bl	FLASH_UnlockBank1
 186              	.LVL17:
 187              		.loc 1 173 0
 188 0022 3420     		movs	r0, #52
 189 0024 FFF7FEFF 		bl	FLASH_ClearFlag
 190              	.LVL18:
 191              	.LBB10:
 192              	.LBB11:
 193              		.loc 1 87 0
 194 0028 4FF47145 		mov	r5, #61696
 195              	.LBE11:
 196              	.LBE10:
 197              		.loc 1 84 0
 198 002c 4FF47043 		mov	r3, #61440
 199              		.loc 1 79 0
 200 0030 4FF6FF72 		movw	r2, #65535
 201              		.loc 1 84 0
 202 0034 C0F60503 		movt	r3, 2053
 203              	.LVL19:
 204              	.LBB13:
 205              	.LBB12:
 206              		.loc 1 87 0
 207 0038 C0F60505 		movt	r5, 2053
 208 003c 02E0     		b	.L22
 209              	.LVL20:
 210              	.L37:
 211 003e AB42     		cmp	r3, r5
 212              		.loc 1 90 0
 213 0040 A2B2     		uxth	r2, r4
 214              	.LVL21:
 215              		.loc 1 87 0
 216 0042 04D0     		beq	.L21
 217              	.LVL22:
 218              	.L22:
 219              		.loc 1 89 0
 220 0044 53F8041B 		ldr	r1, [r3], #4
 221              	.LVL23:
 222              		.loc 1 90 0
 223 0048 541C     		adds	r4, r2, #1
 224              		.loc 1 89 0
 225 004a 0131     		adds	r1, r1, #1
 226 004c F7D1     		bne	.L37
 227              	.L21:
 228              	.LBE12:
ARM GAS  /var/folders/pt/gxfsd_x53tx3h6kb8dkzftl80000gr/T//cceTBJ4B.s 			page 5


 229              	.LBE13:
 230              		.loc 1 176 0
 231 004e 12B2     		sxth	r2, r2
 232              		.loc 1 179 0
 233 0050 531C     		adds	r3, r2, #1
 234              	.LVL24:
 235              		.loc 1 182 0
 236 0052 372B     		cmp	r3, #55
 237              		.loc 1 179 0
 238 0054 3362     		str	r3, [r6, #32]
 239              		.loc 1 182 0
 240 0056 2DDC     		bgt	.L23
 241 0058 42F68977 		movw	r7, #12169
 242 005c C0F24007 		movt	r7, 64
 243 0060 D719     		adds	r7, r2, r7
 244 0062 7F01     		lsls	r7, r7, #5
 245 0064 3B46     		mov	r3, r7
 246              	.L24:
 247              	.LVL25:
 248              		.loc 1 196 0
 249 0066 3C46     		mov	r4, r7
 250              		.loc 1 199 0
 251 0068 7362     		str	r3, [r6, #36]
 252              	.LVL26:
 253              		.loc 1 145 0
 254 006a 2037     		adds	r7, r7, #32
 255              	.LVL27:
 256 006c 351B     		subs	r5, r6, r4
 257              	.LVL28:
 258              	.L26:
 259              		.loc 1 205 0
 260 006e 2046     		mov	r0, r4
 261 0070 2959     		ldr	r1, [r5, r4]
 262 0072 FFF7FEFF 		bl	FLASH_ProgramWord
 263              	.LVL29:
 264 0076 8DF80700 		strb	r0, [sp, #7]
 265              		.loc 1 211 0
 266 007a 9DF80730 		ldrb	r3, [sp, #7]	@ zero_extendqisi2
 267              	.LVL30:
 268              		.loc 1 208 0
 269 007e 0434     		adds	r4, r4, #4
 270              	.LVL31:
 271              		.loc 1 211 0
 272 0080 042B     		cmp	r3, #4
 273 0082 2BD1     		bne	.L30
 274              		.loc 1 202 0
 275 0084 BC42     		cmp	r4, r7
 276 0086 F2D1     		bne	.L26
 277              		.loc 1 150 0
 278 0088 0124     		movs	r4, #1
 279              	.LVL32:
 280              	.L25:
 281              		.loc 1 219 0
 282 008a 306A     		ldr	r0, [r6, #32]
 283              		.loc 1 220 0
 284 008c 0021     		movs	r1, #0
 285              		.loc 1 219 0
ARM GAS  /var/folders/pt/gxfsd_x53tx3h6kb8dkzftl80000gr/T//cceTBJ4B.s 			page 6


 286 008e 00F10070 		add	r0, r0, #33554432
 287 0092 00F5BE30 		add	r0, r0, #97280
 288              		.loc 1 220 0
 289 0096 8000     		lsls	r0, r0, #2
 290 0098 FFF7FEFF 		bl	FLASH_ProgramWord
 291              	.LVL33:
 292 009c 8DF80700 		strb	r0, [sp, #7]
 293              	.LVL34:
 294              		.loc 1 223 0
 295 00a0 9DF80720 		ldrb	r2, [sp, #7]	@ zero_extendqisi2
 296              	.LVL35:
 297              		.loc 1 224 0
 298 00a4 4FF6FF73 		movw	r3, #65535
 299 00a8 042A     		cmp	r2, #4
 300 00aa 18BF     		it	ne
 301 00ac 1C46     		movne	r4, r3
 302              	.LVL36:
 303              	.L20:
 304              		.loc 1 227 0
 305 00ae 20B2     		sxth	r0, r4
 306 00b0 03B0     		add	sp, sp, #12
 307 00b2 F0BD     		pop	{r4, r5, r6, r7, pc}
 308              	.LVL37:
 309              	.L23:
 310              		.loc 1 185 0
 311 00b4 4FF47040 		mov	r0, #61440
 312 00b8 C0F60500 		movt	r0, 2053
 313 00bc FFF7FEFF 		bl	FLASH_ErasePage
 314              	.LVL38:
 315 00c0 8DF80700 		strb	r0, [sp, #7]
 316              		.loc 1 188 0
 317 00c4 9DF80730 		ldrb	r3, [sp, #7]	@ zero_extendqisi2
 318              	.LVL39:
 319 00c8 042B     		cmp	r3, #4
 320 00ca 0DD1     		bne	.L29
 321              		.loc 1 192 0
 322 00cc 4FF47143 		mov	r3, #61696
 323              	.LVL40:
 324 00d0 C0F60503 		movt	r3, 2053
 325 00d4 0022     		movs	r2, #0
 326 00d6 3262     		str	r2, [r6, #32]
 327 00d8 1F46     		mov	r7, r3
 328 00da C4E7     		b	.L24
 329              	.LVL41:
 330              	.L30:
 331              		.loc 1 213 0
 332 00dc 4FF6FF74 		movw	r4, #65535
 333              	.LVL42:
 334 00e0 D3E7     		b	.L25
 335              	.LVL43:
 336              	.L28:
 337              		.loc 1 164 0
 338 00e2 4FF6FE74 		movw	r4, #65534
 339 00e6 E2E7     		b	.L20
 340              	.LVL44:
 341              	.L29:
 342              		.loc 1 189 0
ARM GAS  /var/folders/pt/gxfsd_x53tx3h6kb8dkzftl80000gr/T//cceTBJ4B.s 			page 7


 343 00e8 4FF6FD74 		movw	r4, #65533
 344 00ec DFE7     		b	.L20
 345              	.LVL45:
 346              	.L27:
 347              		.loc 1 160 0
 348 00ee 4FF6FB74 		movw	r4, #65531
 349 00f2 DCE7     		b	.L20
 350              	.L39:
 351              		.align	2
 352              	.L38:
 353 00f4 00000000 		.word	.LANCHOR1
 354              		.cfi_endproc
 355              	.LFE65:
 356              		.size	vexFlashUserParamWrite, .-vexFlashUserParamWrite
 357 00f8 AFF30080 		.section	.text.vexFlashUserParamInit,"ax",%progbits
 357      AFF30080 
 358              		.align	2
 359              		.p2align 4,,15
 360              		.global	vexFlashUserParamInit
 361              		.thumb
 362              		.thumb_func
 363              		.type	vexFlashUserParamInit, %function
 364              	vexFlashUserParamInit:
 365              	.LFB66:
 366              		.loc 1 236 0
 367              		.cfi_startproc
 368              		@ args = 0, pretend = 0, frame = 8
 369              		@ frame_needed = 0, uses_anonymous_args = 0
 370 0000 00B5     		push	{lr}
 371              	.LCFI3:
 372              		.cfi_def_cfa_offset 4
 373              		.cfi_offset 14, -4
 374              		.loc 1 240 0
 375 0002 114B     		ldr	r3, .L44
 376              		.loc 1 236 0
 377 0004 83B0     		sub	sp, sp, #12
 378              	.LCFI4:
 379              		.cfi_def_cfa_offset 16
 380              		.loc 1 240 0
 381 0006 B3F90020 		ldrsh	r2, [r3, #0]
 382              		.loc 1 238 0
 383 000a 0421     		movs	r1, #4
 384 000c 8DF80710 		strb	r1, [sp, #7]
 385              	.LVL46:
 386              		.loc 1 240 0
 387 0010 B2B9     		cbnz	r2, .L42
 388              		.loc 1 243 0
 389 0012 0122     		movs	r2, #1
 390 0014 1A80     		strh	r2, [r3, #0]	@ movhi
 391              		.loc 1 246 0
 392 0016 FFF7FEFF 		bl	FLASH_UnlockBank1
 393              	.LVL47:
 394              		.loc 1 249 0
 395 001a 4FF47040 		mov	r0, #61440
 396 001e C0F60500 		movt	r0, 2053
 397 0022 FFF7FEFF 		bl	FLASH_ErasePage
 398              	.LVL48:
ARM GAS  /var/folders/pt/gxfsd_x53tx3h6kb8dkzftl80000gr/T//cceTBJ4B.s 			page 8


 399 0026 8DF80700 		strb	r0, [sp, #7]
 400              		.loc 1 252 0
 401 002a 9DF80700 		ldrb	r0, [sp, #7]	@ zero_extendqisi2
 402              	.LVL49:
 403              		.loc 1 253 0
 404 002e 4FF6FD73 		movw	r3, #65533
 405 0032 0428     		cmp	r0, #4
 406 0034 14BF     		ite	ne
 407 0036 1846     		movne	r0, r3
 408 0038 0120     		moveq	r0, #1
 409              	.LVL50:
 410              	.L41:
 411              		.loc 1 261 0
 412 003a 00B2     		sxth	r0, r0
 413 003c 03B0     		add	sp, sp, #12
 414 003e 00BD     		pop	{pc}
 415              	.L42:
 416              		.loc 1 257 0
 417 0040 4FF6FC70 		movw	r0, #65532
 418 0044 F9E7     		b	.L41
 419              	.L45:
 420 0046 00BF     		.align	2
 421              	.L44:
 422 0048 00000000 		.word	.LANCHOR2
 423              		.cfi_endproc
 424              	.LFE66:
 425              		.size	vexFlashUserParamInit, .-vexFlashUserParamInit
 426 004c AFF30080 		.section	.bss.user_param_write_limit.7403,"aw",%nobits
 427              		.align	1
 428              		.set	.LANCHOR1,. + 0
 429              		.type	user_param_write_limit.7403, %object
 430              		.size	user_param_write_limit.7403, 2
 431              	user_param_write_limit.7403:
 432 0000 0000     		.space	2
 433              		.section	.bss.params,"aw",%nobits
 434              		.align	2
 435              		.set	.LANCHOR0,. + 0
 436              		.type	params, %object
 437              		.size	params, 40
 438              	params:
 439 0000 00000000 		.space	40
 439      00000000 
 439      00000000 
 439      00000000 
 439      00000000 
 440              		.section	.bss.erase_done.7410,"aw",%nobits
 441              		.align	1
 442              		.set	.LANCHOR2,. + 0
 443              		.type	erase_done.7410, %object
 444              		.size	erase_done.7410, 2
 445              	erase_done.7410:
 446 0000 0000     		.space	2
 447              		.text
 448              	.Letext0:
 449              		.file 2 "/Users/programmer/ConVEX/yagarto-4.7.2/bin/../lib/gcc/arm-none-eabi/4.7.2/../../../../arm
 450              		.file 3 "convex/convex/cortex/fw/vexdigital.h"
 451              		.file 4 "convex/convex/cortex/fw/vexime.h"
ARM GAS  /var/folders/pt/gxfsd_x53tx3h6kb8dkzftl80000gr/T//cceTBJ4B.s 			page 9


 452              		.file 5 "convex/convex/cortex/opt/stm32f10x_flash.h"
 453              		.file 6 "convex/convex/cortex/opt/vexflash.h"
 454              		.file 7 "convex/ChibiOS_2.6.2/os/ports/common/ARMCMx/CMSIS/include/core_cm3.h"