ARM GAS  /var/folders/pt/gxfsd_x53tx3h6kb8dkzftl80000gr/T//ccnrF0YR.s 			page 1


   1              		.syntax unified
   2              		.cpu cortex-m3
   3              		.fpu softvfp
   4              		.eabi_attribute 20, 1
   5              		.eabi_attribute 21, 1
   6              		.eabi_attribute 23, 3
   7              		.eabi_attribute 24, 1
   8              		.eabi_attribute 25, 1
   9              		.eabi_attribute 26, 1
  10              		.eabi_attribute 30, 2
  11              		.eabi_attribute 34, 1
  12              		.eabi_attribute 18, 4
  13              		.thumb
  14              		.file	"vexgyro.c"
  15              		.text
  16              	.Ltext0:
  17              		.cfi_sections	.debug_frame
  18              		.section	.text.vexGyroTask,"ax",%progbits
  19              		.align	2
  20              		.p2align 4,,15
  21              		.thumb
  22              		.thumb_func
  23              		.type	vexGyroTask, %function
  24              	vexGyroTask:
  25              	.LFB63:
  26              		.file 1 "convex/convex/cortex/opt/vexgyro.c"
  27              		.loc 1 78 0
  28              		.cfi_startproc
  29              		@ args = 0, pretend = 0, frame = 0
  30              		@ frame_needed = 0, uses_anonymous_args = 0
  31              	.LVL0:
  32 0000 2DE9F84F 		push	{r3, r4, r5, r6, r7, r8, r9, sl, fp, lr}
  33              	.LCFI0:
  34              		.cfi_def_cfa_offset 40
  35              		.cfi_offset 3, -40
  36              		.cfi_offset 4, -36
  37              		.cfi_offset 5, -32
  38              		.cfi_offset 6, -28
  39              		.cfi_offset 7, -24
  40              		.cfi_offset 8, -20
  41              		.cfi_offset 9, -16
  42              		.cfi_offset 10, -12
  43              		.cfi_offset 11, -8
  44              		.cfi_offset 14, -4
  45              		.loc 1 91 0
  46 0004 DFF8B480 		ldr	r8, .L14+8
  47 0008 2A4A     		ldr	r2, .L14
  48 000a D8F81830 		ldr	r3, [r8, #24]
  49 000e 2A4E     		ldr	r6, .L14+4
  50 0010 9A61     		str	r2, [r3, #24]
  51              	.LVL1:
  52 0012 4FF48064 		mov	r4, #1024
  53              		.loc 1 80 0
  54 0016 0025     		movs	r5, #0
  55              	.LVL2:
  56              	.L2:
  57              		.loc 1 96 0 discriminator 2
ARM GAS  /var/folders/pt/gxfsd_x53tx3h6kb8dkzftl80000gr/T//ccnrF0YR.s 			page 2


  58 0018 96F90000 		ldrsb	r0, [r6, #0]
  59 001c FFF7FEFF 		bl	vexAdcGet
  60              	.LVL3:
  61 0020 013C     		subs	r4, r4, #1
  62 0022 2D18     		adds	r5, r5, r0
  63              	.LVL4:
  64 0024 A4B2     		uxth	r4, r4
  65              		.loc 1 97 0 discriminator 2
  66 0026 0120     		movs	r0, #1
  67 0028 FFF7FEFF 		bl	chThdSleep
  68              	.LVL5:
  69              		.loc 1 94 0 discriminator 2
  70 002c 002C     		cmp	r4, #0
  71 002e F3D1     		bne	.L2
  72              		.loc 1 104 0
  73 0030 D8F81830 		ldr	r3, [r8, #24]
  74              		.loc 1 100 0
  75 0034 05F2FF3A 		addw	sl, r5, #1023
  76              		.loc 1 104 0
  77 0038 5B7F     		ldrb	r3, [r3, #29]	@ zero_extendqisi2
  78              		.loc 1 100 0
  79 003a 1AEA250A 		ands	sl, sl, r5, asr #32
  80 003e 38BF     		it	cc
  81 0040 AA46     		movcc	sl, r5
  82              		.loc 1 104 0
  83 0042 03F00403 		and	r3, r3, #4
  84              		.loc 1 100 0
  85 0046 4FEAAA2A 		asr	sl, sl, #10
  86              	.LVL6:
  87              		.loc 1 104 0
  88 004a DBB2     		uxtb	r3, r3
  89              		.loc 1 101 0
  90 004c A5EB8A25 		sub	r5, r5, sl, lsl #10
  91              	.LVL7:
  92              		.loc 1 104 0
  93 0050 63BB     		cbnz	r3, .L12
  94              		.loc 1 123 0
  95 0052 4EF27F09 		movw	r9, #57471
  96 0056 DFF868B0 		ldr	fp, .L14+12
  97 005a 1FFA8AFA 		uxth	sl, sl
  98              	.LVL8:
  99              		.loc 1 84 0
 100 005e 2746     		mov	r7, r4
 101              		.loc 1 123 0
 102 0060 C7F60769 		movt	r9, 32263
 103              	.LVL9:
 104              	.L5:
 105              		.loc 1 107 0
 106 0064 96F90000 		ldrsb	r0, [r6, #0]
 107 0068 FFF7FEFF 		bl	vexAdcGet
 108              	.LVL10:
 109              		.loc 1 109 0
 110 006c CAEB0000 		rsb	r0, sl, r0
 111              	.LVL11:
 112 0070 83B2     		uxth	r3, r0
 113              	.LVL12:
 114              		.loc 1 112 0
ARM GAS  /var/folders/pt/gxfsd_x53tx3h6kb8dkzftl80000gr/T//ccnrF0YR.s 			page 3


 115 0072 1A1D     		adds	r2, r3, #4
 116 0074 92B2     		uxth	r2, r2
 117 0076 082A     		cmp	r2, #8
 118 0078 06D9     		bls	.L4
 119              		.loc 1 118 0
 120 007a 0134     		adds	r4, r4, #1
 121 007c A205     		lsls	r2, r4, #22
 122              		.loc 1 115 0
 123 007e 1BB2     		sxth	r3, r3
 124              		.loc 1 118 0
 125 0080 920D     		lsrs	r2, r2, #22
 126              		.loc 1 115 0
 127 0082 FF18     		adds	r7, r7, r3
 128              	.LVL13:
 129              		.loc 1 118 0
 130 0084 02B9     		cbnz	r2, .L4
 131              		.loc 1 119 0
 132 0086 7F1B     		subs	r7, r7, r5
 133              	.LVL14:
 134              	.L4:
 135              		.loc 1 123 0
 136 0088 89FB0732 		smull	r3, r2, r9, r7
 137 008c FB17     		asrs	r3, r7, #31
 138 008e C3EBA213 		rsb	r3, r3, r2, asr #6
 139              		.loc 1 126 0
 140 0092 0120     		movs	r0, #1
 141              	.LVL15:
 142              		.loc 1 123 0
 143 0094 CBF80030 		str	r3, [fp, #0]
 144              		.loc 1 126 0
 145 0098 FFF7FEFF 		bl	chThdSleep
 146              	.LVL16:
 147              		.loc 1 104 0
 148 009c D8F81830 		ldr	r3, [r8, #24]
 149 00a0 5B7F     		ldrb	r3, [r3, #29]	@ zero_extendqisi2
 150 00a2 03F00403 		and	r3, r3, #4
 151 00a6 DBB2     		uxtb	r3, r3
 152 00a8 002B     		cmp	r3, #0
 153 00aa DBD0     		beq	.L5
 154              	.LVL17:
 155              	.L12:
 156              		.loc 1 130 0
 157 00ac 0020     		movs	r0, #0
 158 00ae BDE8F88F 		pop	{r3, r4, r5, r6, r7, r8, r9, sl, fp, pc}
 159              	.L15:
 160 00b2 00BF     		.align	2
 161              	.L14:
 162 00b4 00000000 		.word	.LC0
 163 00b8 00000000 		.word	.LANCHOR0
 164 00bc 00000000 		.word	rlist
 165 00c0 00000000 		.word	.LANCHOR1
 166              		.cfi_endproc
 167              	.LFE63:
 168              		.size	vexGyroTask, .-vexGyroTask
 169 00c4 AFF30080 		.section	.text.vexGyroGet,"ax",%progbits
 169      AFF30080 
 169      AFF30080 
ARM GAS  /var/folders/pt/gxfsd_x53tx3h6kb8dkzftl80000gr/T//ccnrF0YR.s 			page 4


 170              		.align	2
 171              		.p2align 4,,15
 172              		.global	vexGyroGet
 173              		.thumb
 174              		.thumb_func
 175              		.type	vexGyroGet, %function
 176              	vexGyroGet:
 177              	.LFB64:
 178              		.loc 1 139 0
 179              		.cfi_startproc
 180              		@ args = 0, pretend = 0, frame = 0
 181              		@ frame_needed = 0, uses_anonymous_args = 0
 182              		@ link register save eliminated.
 183              		.loc 1 140 0
 184 0000 40F20003 		movw	r3, #:lower16:.LANCHOR1
 185 0004 C0F20003 		movt	r3, #:upper16:.LANCHOR1
 186              		.loc 1 141 0
 187 0008 1868     		ldr	r0, [r3, #0]
 188 000a 7047     		bx	lr
 189              		.cfi_endproc
 190              	.LFE64:
 191              		.size	vexGyroGet, .-vexGyroGet
 192 000c AFF30080 		.section	.text.vexGyroInit,"ax",%progbits
 193              		.align	2
 194              		.p2align 4,,15
 195              		.global	vexGyroInit
 196              		.thumb
 197              		.thumb_func
 198              		.type	vexGyroInit, %function
 199              	vexGyroInit:
 200              	.LFB65:
 201              		.loc 1 149 0
 202              		.cfi_startproc
 203              		@ args = 0, pretend = 0, frame = 0
 204              		@ frame_needed = 0, uses_anonymous_args = 0
 205              	.LVL18:
 206 0000 30B5     		push	{r4, r5, lr}
 207              	.LCFI1:
 208              		.cfi_def_cfa_offset 12
 209              		.cfi_offset 4, -12
 210              		.cfi_offset 5, -8
 211              		.cfi_offset 14, -4
 212              		.loc 1 150 0
 213 0002 C3B2     		uxtb	r3, r0
 214 0004 072B     		cmp	r3, #7
 215              		.loc 1 149 0
 216 0006 83B0     		sub	sp, sp, #12
 217              	.LCFI2:
 218              		.cfi_def_cfa_offset 24
 219              		.loc 1 149 0
 220 0008 0446     		mov	r4, r0
 221              		.loc 1 150 0
 222 000a 0CD8     		bhi	.L17
 223              		.loc 1 155 0
 224 000c 0023     		movs	r3, #0
 225              		.loc 1 153 0
 226 000e 074D     		ldr	r5, .L19
ARM GAS  /var/folders/pt/gxfsd_x53tx3h6kb8dkzftl80000gr/T//ccnrF0YR.s 			page 5


 227              		.loc 1 155 0
 228 0010 0093     		str	r3, [sp, #0]
 229 0012 0748     		ldr	r0, .L19+4
 230              	.LVL19:
 231 0014 074B     		ldr	r3, .L19+8
 232 0016 4FF42C71 		mov	r1, #688
 233 001a 4122     		movs	r2, #65
 234              		.loc 1 153 0
 235 001c 2C70     		strb	r4, [r5, #0]
 236              		.loc 1 155 0
 237 001e FFF7FEFF 		bl	chThdCreateStatic
 238              	.LVL20:
 239 0022 054B     		ldr	r3, .L19+12
 240 0024 1860     		str	r0, [r3, #0]
 241              	.L17:
 242              		.loc 1 156 0
 243 0026 03B0     		add	sp, sp, #12
 244 0028 30BD     		pop	{r4, r5, pc}
 245              	.L20:
 246 002a 00BF     		.align	2
 247              	.L19:
 248 002c 00000000 		.word	.LANCHOR0
 249 0030 00000000 		.word	.LANCHOR2
 250 0034 00000000 		.word	vexGyroTask
 251 0038 00000000 		.word	.LANCHOR3
 252              		.cfi_endproc
 253              	.LFE65:
 254              		.size	vexGyroInit, .-vexGyroInit
 255 003c AFF30080 		.section	.text.vexGyroReset,"ax",%progbits
 256              		.align	2
 257              		.p2align 4,,15
 258              		.global	vexGyroReset
 259              		.thumb
 260              		.thumb_func
 261              		.type	vexGyroReset, %function
 262              	vexGyroReset:
 263              	.LFB66:
 264              		.loc 1 164 0
 265              		.cfi_startproc
 266              		@ args = 0, pretend = 0, frame = 0
 267              		@ frame_needed = 0, uses_anonymous_args = 0
 268 0000 10B5     		push	{r4, lr}
 269              	.LCFI3:
 270              		.cfi_def_cfa_offset 8
 271              		.cfi_offset 4, -8
 272              		.cfi_offset 14, -4
 273              		.loc 1 165 0
 274 0002 094C     		ldr	r4, .L23
 275 0004 2068     		ldr	r0, [r4, #0]
 276 0006 68B1     		cbz	r0, .L21
 277              		.loc 1 168 0
 278 0008 FFF7FEFF 		bl	chThdTerminate
 279              	.LVL21:
 280              		.loc 1 170 0
 281 000c 2068     		ldr	r0, [r4, #0]
 282 000e FFF7FEFF 		bl	chThdWait
 283              	.LVL22:
ARM GAS  /var/folders/pt/gxfsd_x53tx3h6kb8dkzftl80000gr/T//ccnrF0YR.s 			page 6


 284              		.loc 1 174 0
 285 0012 064B     		ldr	r3, .L23+4
 286 0014 93F90000 		ldrsb	r0, [r3, #0]
 287              		.loc 1 173 0
 288 0018 0023     		movs	r3, #0
 289 001a 2360     		str	r3, [r4, #0]
 290              		.loc 1 176 0
 291 001c BDE81040 		pop	{r4, lr}
 292              		.loc 1 174 0
 293 0020 FFF7FEBF 		b	vexGyroInit
 294              	.LVL23:
 295              	.L21:
 296 0024 10BD     		pop	{r4, pc}
 297              	.L24:
 298 0026 00BF     		.align	2
 299              	.L23:
 300 0028 00000000 		.word	.LANCHOR3
 301 002c 00000000 		.word	.LANCHOR0
 302              		.cfi_endproc
 303              	.LFE66:
 304              		.size	vexGyroReset, .-vexGyroReset
 305              		.global	GyroJitterRange
 306              		.section	.bss.gyroThread,"aw",%nobits
 307              		.align	2
 308              		.set	.LANCHOR3,. + 0
 309              		.type	gyroThread, %object
 310              		.size	gyroThread, 4
 311              	gyroThread:
 312 0000 00000000 		.space	4
 313              		.section	.rodata.GyroJitterRange,"a",%progbits
 314              		.align	2
 315              		.type	GyroJitterRange, %object
 316              		.size	GyroJitterRange, 4
 317              	GyroJitterRange:
 318 0000 04000000 		.word	4
 319              		.section	.rodata.str1.4,"aMS",%progbits,1
 320              		.align	2
 321              	.LC0:
 322 0000 6779726F 		.ascii	"gyro\000"
 322      00
 323 0005 000000   		.section	.bss.GyroValue,"aw",%nobits
 324              		.align	2
 325              		.set	.LANCHOR1,. + 0
 326              		.type	GyroValue, %object
 327              		.size	GyroValue, 4
 328              	GyroValue:
 329 0000 00000000 		.space	4
 330              		.section	.bss.waVexGyroTask,"aw",%nobits
 331              		.align	3
 332              		.set	.LANCHOR2,. + 0
 333              		.type	waVexGyroTask, %object
 334              		.size	waVexGyroTask, 688
 335              	waVexGyroTask:
 336 0000 00000000 		.space	688
 336      00000000 
 336      00000000 
 336      00000000 
ARM GAS  /var/folders/pt/gxfsd_x53tx3h6kb8dkzftl80000gr/T//ccnrF0YR.s 			page 7


 336      00000000 
 337              		.section	.bss.gyroAnalogPin,"aw",%nobits
 338              		.set	.LANCHOR0,. + 0
 339              		.type	gyroAnalogPin, %object
 340              		.size	gyroAnalogPin, 1
 341              	gyroAnalogPin:
 342 0000 00       		.space	1
 343              		.text
 344              	.Letext0:
 345              		.file 2 "/Users/programmer/ConVEX/yagarto-4.7.2/bin/../lib/gcc/arm-none-eabi/4.7.2/include/stddef.
 346              		.file 3 "/Users/programmer/ConVEX/yagarto-4.7.2/bin/../lib/gcc/arm-none-eabi/4.7.2/../../../../arm
 347              		.file 4 "convex/ChibiOS_2.6.2/os/ports/GCC/ARMCMx/chtypes.h"
 348              		.file 5 "convex/ChibiOS_2.6.2/os/kernel/include/chlists.h"
 349              		.file 6 "convex/ChibiOS_2.6.2/os/kernel/include/chthreads.h"
 350              		.file 7 "convex/ChibiOS_2.6.2/os/ports/GCC/ARMCMx/chcore_v7m.h"
 351              		.file 8 "convex/ChibiOS_2.6.2/os/kernel/include/chschd.h"
 352              		.file 9 "convex/ChibiOS_2.6.2/os/kernel/include/chmtx.h"
 353              		.file 10 "convex/convex/cortex/fw/vexanalog.h"
 354              		.file 11 "convex/convex/cortex/fw/vexdigital.h"
 355              		.file 12 "convex/convex/cortex/fw/vexime.h"
 356              		.file 13 "convex/ChibiOS_2.6.2/os/ports/common/ARMCMx/CMSIS/include/core_cm3.h"
 357              		.section	.debug_info,"",%progbits
 358              	.Ldebug_info0:
 359 0000 37080000 		.4byte	0x837
 360 0004 0200     		.2byte	0x2
 361 0006 00000000 		.4byte	.Ldebug_abbrev0
 362 000a 04       		.byte	0x4
 363 000b 01       		.uleb128 0x1
 364 000c 1E030000 		.4byte	.LASF129
 365 0010 01       		.byte	0x1
 366 0011 F0000000 		.4byte	.LASF130
 367 0015 DD020000 		.4byte	.LASF131
 368 0019 00000000 		.4byte	.Ldebug_ranges0+0
 369 001d 00000000 		.4byte	0
 370 0021 00000000 		.4byte	0
 371 0025 00000000 		.4byte	.Ldebug_line0
 372 0029 02       		.uleb128 0x2
 373 002a 17000000 		.4byte	.LASF13
 374 002e 02       		.byte	0x2
 375 002f D5       		.byte	0xd5
 376 0030 34000000 		.4byte	0x34
 377 0034 03       		.uleb128 0x3
 378 0035 04       		.byte	0x4
 379 0036 07       		.byte	0x7
 380 0037 B5010000 		.4byte	.LASF0
 381 003b 03       		.uleb128 0x3
 382 003c 01       		.byte	0x1
 383 003d 06       		.byte	0x6
 384 003e B5000000 		.4byte	.LASF1
 385 0042 03       		.uleb128 0x3
 386 0043 01       		.byte	0x1
 387 0044 08       		.byte	0x8
 388 0045 86030000 		.4byte	.LASF2
 389 0049 03       		.uleb128 0x3
 390 004a 02       		.byte	0x2
 391 004b 05       		.byte	0x5
 392 004c AA030000 		.4byte	.LASF3
ARM GAS  /var/folders/pt/gxfsd_x53tx3h6kb8dkzftl80000gr/T//ccnrF0YR.s 			page 8


 393 0050 03       		.uleb128 0x3
 394 0051 02       		.byte	0x2
 395 0052 07       		.byte	0x7
 396 0053 EC010000 		.4byte	.LASF4
 397 0057 04       		.uleb128 0x4
 398 0058 04       		.byte	0x4
 399 0059 05       		.byte	0x5
 400 005a 696E7400 		.ascii	"int\000"
 401 005e 03       		.uleb128 0x3
 402 005f 08       		.byte	0x8
 403 0060 05       		.byte	0x5
 404 0061 A7000000 		.4byte	.LASF5
 405 0065 03       		.uleb128 0x3
 406 0066 08       		.byte	0x8
 407 0067 07       		.byte	0x7
 408 0068 40000000 		.4byte	.LASF6
 409 006c 03       		.uleb128 0x3
 410 006d 04       		.byte	0x4
 411 006e 05       		.byte	0x5
 412 006f 13010000 		.4byte	.LASF7
 413 0073 03       		.uleb128 0x3
 414 0074 04       		.byte	0x4
 415 0075 07       		.byte	0x7
 416 0076 CE020000 		.4byte	.LASF8
 417 007a 05       		.uleb128 0x5
 418 007b 04       		.byte	0x4
 419 007c 03       		.uleb128 0x3
 420 007d 04       		.byte	0x4
 421 007e 07       		.byte	0x7
 422 007f 56040000 		.4byte	.LASF9
 423 0083 03       		.uleb128 0x3
 424 0084 01       		.byte	0x1
 425 0085 08       		.byte	0x8
 426 0086 68040000 		.4byte	.LASF10
 427 008a 06       		.uleb128 0x6
 428 008b 04       		.byte	0x4
 429 008c 90000000 		.4byte	0x90
 430 0090 07       		.uleb128 0x7
 431 0091 83000000 		.4byte	0x83
 432 0095 03       		.uleb128 0x3
 433 0096 08       		.byte	0x8
 434 0097 04       		.byte	0x4
 435 0098 38010000 		.4byte	.LASF11
 436 009c 03       		.uleb128 0x3
 437 009d 04       		.byte	0x4
 438 009e 04       		.byte	0x4
 439 009f 5B030000 		.4byte	.LASF12
 440 00a3 02       		.uleb128 0x2
 441 00a4 98050000 		.4byte	.LASF14
 442 00a8 03       		.byte	0x3
 443 00a9 2A       		.byte	0x2a
 444 00aa 42000000 		.4byte	0x42
 445 00ae 02       		.uleb128 0x2
 446 00af C5050000 		.4byte	.LASF15
 447 00b3 03       		.byte	0x3
 448 00b4 35       		.byte	0x35
 449 00b5 49000000 		.4byte	0x49
ARM GAS  /var/folders/pt/gxfsd_x53tx3h6kb8dkzftl80000gr/T//ccnrF0YR.s 			page 9


 450 00b9 02       		.uleb128 0x2
 451 00ba 7E030000 		.4byte	.LASF16
 452 00be 03       		.byte	0x3
 453 00bf 4F       		.byte	0x4f
 454 00c0 6C000000 		.4byte	0x6c
 455 00c4 02       		.uleb128 0x2
 456 00c5 45040000 		.4byte	.LASF17
 457 00c9 03       		.byte	0x3
 458 00ca 50       		.byte	0x50
 459 00cb 7C000000 		.4byte	0x7c
 460 00cf 02       		.uleb128 0x2
 461 00d0 25000000 		.4byte	.LASF18
 462 00d4 03       		.byte	0x3
 463 00d5 78       		.byte	0x78
 464 00d6 65000000 		.4byte	0x65
 465 00da 03       		.uleb128 0x3
 466 00db 01       		.byte	0x1
 467 00dc 02       		.byte	0x2
 468 00dd 78030000 		.4byte	.LASF19
 469 00e1 02       		.uleb128 0x2
 470 00e2 B7050000 		.4byte	.LASF20
 471 00e6 04       		.byte	0x4
 472 00e7 2C       		.byte	0x2c
 473 00e8 A3000000 		.4byte	0xa3
 474 00ec 02       		.uleb128 0x2
 475 00ed 1C010000 		.4byte	.LASF21
 476 00f1 04       		.byte	0x4
 477 00f2 2D       		.byte	0x2d
 478 00f3 A3000000 		.4byte	0xa3
 479 00f7 02       		.uleb128 0x2
 480 00f8 61030000 		.4byte	.LASF22
 481 00fc 04       		.byte	0x4
 482 00fd 2E       		.byte	0x2e
 483 00fe A3000000 		.4byte	0xa3
 484 0102 02       		.uleb128 0x2
 485 0103 E6000000 		.4byte	.LASF23
 486 0107 04       		.byte	0x4
 487 0108 2F       		.byte	0x2f
 488 0109 A3000000 		.4byte	0xa3
 489 010d 02       		.uleb128 0x2
 490 010e 70030000 		.4byte	.LASF24
 491 0112 04       		.byte	0x4
 492 0113 30       		.byte	0x30
 493 0114 C4000000 		.4byte	0xc4
 494 0118 02       		.uleb128 0x2
 495 0119 FF010000 		.4byte	.LASF25
 496 011d 04       		.byte	0x4
 497 011e 31       		.byte	0x31
 498 011f B9000000 		.4byte	0xb9
 499 0123 02       		.uleb128 0x2
 500 0124 97020000 		.4byte	.LASF26
 501 0128 04       		.byte	0x4
 502 0129 33       		.byte	0x33
 503 012a C4000000 		.4byte	0xc4
 504 012e 02       		.uleb128 0x2
 505 012f 03050000 		.4byte	.LASF27
 506 0133 04       		.byte	0x4
ARM GAS  /var/folders/pt/gxfsd_x53tx3h6kb8dkzftl80000gr/T//ccnrF0YR.s 			page 10


 507 0134 35       		.byte	0x35
 508 0135 C4000000 		.4byte	0xc4
 509 0139 02       		.uleb128 0x2
 510 013a 28040000 		.4byte	.LASF28
 511 013e 05       		.byte	0x5
 512 013f 2A       		.byte	0x2a
 513 0140 44010000 		.4byte	0x144
 514 0144 08       		.uleb128 0x8
 515 0145 28040000 		.4byte	.LASF28
 516 0149 48       		.byte	0x48
 517 014a 06       		.byte	0x6
 518 014b 5E       		.byte	0x5e
 519 014c 69020000 		.4byte	0x269
 520 0150 09       		.uleb128 0x9
 521 0151 D4030000 		.4byte	.LASF29
 522 0155 06       		.byte	0x6
 523 0156 5F       		.byte	0x5f
 524 0157 8E020000 		.4byte	0x28e
 525 015b 02       		.byte	0x2
 526 015c 23       		.byte	0x23
 527 015d 00       		.uleb128 0
 528 015e 09       		.uleb128 0x9
 529 015f 69030000 		.4byte	.LASF30
 530 0163 06       		.byte	0x6
 531 0164 61       		.byte	0x61
 532 0165 8E020000 		.4byte	0x28e
 533 0169 02       		.byte	0x2
 534 016a 23       		.byte	0x23
 535 016b 04       		.uleb128 0x4
 536 016c 09       		.uleb128 0x9
 537 016d 93000000 		.4byte	.LASF31
 538 0171 06       		.byte	0x6
 539 0172 63       		.byte	0x63
 540 0173 0D010000 		.4byte	0x10d
 541 0177 02       		.byte	0x2
 542 0178 23       		.byte	0x23
 543 0179 08       		.uleb128 0x8
 544 017a 09       		.uleb128 0x9
 545 017b E5050000 		.4byte	.LASF32
 546 017f 06       		.byte	0x6
 547 0180 64       		.byte	0x64
 548 0181 65030000 		.4byte	0x365
 549 0185 02       		.byte	0x2
 550 0186 23       		.byte	0x23
 551 0187 0C       		.uleb128 0xc
 552 0188 09       		.uleb128 0x9
 553 0189 4E010000 		.4byte	.LASF33
 554 018d 06       		.byte	0x6
 555 018e 66       		.byte	0x66
 556 018f 8E020000 		.4byte	0x28e
 557 0193 02       		.byte	0x2
 558 0194 23       		.byte	0x23
 559 0195 10       		.uleb128 0x10
 560 0196 09       		.uleb128 0x9
 561 0197 03030000 		.4byte	.LASF34
 562 019b 06       		.byte	0x6
 563 019c 67       		.byte	0x67
ARM GAS  /var/folders/pt/gxfsd_x53tx3h6kb8dkzftl80000gr/T//ccnrF0YR.s 			page 11


 564 019d 8E020000 		.4byte	0x28e
 565 01a1 02       		.byte	0x2
 566 01a2 23       		.byte	0x23
 567 01a3 14       		.uleb128 0x14
 568 01a4 09       		.uleb128 0x9
 569 01a5 B0050000 		.4byte	.LASF35
 570 01a9 06       		.byte	0x6
 571 01aa 6E       		.byte	0x6e
 572 01ab 8A000000 		.4byte	0x8a
 573 01af 02       		.byte	0x2
 574 01b0 23       		.byte	0x23
 575 01b1 18       		.uleb128 0x18
 576 01b2 09       		.uleb128 0x9
 577 01b3 B4030000 		.4byte	.LASF36
 578 01b7 06       		.byte	0x6
 579 01b8 79       		.byte	0x79
 580 01b9 EC000000 		.4byte	0xec
 581 01bd 02       		.byte	0x2
 582 01be 23       		.byte	0x23
 583 01bf 1C       		.uleb128 0x1c
 584 01c0 09       		.uleb128 0x9
 585 01c1 AD010000 		.4byte	.LASF37
 586 01c5 06       		.byte	0x6
 587 01c6 7D       		.byte	0x7d
 588 01c7 E1000000 		.4byte	0xe1
 589 01cb 02       		.byte	0x2
 590 01cc 23       		.byte	0x23
 591 01cd 1D       		.uleb128 0x1d
 592 01ce 09       		.uleb128 0x9
 593 01cf 67050000 		.4byte	.LASF38
 594 01d3 06       		.byte	0x6
 595 01d4 82       		.byte	0x82
 596 01d5 F7000000 		.4byte	0xf7
 597 01d9 02       		.byte	0x2
 598 01da 23       		.byte	0x23
 599 01db 1E       		.uleb128 0x1e
 600 01dc 09       		.uleb128 0x9
 601 01dd BC030000 		.4byte	.LASF39
 602 01e1 06       		.byte	0x6
 603 01e2 88       		.byte	0x88
 604 01e3 02010000 		.4byte	0x102
 605 01e7 02       		.byte	0x2
 606 01e8 23       		.byte	0x23
 607 01e9 1F       		.uleb128 0x1f
 608 01ea 09       		.uleb128 0x9
 609 01eb 31010000 		.4byte	.LASF40
 610 01ef 06       		.byte	0x6
 611 01f0 8F       		.byte	0x8f
 612 01f1 88030000 		.4byte	0x388
 613 01f5 02       		.byte	0x2
 614 01f6 23       		.byte	0x23
 615 01f7 20       		.uleb128 0x20
 616 01f8 0A       		.uleb128 0xa
 617 01f9 705F7500 		.ascii	"p_u\000"
 618 01fd 06       		.byte	0x6
 619 01fe B4       		.byte	0xb4
 620 01ff 3D040000 		.4byte	0x43d
ARM GAS  /var/folders/pt/gxfsd_x53tx3h6kb8dkzftl80000gr/T//ccnrF0YR.s 			page 12


 621 0203 02       		.byte	0x2
 622 0204 23       		.byte	0x23
 623 0205 24       		.uleb128 0x24
 624 0206 09       		.uleb128 0x9
 625 0207 EB050000 		.4byte	.LASF41
 626 020b 06       		.byte	0x6
 627 020c B9       		.byte	0xb9
 628 020d B6020000 		.4byte	0x2b6
 629 0211 02       		.byte	0x2
 630 0212 23       		.byte	0x23
 631 0213 28       		.uleb128 0x28
 632 0214 09       		.uleb128 0x9
 633 0215 CD010000 		.4byte	.LASF42
 634 0219 06       		.byte	0x6
 635 021a BF       		.byte	0xbf
 636 021b 94020000 		.4byte	0x294
 637 021f 02       		.byte	0x2
 638 0220 23       		.byte	0x23
 639 0221 2C       		.uleb128 0x2c
 640 0222 09       		.uleb128 0x9
 641 0223 BF050000 		.4byte	.LASF43
 642 0227 06       		.byte	0x6
 643 0228 C3       		.byte	0xc3
 644 0229 18010000 		.4byte	0x118
 645 022d 02       		.byte	0x2
 646 022e 23       		.byte	0x23
 647 022f 34       		.uleb128 0x34
 648 0230 09       		.uleb128 0x9
 649 0231 2F040000 		.4byte	.LASF44
 650 0235 06       		.byte	0x6
 651 0236 C9       		.byte	0xc9
 652 0237 23010000 		.4byte	0x123
 653 023b 02       		.byte	0x2
 654 023c 23       		.byte	0x23
 655 023d 38       		.uleb128 0x38
 656 023e 09       		.uleb128 0x9
 657 023f A0030000 		.4byte	.LASF45
 658 0243 06       		.byte	0x6
 659 0244 D0       		.byte	0xd0
 660 0245 72040000 		.4byte	0x472
 661 0249 02       		.byte	0x2
 662 024a 23       		.byte	0x23
 663 024b 3C       		.uleb128 0x3c
 664 024c 09       		.uleb128 0x9
 665 024d 0D050000 		.4byte	.LASF46
 666 0251 06       		.byte	0x6
 667 0252 D4       		.byte	0xd4
 668 0253 0D010000 		.4byte	0x10d
 669 0257 02       		.byte	0x2
 670 0258 23       		.byte	0x23
 671 0259 40       		.uleb128 0x40
 672 025a 09       		.uleb128 0x9
 673 025b C1000000 		.4byte	.LASF47
 674 025f 06       		.byte	0x6
 675 0260 DA       		.byte	0xda
 676 0261 7A000000 		.4byte	0x7a
 677 0265 02       		.byte	0x2
ARM GAS  /var/folders/pt/gxfsd_x53tx3h6kb8dkzftl80000gr/T//ccnrF0YR.s 			page 13


 678 0266 23       		.byte	0x23
 679 0267 44       		.uleb128 0x44
 680 0268 00       		.byte	0
 681 0269 0B       		.uleb128 0xb
 682 026a 08       		.byte	0x8
 683 026b 05       		.byte	0x5
 684 026c 61       		.byte	0x61
 685 026d 8E020000 		.4byte	0x28e
 686 0271 09       		.uleb128 0x9
 687 0272 D4030000 		.4byte	.LASF29
 688 0276 05       		.byte	0x5
 689 0277 62       		.byte	0x62
 690 0278 8E020000 		.4byte	0x28e
 691 027c 02       		.byte	0x2
 692 027d 23       		.byte	0x23
 693 027e 00       		.uleb128 0
 694 027f 09       		.uleb128 0x9
 695 0280 69030000 		.4byte	.LASF30
 696 0284 05       		.byte	0x5
 697 0285 64       		.byte	0x64
 698 0286 8E020000 		.4byte	0x28e
 699 028a 02       		.byte	0x2
 700 028b 23       		.byte	0x23
 701 028c 04       		.uleb128 0x4
 702 028d 00       		.byte	0
 703 028e 06       		.uleb128 0x6
 704 028f 04       		.byte	0x4
 705 0290 39010000 		.4byte	0x139
 706 0294 02       		.uleb128 0x2
 707 0295 11030000 		.4byte	.LASF48
 708 0299 05       		.byte	0x5
 709 029a 66       		.byte	0x66
 710 029b 69020000 		.4byte	0x269
 711 029f 0B       		.uleb128 0xb
 712 02a0 04       		.byte	0x4
 713 02a1 05       		.byte	0x5
 714 02a2 6B       		.byte	0x6b
 715 02a3 B6020000 		.4byte	0x2b6
 716 02a7 09       		.uleb128 0x9
 717 02a8 D4030000 		.4byte	.LASF29
 718 02ac 05       		.byte	0x5
 719 02ad 6D       		.byte	0x6d
 720 02ae 8E020000 		.4byte	0x28e
 721 02b2 02       		.byte	0x2
 722 02b3 23       		.byte	0x23
 723 02b4 00       		.uleb128 0
 724 02b5 00       		.byte	0
 725 02b6 02       		.uleb128 0x2
 726 02b7 8B020000 		.4byte	.LASF49
 727 02bb 05       		.byte	0x5
 728 02bc 70       		.byte	0x70
 729 02bd 9F020000 		.4byte	0x29f
 730 02c1 02       		.uleb128 0x2
 731 02c2 9A010000 		.4byte	.LASF50
 732 02c6 07       		.byte	0x7
 733 02c7 E5       		.byte	0xe5
 734 02c8 7A000000 		.4byte	0x7a
ARM GAS  /var/folders/pt/gxfsd_x53tx3h6kb8dkzftl80000gr/T//ccnrF0YR.s 			page 14


 735 02cc 02       		.uleb128 0x2
 736 02cd B1020000 		.4byte	.LASF51
 737 02d1 07       		.byte	0x7
 738 02d2 EB       		.byte	0xeb
 739 02d3 CF000000 		.4byte	0xcf
 740 02d7 0C       		.uleb128 0xc
 741 02d8 3B050000 		.4byte	.LASF52
 742 02dc 24       		.byte	0x24
 743 02dd 07       		.byte	0x7
 744 02de 0C01     		.2byte	0x10c
 745 02e0 65030000 		.4byte	0x365
 746 02e4 0D       		.uleb128 0xd
 747 02e5 723400   		.ascii	"r4\000"
 748 02e8 07       		.byte	0x7
 749 02e9 1F01     		.2byte	0x11f
 750 02eb C1020000 		.4byte	0x2c1
 751 02ef 02       		.byte	0x2
 752 02f0 23       		.byte	0x23
 753 02f1 00       		.uleb128 0
 754 02f2 0D       		.uleb128 0xd
 755 02f3 723500   		.ascii	"r5\000"
 756 02f6 07       		.byte	0x7
 757 02f7 2001     		.2byte	0x120
 758 02f9 C1020000 		.4byte	0x2c1
 759 02fd 02       		.byte	0x2
 760 02fe 23       		.byte	0x23
 761 02ff 04       		.uleb128 0x4
 762 0300 0D       		.uleb128 0xd
 763 0301 723600   		.ascii	"r6\000"
 764 0304 07       		.byte	0x7
 765 0305 2101     		.2byte	0x121
 766 0307 C1020000 		.4byte	0x2c1
 767 030b 02       		.byte	0x2
 768 030c 23       		.byte	0x23
 769 030d 08       		.uleb128 0x8
 770 030e 0D       		.uleb128 0xd
 771 030f 723700   		.ascii	"r7\000"
 772 0312 07       		.byte	0x7
 773 0313 2201     		.2byte	0x122
 774 0315 C1020000 		.4byte	0x2c1
 775 0319 02       		.byte	0x2
 776 031a 23       		.byte	0x23
 777 031b 0C       		.uleb128 0xc
 778 031c 0D       		.uleb128 0xd
 779 031d 723800   		.ascii	"r8\000"
 780 0320 07       		.byte	0x7
 781 0321 2301     		.2byte	0x123
 782 0323 C1020000 		.4byte	0x2c1
 783 0327 02       		.byte	0x2
 784 0328 23       		.byte	0x23
 785 0329 10       		.uleb128 0x10
 786 032a 0D       		.uleb128 0xd
 787 032b 723900   		.ascii	"r9\000"
 788 032e 07       		.byte	0x7
 789 032f 2401     		.2byte	0x124
 790 0331 C1020000 		.4byte	0x2c1
 791 0335 02       		.byte	0x2
ARM GAS  /var/folders/pt/gxfsd_x53tx3h6kb8dkzftl80000gr/T//ccnrF0YR.s 			page 15


 792 0336 23       		.byte	0x23
 793 0337 14       		.uleb128 0x14
 794 0338 0D       		.uleb128 0xd
 795 0339 72313000 		.ascii	"r10\000"
 796 033d 07       		.byte	0x7
 797 033e 2501     		.2byte	0x125
 798 0340 C1020000 		.4byte	0x2c1
 799 0344 02       		.byte	0x2
 800 0345 23       		.byte	0x23
 801 0346 18       		.uleb128 0x18
 802 0347 0D       		.uleb128 0xd
 803 0348 72313100 		.ascii	"r11\000"
 804 034c 07       		.byte	0x7
 805 034d 2601     		.2byte	0x126
 806 034f C1020000 		.4byte	0x2c1
 807 0353 02       		.byte	0x2
 808 0354 23       		.byte	0x23
 809 0355 1C       		.uleb128 0x1c
 810 0356 0D       		.uleb128 0xd
 811 0357 6C7200   		.ascii	"lr\000"
 812 035a 07       		.byte	0x7
 813 035b 2701     		.2byte	0x127
 814 035d C1020000 		.4byte	0x2c1
 815 0361 02       		.byte	0x2
 816 0362 23       		.byte	0x23
 817 0363 20       		.uleb128 0x20
 818 0364 00       		.byte	0
 819 0365 0C       		.uleb128 0xc
 820 0366 28050000 		.4byte	.LASF53
 821 036a 04       		.byte	0x4
 822 036b 07       		.byte	0x7
 823 036c 3101     		.2byte	0x131
 824 036e 82030000 		.4byte	0x382
 825 0372 0D       		.uleb128 0xd
 826 0373 72313300 		.ascii	"r13\000"
 827 0377 07       		.byte	0x7
 828 0378 3201     		.2byte	0x132
 829 037a 82030000 		.4byte	0x382
 830 037e 02       		.byte	0x2
 831 037f 23       		.byte	0x23
 832 0380 00       		.uleb128 0
 833 0381 00       		.byte	0
 834 0382 06       		.uleb128 0x6
 835 0383 04       		.byte	0x4
 836 0384 D7020000 		.4byte	0x2d7
 837 0388 0E       		.uleb128 0xe
 838 0389 2E010000 		.4byte	0x12e
 839 038d 0B       		.uleb128 0xb
 840 038e 1C       		.byte	0x1c
 841 038f 08       		.byte	0x8
 842 0390 5E       		.byte	0x5e
 843 0391 EA030000 		.4byte	0x3ea
 844 0395 09       		.uleb128 0x9
 845 0396 4E040000 		.4byte	.LASF54
 846 039a 08       		.byte	0x8
 847 039b 5F       		.byte	0x5f
 848 039c 94020000 		.4byte	0x294
ARM GAS  /var/folders/pt/gxfsd_x53tx3h6kb8dkzftl80000gr/T//ccnrF0YR.s 			page 16


 849 03a0 02       		.byte	0x2
 850 03a1 23       		.byte	0x23
 851 03a2 00       		.uleb128 0
 852 03a3 09       		.uleb128 0x9
 853 03a4 C6030000 		.4byte	.LASF55
 854 03a8 08       		.byte	0x8
 855 03a9 60       		.byte	0x60
 856 03aa 0D010000 		.4byte	0x10d
 857 03ae 02       		.byte	0x2
 858 03af 23       		.byte	0x23
 859 03b0 08       		.uleb128 0x8
 860 03b1 09       		.uleb128 0x9
 861 03b2 0B030000 		.4byte	.LASF56
 862 03b6 08       		.byte	0x8
 863 03b7 62       		.byte	0x62
 864 03b8 65030000 		.4byte	0x365
 865 03bc 02       		.byte	0x2
 866 03bd 23       		.byte	0x23
 867 03be 0C       		.uleb128 0xc
 868 03bf 09       		.uleb128 0x9
 869 03c0 86010000 		.4byte	.LASF57
 870 03c4 08       		.byte	0x8
 871 03c5 65       		.byte	0x65
 872 03c6 8E020000 		.4byte	0x28e
 873 03ca 02       		.byte	0x2
 874 03cb 23       		.byte	0x23
 875 03cc 10       		.uleb128 0x10
 876 03cd 09       		.uleb128 0x9
 877 03ce 34030000 		.4byte	.LASF58
 878 03d2 08       		.byte	0x8
 879 03d3 66       		.byte	0x66
 880 03d4 8E020000 		.4byte	0x28e
 881 03d8 02       		.byte	0x2
 882 03d9 23       		.byte	0x23
 883 03da 14       		.uleb128 0x14
 884 03db 09       		.uleb128 0x9
 885 03dc 2A030000 		.4byte	.LASF59
 886 03e0 08       		.byte	0x8
 887 03e1 69       		.byte	0x69
 888 03e2 8E020000 		.4byte	0x28e
 889 03e6 02       		.byte	0x2
 890 03e7 23       		.byte	0x23
 891 03e8 18       		.uleb128 0x18
 892 03e9 00       		.byte	0
 893 03ea 02       		.uleb128 0x2
 894 03eb 78050000 		.4byte	.LASF60
 895 03ef 08       		.byte	0x8
 896 03f0 6B       		.byte	0x6b
 897 03f1 8D030000 		.4byte	0x38d
 898 03f5 08       		.uleb128 0x8
 899 03f6 D7020000 		.4byte	.LASF61
 900 03fa 10       		.byte	0x10
 901 03fb 09       		.byte	0x9
 902 03fc 2C       		.byte	0x2c
 903 03fd 2C040000 		.4byte	0x42c
 904 0401 09       		.uleb128 0x9
 905 0402 C9000000 		.4byte	.LASF62
ARM GAS  /var/folders/pt/gxfsd_x53tx3h6kb8dkzftl80000gr/T//ccnrF0YR.s 			page 17


 906 0406 09       		.byte	0x9
 907 0407 2D       		.byte	0x2d
 908 0408 94020000 		.4byte	0x294
 909 040c 02       		.byte	0x2
 910 040d 23       		.byte	0x23
 911 040e 00       		.uleb128 0
 912 040f 09       		.uleb128 0x9
 913 0410 DD050000 		.4byte	.LASF63
 914 0414 09       		.byte	0x9
 915 0415 2F       		.byte	0x2f
 916 0416 8E020000 		.4byte	0x28e
 917 041a 02       		.byte	0x2
 918 041b 23       		.byte	0x23
 919 041c 08       		.uleb128 0x8
 920 041d 09       		.uleb128 0x9
 921 041e FC040000 		.4byte	.LASF64
 922 0422 09       		.byte	0x9
 923 0423 31       		.byte	0x31
 924 0424 2C040000 		.4byte	0x42c
 925 0428 02       		.byte	0x2
 926 0429 23       		.byte	0x23
 927 042a 0C       		.uleb128 0xc
 928 042b 00       		.byte	0
 929 042c 06       		.uleb128 0x6
 930 042d 04       		.byte	0x4
 931 042e F5030000 		.4byte	0x3f5
 932 0432 02       		.uleb128 0x2
 933 0433 D7020000 		.4byte	.LASF61
 934 0437 09       		.byte	0x9
 935 0438 33       		.byte	0x33
 936 0439 F5030000 		.4byte	0x3f5
 937 043d 0F       		.uleb128 0xf
 938 043e 04       		.byte	0x4
 939 043f 06       		.byte	0x6
 940 0440 96       		.byte	0x96
 941 0441 72040000 		.4byte	0x472
 942 0445 10       		.uleb128 0x10
 943 0446 1E000000 		.4byte	.LASF65
 944 044a 06       		.byte	0x6
 945 044b 9D       		.byte	0x9d
 946 044c 18010000 		.4byte	0x118
 947 0450 10       		.uleb128 0x10
 948 0451 7D010000 		.4byte	.LASF66
 949 0455 06       		.byte	0x6
 950 0456 A4       		.byte	0xa4
 951 0457 18010000 		.4byte	0x118
 952 045b 10       		.uleb128 0x10
 953 045c DF000000 		.4byte	.LASF67
 954 0460 06       		.byte	0x6
 955 0461 AB       		.byte	0xab
 956 0462 7A000000 		.4byte	0x7a
 957 0466 10       		.uleb128 0x10
 958 0467 CD030000 		.4byte	.LASF68
 959 046b 06       		.byte	0x6
 960 046c B2       		.byte	0xb2
 961 046d 23010000 		.4byte	0x123
 962 0471 00       		.byte	0
ARM GAS  /var/folders/pt/gxfsd_x53tx3h6kb8dkzftl80000gr/T//ccnrF0YR.s 			page 18


 963 0472 06       		.uleb128 0x6
 964 0473 04       		.byte	0x4
 965 0474 32040000 		.4byte	0x432
 966 0478 02       		.uleb128 0x2
 967 0479 0F000000 		.4byte	.LASF69
 968 047d 06       		.byte	0x6
 969 047e E5       		.byte	0xe5
 970 047f 83040000 		.4byte	0x483
 971 0483 06       		.uleb128 0x6
 972 0484 04       		.byte	0x4
 973 0485 89040000 		.4byte	0x489
 974 0489 11       		.uleb128 0x11
 975 048a 01       		.byte	0x1
 976 048b 18010000 		.4byte	0x118
 977 048f 99040000 		.4byte	0x499
 978 0493 12       		.uleb128 0x12
 979 0494 7A000000 		.4byte	0x7a
 980 0498 00       		.byte	0
 981 0499 0E       		.uleb128 0xe
 982 049a B9000000 		.4byte	0xb9
 983 049e 13       		.uleb128 0x13
 984 049f 01       		.byte	0x1
 985 04a0 0A       		.byte	0xa
 986 04a1 3C       		.byte	0x3c
 987 04a2 E3040000 		.4byte	0x4e3
 988 04a6 14       		.uleb128 0x14
 989 04a7 A0050000 		.4byte	.LASF70
 990 04ab 7F       		.sleb128 -1
 991 04ac 14       		.uleb128 0x14
 992 04ad 56010000 		.4byte	.LASF71
 993 04b1 00       		.sleb128 0
 994 04b2 14       		.uleb128 0x14
 995 04b3 63010000 		.4byte	.LASF72
 996 04b7 01       		.sleb128 1
 997 04b8 14       		.uleb128 0x14
 998 04b9 DB030000 		.4byte	.LASF73
 999 04bd 02       		.sleb128 2
 1000 04be 14       		.uleb128 0x14
 1001 04bf 70010000 		.4byte	.LASF74
 1002 04c3 03       		.sleb128 3
 1003 04c4 14       		.uleb128 0x14
 1004 04c5 42050000 		.4byte	.LASF75
 1005 04c9 04       		.sleb128 4
 1006 04ca 14       		.uleb128 0x14
 1007 04cb 01040000 		.4byte	.LASF76
 1008 04cf 05       		.sleb128 5
 1009 04d0 14       		.uleb128 0x14
 1010 04d1 0E040000 		.4byte	.LASF77
 1011 04d5 06       		.sleb128 6
 1012 04d6 14       		.uleb128 0x14
 1013 04d7 1B040000 		.4byte	.LASF78
 1014 04db 07       		.sleb128 7
 1015 04dc 14       		.uleb128 0x14
 1016 04dd 00000000 		.4byte	.LASF79
 1017 04e1 08       		.sleb128 8
 1018 04e2 00       		.byte	0
 1019 04e3 02       		.uleb128 0x2
ARM GAS  /var/folders/pt/gxfsd_x53tx3h6kb8dkzftl80000gr/T//ccnrF0YR.s 			page 19


 1020 04e4 59050000 		.4byte	.LASF80
 1021 04e8 0A       		.byte	0xa
 1022 04e9 48       		.byte	0x48
 1023 04ea 9E040000 		.4byte	0x49e
 1024 04ee 13       		.uleb128 0x13
 1025 04ef 01       		.byte	0x1
 1026 04f0 0B       		.byte	0xb
 1027 04f1 8D       		.byte	0x8d
 1028 04f2 4B050000 		.4byte	0x54b
 1029 04f6 14       		.uleb128 0x14
 1030 04f7 3C030000 		.4byte	.LASF81
 1031 04fb 7F       		.sleb128 -1
 1032 04fc 14       		.uleb128 0x14
 1033 04fd 0D020000 		.4byte	.LASF82
 1034 0501 00       		.sleb128 0
 1035 0502 14       		.uleb128 0x14
 1036 0503 1B020000 		.4byte	.LASF83
 1037 0507 01       		.sleb128 1
 1038 0508 14       		.uleb128 0x14
 1039 0509 29020000 		.4byte	.LASF84
 1040 050d 02       		.sleb128 2
 1041 050e 14       		.uleb128 0x14
 1042 050f 37020000 		.4byte	.LASF85
 1043 0513 03       		.sleb128 3
 1044 0514 14       		.uleb128 0x14
 1045 0515 45020000 		.4byte	.LASF86
 1046 0519 04       		.sleb128 4
 1047 051a 14       		.uleb128 0x14
 1048 051b 53020000 		.4byte	.LASF87
 1049 051f 05       		.sleb128 5
 1050 0520 14       		.uleb128 0x14
 1051 0521 61020000 		.4byte	.LASF88
 1052 0525 06       		.sleb128 6
 1053 0526 14       		.uleb128 0x14
 1054 0527 6F020000 		.4byte	.LASF89
 1055 052b 07       		.sleb128 7
 1056 052c 14       		.uleb128 0x14
 1057 052d 7D020000 		.4byte	.LASF90
 1058 0531 08       		.sleb128 8
 1059 0532 14       		.uleb128 0x14
 1060 0533 CF040000 		.4byte	.LASF91
 1061 0537 09       		.sleb128 9
 1062 0538 14       		.uleb128 0x14
 1063 0539 DE040000 		.4byte	.LASF92
 1064 053d 0A       		.sleb128 10
 1065 053e 14       		.uleb128 0x14
 1066 053f ED040000 		.4byte	.LASF93
 1067 0543 0B       		.sleb128 11
 1068 0544 14       		.uleb128 0x14
 1069 0545 57000000 		.4byte	.LASF94
 1070 0549 0C       		.sleb128 12
 1071 054a 00       		.byte	0
 1072 054b 13       		.uleb128 0x13
 1073 054c 01       		.byte	0x1
 1074 054d 0B       		.byte	0xb
 1075 054e A2       		.byte	0xa2
 1076 054f 60050000 		.4byte	0x560
ARM GAS  /var/folders/pt/gxfsd_x53tx3h6kb8dkzftl80000gr/T//ccnrF0YR.s 			page 20


 1077 0553 14       		.uleb128 0x14
 1078 0554 F5050000 		.4byte	.LASF95
 1079 0558 00       		.sleb128 0
 1080 0559 14       		.uleb128 0x14
 1081 055a 2E000000 		.4byte	.LASF96
 1082 055e 01       		.sleb128 1
 1083 055f 00       		.byte	0
 1084 0560 13       		.uleb128 0x13
 1085 0561 01       		.byte	0x1
 1086 0562 0C       		.byte	0xc
 1087 0563 46       		.byte	0x46
 1088 0564 A6050000 		.4byte	0x5a6
 1089 0568 14       		.uleb128 0x14
 1090 0569 4D030000 		.4byte	.LASF97
 1091 056d 00       		.sleb128 0
 1092 056e 14       		.uleb128 0x14
 1093 056f 6D040000 		.4byte	.LASF98
 1094 0573 01       		.sleb128 1
 1095 0574 14       		.uleb128 0x14
 1096 0575 7B040000 		.4byte	.LASF99
 1097 0579 02       		.sleb128 2
 1098 057a 14       		.uleb128 0x14
 1099 057b 89040000 		.4byte	.LASF100
 1100 057f 03       		.sleb128 3
 1101 0580 14       		.uleb128 0x14
 1102 0581 97040000 		.4byte	.LASF101
 1103 0585 04       		.sleb128 4
 1104 0586 14       		.uleb128 0x14
 1105 0587 A5040000 		.4byte	.LASF102
 1106 058b 05       		.sleb128 5
 1107 058c 14       		.uleb128 0x14
 1108 058d B3040000 		.4byte	.LASF103
 1109 0591 06       		.sleb128 6
 1110 0592 14       		.uleb128 0x14
 1111 0593 C1040000 		.4byte	.LASF104
 1112 0597 07       		.sleb128 7
 1113 0598 14       		.uleb128 0x14
 1114 0599 A3010000 		.4byte	.LASF105
 1115 059d 08       		.sleb128 8
 1116 059e 14       		.uleb128 0x14
 1117 059f 88050000 		.4byte	.LASF106
 1118 05a3 E300     		.sleb128 99
 1119 05a5 00       		.byte	0
 1120 05a6 15       		.uleb128 0x15
 1121 05a7 94030000 		.4byte	.LASF132
 1122 05ab 01       		.byte	0x1
 1123 05ac 4D       		.byte	0x4d
 1124 05ad 01       		.byte	0x1
 1125 05ae 18010000 		.4byte	0x118
 1126 05b2 00000000 		.4byte	.LFB63
 1127 05b6 C4000000 		.4byte	.LFE63
 1128 05ba 00000000 		.4byte	.LLST0
 1129 05be 01       		.byte	0x1
 1130 05bf 87060000 		.4byte	0x687
 1131 05c3 16       		.uleb128 0x16
 1132 05c4 61726700 		.ascii	"arg\000"
 1133 05c8 01       		.byte	0x1
ARM GAS  /var/folders/pt/gxfsd_x53tx3h6kb8dkzftl80000gr/T//ccnrF0YR.s 			page 21


 1134 05c9 4D       		.byte	0x4d
 1135 05ca 7A000000 		.4byte	0x7a
 1136 05ce 20000000 		.4byte	.LLST1
 1137 05d2 17       		.uleb128 0x17
 1138 05d3 6900     		.ascii	"i\000"
 1139 05d5 01       		.byte	0x1
 1140 05d6 4F       		.byte	0x4f
 1141 05d7 AE000000 		.4byte	0xae
 1142 05db 41000000 		.4byte	.LLST2
 1143 05df 18       		.uleb128 0x18
 1144 05e0 8E010000 		.4byte	.LASF107
 1145 05e4 01       		.byte	0x1
 1146 05e5 50       		.byte	0x50
 1147 05e6 B9000000 		.4byte	0xb9
 1148 05ea 55000000 		.4byte	.LLST3
 1149 05ee 18       		.uleb128 0x18
 1150 05ef F8030000 		.4byte	.LASF108
 1151 05f3 01       		.byte	0x1
 1152 05f4 51       		.byte	0x51
 1153 05f5 B9000000 		.4byte	0xb9
 1154 05f9 74000000 		.4byte	.LLST4
 1155 05fd 19       		.uleb128 0x19
 1156 05fe D1000000 		.4byte	.LASF109
 1157 0602 01       		.byte	0x1
 1158 0603 52       		.byte	0x52
 1159 0604 B9000000 		.4byte	0xb9
 1160 0608 01       		.byte	0x1
 1161 0609 55       		.byte	0x55
 1162 060a 18       		.uleb128 0x18
 1163 060b 05020000 		.4byte	.LASF110
 1164 060f 01       		.byte	0x1
 1165 0610 53       		.byte	0x53
 1166 0611 B9000000 		.4byte	0xb9
 1167 0615 87000000 		.4byte	.LLST5
 1168 0619 18       		.uleb128 0x18
 1169 061a CD050000 		.4byte	.LASF111
 1170 061e 01       		.byte	0x1
 1171 061f 54       		.byte	0x54
 1172 0620 B9000000 		.4byte	0xb9
 1173 0624 A0000000 		.4byte	.LLST6
 1174 0628 18       		.uleb128 0x18
 1175 0629 6E050000 		.4byte	.LASF112
 1176 062d 01       		.byte	0x1
 1177 062e 56       		.byte	0x56
 1178 062f AE000000 		.4byte	0xae
 1179 0633 BF000000 		.4byte	.LLST7
 1180 0637 1A       		.uleb128 0x1a
 1181 0638 E8030000 		.4byte	.LASF113
 1182 063c 01       		.byte	0x1
 1183 063d 57       		.byte	0x57
 1184 063e B9000000 		.4byte	0xb9
 1185 0642 82       		.byte	0x82
 1186 0643 18       		.uleb128 0x18
 1187 0644 82000000 		.4byte	.LASF114
 1188 0648 01       		.byte	0x1
 1189 0649 58       		.byte	0x58
 1190 064a B9000000 		.4byte	0xb9
ARM GAS  /var/folders/pt/gxfsd_x53tx3h6kb8dkzftl80000gr/T//ccnrF0YR.s 			page 22


 1191 064e D2000000 		.4byte	.LLST8
 1192 0652 1B       		.uleb128 0x1b
 1193 0653 20000000 		.4byte	.LVL3
 1194 0657 B6070000 		.4byte	0x7b6
 1195 065b 1C       		.uleb128 0x1c
 1196 065c 2C000000 		.4byte	.LVL5
 1197 0660 CE070000 		.4byte	0x7ce
 1198 0664 6E060000 		.4byte	0x66e
 1199 0668 1D       		.uleb128 0x1d
 1200 0669 01       		.byte	0x1
 1201 066a 50       		.byte	0x50
 1202 066b 01       		.byte	0x1
 1203 066c 31       		.byte	0x31
 1204 066d 00       		.byte	0
 1205 066e 1B       		.uleb128 0x1b
 1206 066f 6C000000 		.4byte	.LVL10
 1207 0673 B6070000 		.4byte	0x7b6
 1208 0677 1E       		.uleb128 0x1e
 1209 0678 9C000000 		.4byte	.LVL16
 1210 067c CE070000 		.4byte	0x7ce
 1211 0680 1D       		.uleb128 0x1d
 1212 0681 01       		.byte	0x1
 1213 0682 50       		.byte	0x50
 1214 0683 01       		.byte	0x1
 1215 0684 31       		.byte	0x31
 1216 0685 00       		.byte	0
 1217 0686 00       		.byte	0
 1218 0687 1F       		.uleb128 0x1f
 1219 0688 01       		.byte	0x1
 1220 0689 C2010000 		.4byte	.LASF133
 1221 068d 01       		.byte	0x1
 1222 068e 8A       		.byte	0x8a
 1223 068f 01       		.byte	0x1
 1224 0690 B9000000 		.4byte	0xb9
 1225 0694 00000000 		.4byte	.LFB64
 1226 0698 0C000000 		.4byte	.LFE64
 1227 069c 02       		.byte	0x2
 1228 069d 7D       		.byte	0x7d
 1229 069e 00       		.sleb128 0
 1230 069f 01       		.byte	0x1
 1231 06a0 20       		.uleb128 0x20
 1232 06a1 01       		.byte	0x1
 1233 06a2 25010000 		.4byte	.LASF115
 1234 06a6 01       		.byte	0x1
 1235 06a7 94       		.byte	0x94
 1236 06a8 01       		.byte	0x1
 1237 06a9 00000000 		.4byte	.LFB65
 1238 06ad 3C000000 		.4byte	.LFE65
 1239 06b1 F1000000 		.4byte	.LLST9
 1240 06b5 01       		.byte	0x1
 1241 06b6 F9060000 		.4byte	0x6f9
 1242 06ba 16       		.uleb128 0x16
 1243 06bb 70696E00 		.ascii	"pin\000"
 1244 06bf 01       		.byte	0x1
 1245 06c0 94       		.byte	0x94
 1246 06c1 E3040000 		.4byte	0x4e3
 1247 06c5 1D010000 		.4byte	.LLST10
ARM GAS  /var/folders/pt/gxfsd_x53tx3h6kb8dkzftl80000gr/T//ccnrF0YR.s 			page 23


 1248 06c9 1E       		.uleb128 0x1e
 1249 06ca 22000000 		.4byte	.LVL20
 1250 06ce E3070000 		.4byte	0x7e3
 1251 06d2 1D       		.uleb128 0x1d
 1252 06d3 01       		.byte	0x1
 1253 06d4 53       		.byte	0x53
 1254 06d5 05       		.byte	0x5
 1255 06d6 03       		.byte	0x3
 1256 06d7 00000000 		.4byte	vexGyroTask
 1257 06db 1D       		.uleb128 0x1d
 1258 06dc 01       		.byte	0x1
 1259 06dd 52       		.byte	0x52
 1260 06de 02       		.byte	0x2
 1261 06df 08       		.byte	0x8
 1262 06e0 41       		.byte	0x41
 1263 06e1 1D       		.uleb128 0x1d
 1264 06e2 01       		.byte	0x1
 1265 06e3 51       		.byte	0x51
 1266 06e4 03       		.byte	0x3
 1267 06e5 0A       		.byte	0xa
 1268 06e6 B002     		.2byte	0x2b0
 1269 06e8 1D       		.uleb128 0x1d
 1270 06e9 01       		.byte	0x1
 1271 06ea 50       		.byte	0x50
 1272 06eb 05       		.byte	0x5
 1273 06ec 03       		.byte	0x3
 1274 06ed 00000000 		.4byte	.LANCHOR2
 1275 06f1 1D       		.uleb128 0x1d
 1276 06f2 02       		.byte	0x2
 1277 06f3 7D       		.byte	0x7d
 1278 06f4 00       		.sleb128 0
 1279 06f5 01       		.byte	0x1
 1280 06f6 30       		.byte	0x30
 1281 06f7 00       		.byte	0
 1282 06f8 00       		.byte	0
 1283 06f9 20       		.uleb128 0x20
 1284 06fa 01       		.byte	0x1
 1285 06fb 9A000000 		.4byte	.LASF116
 1286 06ff 01       		.byte	0x1
 1287 0700 A3       		.byte	0xa3
 1288 0701 01       		.byte	0x1
 1289 0702 00000000 		.4byte	.LFB66
 1290 0706 30000000 		.4byte	.LFE66
 1291 070a 3E010000 		.4byte	.LLST11
 1292 070e 01       		.byte	0x1
 1293 070f 30070000 		.4byte	0x730
 1294 0713 1B       		.uleb128 0x1b
 1295 0714 0C000000 		.4byte	.LVL21
 1296 0718 10080000 		.4byte	0x810
 1297 071c 1B       		.uleb128 0x1b
 1298 071d 12000000 		.4byte	.LVL22
 1299 0721 25080000 		.4byte	0x825
 1300 0725 21       		.uleb128 0x21
 1301 0726 24000000 		.4byte	.LVL23
 1302 072a 01       		.byte	0x1
 1303 072b A0060000 		.4byte	0x6a0
 1304 072f 00       		.byte	0
ARM GAS  /var/folders/pt/gxfsd_x53tx3h6kb8dkzftl80000gr/T//ccnrF0YR.s 			page 24


 1305 0730 22       		.uleb128 0x22
 1306 0731 CC020000 		.4byte	0x2cc
 1307 0735 40070000 		.4byte	0x740
 1308 0739 23       		.uleb128 0x23
 1309 073a 73000000 		.4byte	0x73
 1310 073e 55       		.byte	0x55
 1311 073f 00       		.byte	0
 1312 0740 19       		.uleb128 0x19
 1313 0741 A3020000 		.4byte	.LASF117
 1314 0745 01       		.byte	0x1
 1315 0746 3E       		.byte	0x3e
 1316 0747 30070000 		.4byte	0x730
 1317 074b 05       		.byte	0x5
 1318 074c 03       		.byte	0x3
 1319 074d 00000000 		.4byte	waVexGyroTask
 1320 0751 19       		.uleb128 0x19
 1321 0752 D8010000 		.4byte	.LASF118
 1322 0756 01       		.byte	0x1
 1323 0757 41       		.byte	0x41
 1324 0758 B9000000 		.4byte	0xb9
 1325 075c 05       		.byte	0x5
 1326 075d 03       		.byte	0x3
 1327 075e 00000000 		.4byte	GyroValue
 1328 0762 19       		.uleb128 0x19
 1329 0763 30050000 		.4byte	.LASF119
 1330 0767 01       		.byte	0x1
 1331 0768 47       		.byte	0x47
 1332 0769 8E020000 		.4byte	0x28e
 1333 076d 05       		.byte	0x5
 1334 076e 03       		.byte	0x3
 1335 076f 00000000 		.4byte	gyroThread
 1336 0773 19       		.uleb128 0x19
 1337 0774 67000000 		.4byte	.LASF120
 1338 0778 01       		.byte	0x1
 1339 0779 4A       		.byte	0x4a
 1340 077a E3040000 		.4byte	0x4e3
 1341 077e 05       		.byte	0x5
 1342 077f 03       		.byte	0x3
 1343 0780 00000000 		.4byte	gyroAnalogPin
 1344 0784 24       		.uleb128 0x24
 1345 0785 82050000 		.4byte	.LASF121
 1346 0789 08       		.byte	0x8
 1347 078a 6F       		.byte	0x6f
 1348 078b EA030000 		.4byte	0x3ea
 1349 078f 01       		.byte	0x1
 1350 0790 01       		.byte	0x1
 1351 0791 25       		.uleb128 0x25
 1352 0792 75000000 		.4byte	.LASF122
 1353 0796 0D       		.byte	0xd
 1354 0797 0706     		.2byte	0x607
 1355 0799 99040000 		.4byte	0x499
 1356 079d 01       		.byte	0x1
 1357 079e 01       		.byte	0x1
 1358 079f 26       		.uleb128 0x26
 1359 07a0 18050000 		.4byte	.LASF123
 1360 07a4 01       		.byte	0x1
 1361 07a5 44       		.byte	0x44
ARM GAS  /var/folders/pt/gxfsd_x53tx3h6kb8dkzftl80000gr/T//ccnrF0YR.s 			page 25


 1362 07a6 B1070000 		.4byte	0x7b1
 1363 07aa 01       		.byte	0x1
 1364 07ab 05       		.byte	0x5
 1365 07ac 03       		.byte	0x3
 1366 07ad 00000000 		.4byte	GyroJitterRange
 1367 07b1 07       		.uleb128 0x7
 1368 07b2 57000000 		.4byte	0x57
 1369 07b6 27       		.uleb128 0x27
 1370 07b7 01       		.byte	0x1
 1371 07b8 E2010000 		.4byte	.LASF124
 1372 07bc 0A       		.byte	0xa
 1373 07bd 4F       		.byte	0x4f
 1374 07be 01       		.byte	0x1
 1375 07bf AE000000 		.4byte	0xae
 1376 07c3 01       		.byte	0x1
 1377 07c4 CE070000 		.4byte	0x7ce
 1378 07c8 12       		.uleb128 0x12
 1379 07c9 AE000000 		.4byte	0xae
 1380 07cd 00       		.byte	0
 1381 07ce 28       		.uleb128 0x28
 1382 07cf 01       		.byte	0x1
 1383 07d0 3A040000 		.4byte	.LASF126
 1384 07d4 06       		.byte	0x6
 1385 07d5 7501     		.2byte	0x175
 1386 07d7 01       		.byte	0x1
 1387 07d8 01       		.byte	0x1
 1388 07d9 E3070000 		.4byte	0x7e3
 1389 07dd 12       		.uleb128 0x12
 1390 07de 2E010000 		.4byte	0x12e
 1391 07e2 00       		.byte	0
 1392 07e3 29       		.uleb128 0x29
 1393 07e4 01       		.byte	0x1
 1394 07e5 BC020000 		.4byte	.LASF125
 1395 07e9 06       		.byte	0x6
 1396 07ea 7001     		.2byte	0x170
 1397 07ec 01       		.byte	0x1
 1398 07ed 8E020000 		.4byte	0x28e
 1399 07f1 01       		.byte	0x1
 1400 07f2 10080000 		.4byte	0x810
 1401 07f6 12       		.uleb128 0x12
 1402 07f7 7A000000 		.4byte	0x7a
 1403 07fb 12       		.uleb128 0x12
 1404 07fc 29000000 		.4byte	0x29
 1405 0800 12       		.uleb128 0x12
 1406 0801 0D010000 		.4byte	0x10d
 1407 0805 12       		.uleb128 0x12
 1408 0806 78040000 		.4byte	0x478
 1409 080a 12       		.uleb128 0x12
 1410 080b 7A000000 		.4byte	0x7a
 1411 080f 00       		.byte	0
 1412 0810 28       		.uleb128 0x28
 1413 0811 01       		.byte	0x1
 1414 0812 3F010000 		.4byte	.LASF127
 1415 0816 06       		.byte	0x6
 1416 0817 7401     		.2byte	0x174
 1417 0819 01       		.byte	0x1
 1418 081a 01       		.byte	0x1
ARM GAS  /var/folders/pt/gxfsd_x53tx3h6kb8dkzftl80000gr/T//ccnrF0YR.s 			page 26


 1419 081b 25080000 		.4byte	0x825
 1420 081f 12       		.uleb128 0x12
 1421 0820 8E020000 		.4byte	0x28e
 1422 0824 00       		.byte	0
 1423 0825 2A       		.uleb128 0x2a
 1424 0826 01       		.byte	0x1
 1425 0827 4F050000 		.4byte	.LASF128
 1426 082b 06       		.byte	0x6
 1427 082c 7B01     		.2byte	0x17b
 1428 082e 01       		.byte	0x1
 1429 082f 18010000 		.4byte	0x118
 1430 0833 01       		.byte	0x1
 1431 0834 12       		.uleb128 0x12
 1432 0835 8E020000 		.4byte	0x28e
 1433 0839 00       		.byte	0
 1434 083a 00       		.byte	0
 1435              		.section	.debug_abbrev,"",%progbits
 1436              	.Ldebug_abbrev0:
 1437 0000 01       		.uleb128 0x1
 1438 0001 11       		.uleb128 0x11
 1439 0002 01       		.byte	0x1
 1440 0003 25       		.uleb128 0x25
 1441 0004 0E       		.uleb128 0xe
 1442 0005 13       		.uleb128 0x13
 1443 0006 0B       		.uleb128 0xb
 1444 0007 03       		.uleb128 0x3
 1445 0008 0E       		.uleb128 0xe
 1446 0009 1B       		.uleb128 0x1b
 1447 000a 0E       		.uleb128 0xe
 1448 000b 55       		.uleb128 0x55
 1449 000c 06       		.uleb128 0x6
 1450 000d 11       		.uleb128 0x11
 1451 000e 01       		.uleb128 0x1
 1452 000f 52       		.uleb128 0x52
 1453 0010 01       		.uleb128 0x1
 1454 0011 10       		.uleb128 0x10
 1455 0012 06       		.uleb128 0x6
 1456 0013 00       		.byte	0
 1457 0014 00       		.byte	0
 1458 0015 02       		.uleb128 0x2
 1459 0016 16       		.uleb128 0x16
 1460 0017 00       		.byte	0
 1461 0018 03       		.uleb128 0x3
 1462 0019 0E       		.uleb128 0xe
 1463 001a 3A       		.uleb128 0x3a
 1464 001b 0B       		.uleb128 0xb
 1465 001c 3B       		.uleb128 0x3b
 1466 001d 0B       		.uleb128 0xb
 1467 001e 49       		.uleb128 0x49
 1468 001f 13       		.uleb128 0x13
 1469 0020 00       		.byte	0
 1470 0021 00       		.byte	0
 1471 0022 03       		.uleb128 0x3
 1472 0023 24       		.uleb128 0x24
 1473 0024 00       		.byte	0
 1474 0025 0B       		.uleb128 0xb
 1475 0026 0B       		.uleb128 0xb
ARM GAS  /var/folders/pt/gxfsd_x53tx3h6kb8dkzftl80000gr/T//ccnrF0YR.s 			page 27


 1476 0027 3E       		.uleb128 0x3e
 1477 0028 0B       		.uleb128 0xb
 1478 0029 03       		.uleb128 0x3
 1479 002a 0E       		.uleb128 0xe
 1480 002b 00       		.byte	0
 1481 002c 00       		.byte	0
 1482 002d 04       		.uleb128 0x4
 1483 002e 24       		.uleb128 0x24
 1484 002f 00       		.byte	0
 1485 0030 0B       		.uleb128 0xb
 1486 0031 0B       		.uleb128 0xb
 1487 0032 3E       		.uleb128 0x3e
 1488 0033 0B       		.uleb128 0xb
 1489 0034 03       		.uleb128 0x3
 1490 0035 08       		.uleb128 0x8
 1491 0036 00       		.byte	0
 1492 0037 00       		.byte	0
 1493 0038 05       		.uleb128 0x5
 1494 0039 0F       		.uleb128 0xf
 1495 003a 00       		.byte	0
 1496 003b 0B       		.uleb128 0xb
 1497 003c 0B       		.uleb128 0xb
 1498 003d 00       		.byte	0
 1499 003e 00       		.byte	0
 1500 003f 06       		.uleb128 0x6
 1501 0040 0F       		.uleb128 0xf
 1502 0041 00       		.byte	0
 1503 0042 0B       		.uleb128 0xb
 1504 0043 0B       		.uleb128 0xb
 1505 0044 49       		.uleb128 0x49
 1506 0045 13       		.uleb128 0x13
 1507 0046 00       		.byte	0
 1508 0047 00       		.byte	0
 1509 0048 07       		.uleb128 0x7
 1510 0049 26       		.uleb128 0x26
 1511 004a 00       		.byte	0
 1512 004b 49       		.uleb128 0x49
 1513 004c 13       		.uleb128 0x13
 1514 004d 00       		.byte	0
 1515 004e 00       		.byte	0
 1516 004f 08       		.uleb128 0x8
 1517 0050 13       		.uleb128 0x13
 1518 0051 01       		.byte	0x1
 1519 0052 03       		.uleb128 0x3
 1520 0053 0E       		.uleb128 0xe
 1521 0054 0B       		.uleb128 0xb
 1522 0055 0B       		.uleb128 0xb
 1523 0056 3A       		.uleb128 0x3a
 1524 0057 0B       		.uleb128 0xb
 1525 0058 3B       		.uleb128 0x3b
 1526 0059 0B       		.uleb128 0xb
 1527 005a 01       		.uleb128 0x1
 1528 005b 13       		.uleb128 0x13
 1529 005c 00       		.byte	0
 1530 005d 00       		.byte	0
 1531 005e 09       		.uleb128 0x9
 1532 005f 0D       		.uleb128 0xd
ARM GAS  /var/folders/pt/gxfsd_x53tx3h6kb8dkzftl80000gr/T//ccnrF0YR.s 			page 28


 1533 0060 00       		.byte	0
 1534 0061 03       		.uleb128 0x3
 1535 0062 0E       		.uleb128 0xe
 1536 0063 3A       		.uleb128 0x3a
 1537 0064 0B       		.uleb128 0xb
 1538 0065 3B       		.uleb128 0x3b
 1539 0066 0B       		.uleb128 0xb
 1540 0067 49       		.uleb128 0x49
 1541 0068 13       		.uleb128 0x13
 1542 0069 38       		.uleb128 0x38
 1543 006a 0A       		.uleb128 0xa
 1544 006b 00       		.byte	0
 1545 006c 00       		.byte	0
 1546 006d 0A       		.uleb128 0xa
 1547 006e 0D       		.uleb128 0xd
 1548 006f 00       		.byte	0
 1549 0070 03       		.uleb128 0x3
 1550 0071 08       		.uleb128 0x8
 1551 0072 3A       		.uleb128 0x3a
 1552 0073 0B       		.uleb128 0xb
 1553 0074 3B       		.uleb128 0x3b
 1554 0075 0B       		.uleb128 0xb
 1555 0076 49       		.uleb128 0x49
 1556 0077 13       		.uleb128 0x13
 1557 0078 38       		.uleb128 0x38
 1558 0079 0A       		.uleb128 0xa
 1559 007a 00       		.byte	0
 1560 007b 00       		.byte	0
 1561 007c 0B       		.uleb128 0xb
 1562 007d 13       		.uleb128 0x13
 1563 007e 01       		.byte	0x1
 1564 007f 0B       		.uleb128 0xb
 1565 0080 0B       		.uleb128 0xb
 1566 0081 3A       		.uleb128 0x3a
 1567 0082 0B       		.uleb128 0xb
 1568 0083 3B       		.uleb128 0x3b
 1569 0084 0B       		.uleb128 0xb
 1570 0085 01       		.uleb128 0x1
 1571 0086 13       		.uleb128 0x13
 1572 0087 00       		.byte	0
 1573 0088 00       		.byte	0
 1574 0089 0C       		.uleb128 0xc
 1575 008a 13       		.uleb128 0x13
 1576 008b 01       		.byte	0x1
 1577 008c 03       		.uleb128 0x3
 1578 008d 0E       		.uleb128 0xe
 1579 008e 0B       		.uleb128 0xb
 1580 008f 0B       		.uleb128 0xb
 1581 0090 3A       		.uleb128 0x3a
 1582 0091 0B       		.uleb128 0xb
 1583 0092 3B       		.uleb128 0x3b
 1584 0093 05       		.uleb128 0x5
 1585 0094 01       		.uleb128 0x1
 1586 0095 13       		.uleb128 0x13
 1587 0096 00       		.byte	0
 1588 0097 00       		.byte	0
 1589 0098 0D       		.uleb128 0xd
ARM GAS  /var/folders/pt/gxfsd_x53tx3h6kb8dkzftl80000gr/T//ccnrF0YR.s 			page 29


 1590 0099 0D       		.uleb128 0xd
 1591 009a 00       		.byte	0
 1592 009b 03       		.uleb128 0x3
 1593 009c 08       		.uleb128 0x8
 1594 009d 3A       		.uleb128 0x3a
 1595 009e 0B       		.uleb128 0xb
 1596 009f 3B       		.uleb128 0x3b
 1597 00a0 05       		.uleb128 0x5
 1598 00a1 49       		.uleb128 0x49
 1599 00a2 13       		.uleb128 0x13
 1600 00a3 38       		.uleb128 0x38
 1601 00a4 0A       		.uleb128 0xa
 1602 00a5 00       		.byte	0
 1603 00a6 00       		.byte	0
 1604 00a7 0E       		.uleb128 0xe
 1605 00a8 35       		.uleb128 0x35
 1606 00a9 00       		.byte	0
 1607 00aa 49       		.uleb128 0x49
 1608 00ab 13       		.uleb128 0x13
 1609 00ac 00       		.byte	0
 1610 00ad 00       		.byte	0
 1611 00ae 0F       		.uleb128 0xf
 1612 00af 17       		.uleb128 0x17
 1613 00b0 01       		.byte	0x1
 1614 00b1 0B       		.uleb128 0xb
 1615 00b2 0B       		.uleb128 0xb
 1616 00b3 3A       		.uleb128 0x3a
 1617 00b4 0B       		.uleb128 0xb
 1618 00b5 3B       		.uleb128 0x3b
 1619 00b6 0B       		.uleb128 0xb
 1620 00b7 01       		.uleb128 0x1
 1621 00b8 13       		.uleb128 0x13
 1622 00b9 00       		.byte	0
 1623 00ba 00       		.byte	0
 1624 00bb 10       		.uleb128 0x10
 1625 00bc 0D       		.uleb128 0xd
 1626 00bd 00       		.byte	0
 1627 00be 03       		.uleb128 0x3
 1628 00bf 0E       		.uleb128 0xe
 1629 00c0 3A       		.uleb128 0x3a
 1630 00c1 0B       		.uleb128 0xb
 1631 00c2 3B       		.uleb128 0x3b
 1632 00c3 0B       		.uleb128 0xb
 1633 00c4 49       		.uleb128 0x49
 1634 00c5 13       		.uleb128 0x13
 1635 00c6 00       		.byte	0
 1636 00c7 00       		.byte	0
 1637 00c8 11       		.uleb128 0x11
 1638 00c9 15       		.uleb128 0x15
 1639 00ca 01       		.byte	0x1
 1640 00cb 27       		.uleb128 0x27
 1641 00cc 0C       		.uleb128 0xc
 1642 00cd 49       		.uleb128 0x49
 1643 00ce 13       		.uleb128 0x13
 1644 00cf 01       		.uleb128 0x1
 1645 00d0 13       		.uleb128 0x13
 1646 00d1 00       		.byte	0
ARM GAS  /var/folders/pt/gxfsd_x53tx3h6kb8dkzftl80000gr/T//ccnrF0YR.s 			page 30


 1647 00d2 00       		.byte	0
 1648 00d3 12       		.uleb128 0x12
 1649 00d4 05       		.uleb128 0x5
 1650 00d5 00       		.byte	0
 1651 00d6 49       		.uleb128 0x49
 1652 00d7 13       		.uleb128 0x13
 1653 00d8 00       		.byte	0
 1654 00d9 00       		.byte	0
 1655 00da 13       		.uleb128 0x13
 1656 00db 04       		.uleb128 0x4
 1657 00dc 01       		.byte	0x1
 1658 00dd 0B       		.uleb128 0xb
 1659 00de 0B       		.uleb128 0xb
 1660 00df 3A       		.uleb128 0x3a
 1661 00e0 0B       		.uleb128 0xb
 1662 00e1 3B       		.uleb128 0x3b
 1663 00e2 0B       		.uleb128 0xb
 1664 00e3 01       		.uleb128 0x1
 1665 00e4 13       		.uleb128 0x13
 1666 00e5 00       		.byte	0
 1667 00e6 00       		.byte	0
 1668 00e7 14       		.uleb128 0x14
 1669 00e8 28       		.uleb128 0x28
 1670 00e9 00       		.byte	0
 1671 00ea 03       		.uleb128 0x3
 1672 00eb 0E       		.uleb128 0xe
 1673 00ec 1C       		.uleb128 0x1c
 1674 00ed 0D       		.uleb128 0xd
 1675 00ee 00       		.byte	0
 1676 00ef 00       		.byte	0
 1677 00f0 15       		.uleb128 0x15
 1678 00f1 2E       		.uleb128 0x2e
 1679 00f2 01       		.byte	0x1
 1680 00f3 03       		.uleb128 0x3
 1681 00f4 0E       		.uleb128 0xe
 1682 00f5 3A       		.uleb128 0x3a
 1683 00f6 0B       		.uleb128 0xb
 1684 00f7 3B       		.uleb128 0x3b
 1685 00f8 0B       		.uleb128 0xb
 1686 00f9 27       		.uleb128 0x27
 1687 00fa 0C       		.uleb128 0xc
 1688 00fb 49       		.uleb128 0x49
 1689 00fc 13       		.uleb128 0x13
 1690 00fd 11       		.uleb128 0x11
 1691 00fe 01       		.uleb128 0x1
 1692 00ff 12       		.uleb128 0x12
 1693 0100 01       		.uleb128 0x1
 1694 0101 40       		.uleb128 0x40
 1695 0102 06       		.uleb128 0x6
 1696 0103 9742     		.uleb128 0x2117
 1697 0105 0C       		.uleb128 0xc
 1698 0106 01       		.uleb128 0x1
 1699 0107 13       		.uleb128 0x13
 1700 0108 00       		.byte	0
 1701 0109 00       		.byte	0
 1702 010a 16       		.uleb128 0x16
 1703 010b 05       		.uleb128 0x5
ARM GAS  /var/folders/pt/gxfsd_x53tx3h6kb8dkzftl80000gr/T//ccnrF0YR.s 			page 31


 1704 010c 00       		.byte	0
 1705 010d 03       		.uleb128 0x3
 1706 010e 08       		.uleb128 0x8
 1707 010f 3A       		.uleb128 0x3a
 1708 0110 0B       		.uleb128 0xb
 1709 0111 3B       		.uleb128 0x3b
 1710 0112 0B       		.uleb128 0xb
 1711 0113 49       		.uleb128 0x49
 1712 0114 13       		.uleb128 0x13
 1713 0115 02       		.uleb128 0x2
 1714 0116 06       		.uleb128 0x6
 1715 0117 00       		.byte	0
 1716 0118 00       		.byte	0
 1717 0119 17       		.uleb128 0x17
 1718 011a 34       		.uleb128 0x34
 1719 011b 00       		.byte	0
 1720 011c 03       		.uleb128 0x3
 1721 011d 08       		.uleb128 0x8
 1722 011e 3A       		.uleb128 0x3a
 1723 011f 0B       		.uleb128 0xb
 1724 0120 3B       		.uleb128 0x3b
 1725 0121 0B       		.uleb128 0xb
 1726 0122 49       		.uleb128 0x49
 1727 0123 13       		.uleb128 0x13
 1728 0124 02       		.uleb128 0x2
 1729 0125 06       		.uleb128 0x6
 1730 0126 00       		.byte	0
 1731 0127 00       		.byte	0
 1732 0128 18       		.uleb128 0x18
 1733 0129 34       		.uleb128 0x34
 1734 012a 00       		.byte	0
 1735 012b 03       		.uleb128 0x3
 1736 012c 0E       		.uleb128 0xe
 1737 012d 3A       		.uleb128 0x3a
 1738 012e 0B       		.uleb128 0xb
 1739 012f 3B       		.uleb128 0x3b
 1740 0130 0B       		.uleb128 0xb
 1741 0131 49       		.uleb128 0x49
 1742 0132 13       		.uleb128 0x13
 1743 0133 02       		.uleb128 0x2
 1744 0134 06       		.uleb128 0x6
 1745 0135 00       		.byte	0
 1746 0136 00       		.byte	0
 1747 0137 19       		.uleb128 0x19
 1748 0138 34       		.uleb128 0x34
 1749 0139 00       		.byte	0
 1750 013a 03       		.uleb128 0x3
 1751 013b 0E       		.uleb128 0xe
 1752 013c 3A       		.uleb128 0x3a
 1753 013d 0B       		.uleb128 0xb
 1754 013e 3B       		.uleb128 0x3b
 1755 013f 0B       		.uleb128 0xb
 1756 0140 49       		.uleb128 0x49
 1757 0141 13       		.uleb128 0x13
 1758 0142 02       		.uleb128 0x2
 1759 0143 0A       		.uleb128 0xa
 1760 0144 00       		.byte	0
ARM GAS  /var/folders/pt/gxfsd_x53tx3h6kb8dkzftl80000gr/T//ccnrF0YR.s 			page 32


 1761 0145 00       		.byte	0
 1762 0146 1A       		.uleb128 0x1a
 1763 0147 34       		.uleb128 0x34
 1764 0148 00       		.byte	0
 1765 0149 03       		.uleb128 0x3
 1766 014a 0E       		.uleb128 0xe
 1767 014b 3A       		.uleb128 0x3a
 1768 014c 0B       		.uleb128 0xb
 1769 014d 3B       		.uleb128 0x3b
 1770 014e 0B       		.uleb128 0xb
 1771 014f 49       		.uleb128 0x49
 1772 0150 13       		.uleb128 0x13
 1773 0151 1C       		.uleb128 0x1c
 1774 0152 0B       		.uleb128 0xb
 1775 0153 00       		.byte	0
 1776 0154 00       		.byte	0
 1777 0155 1B       		.uleb128 0x1b
 1778 0156 898201   		.uleb128 0x4109
 1779 0159 00       		.byte	0
 1780 015a 11       		.uleb128 0x11
 1781 015b 01       		.uleb128 0x1
 1782 015c 31       		.uleb128 0x31
 1783 015d 13       		.uleb128 0x13
 1784 015e 00       		.byte	0
 1785 015f 00       		.byte	0
 1786 0160 1C       		.uleb128 0x1c
 1787 0161 898201   		.uleb128 0x4109
 1788 0164 01       		.byte	0x1
 1789 0165 11       		.uleb128 0x11
 1790 0166 01       		.uleb128 0x1
 1791 0167 31       		.uleb128 0x31
 1792 0168 13       		.uleb128 0x13
 1793 0169 01       		.uleb128 0x1
 1794 016a 13       		.uleb128 0x13
 1795 016b 00       		.byte	0
 1796 016c 00       		.byte	0
 1797 016d 1D       		.uleb128 0x1d
 1798 016e 8A8201   		.uleb128 0x410a
 1799 0171 00       		.byte	0
 1800 0172 02       		.uleb128 0x2
 1801 0173 0A       		.uleb128 0xa
 1802 0174 9142     		.uleb128 0x2111
 1803 0176 0A       		.uleb128 0xa
 1804 0177 00       		.byte	0
 1805 0178 00       		.byte	0
 1806 0179 1E       		.uleb128 0x1e
 1807 017a 898201   		.uleb128 0x4109
 1808 017d 01       		.byte	0x1
 1809 017e 11       		.uleb128 0x11
 1810 017f 01       		.uleb128 0x1
 1811 0180 31       		.uleb128 0x31
 1812 0181 13       		.uleb128 0x13
 1813 0182 00       		.byte	0
 1814 0183 00       		.byte	0
 1815 0184 1F       		.uleb128 0x1f
 1816 0185 2E       		.uleb128 0x2e
 1817 0186 00       		.byte	0
ARM GAS  /var/folders/pt/gxfsd_x53tx3h6kb8dkzftl80000gr/T//ccnrF0YR.s 			page 33


 1818 0187 3F       		.uleb128 0x3f
 1819 0188 0C       		.uleb128 0xc
 1820 0189 03       		.uleb128 0x3
 1821 018a 0E       		.uleb128 0xe
 1822 018b 3A       		.uleb128 0x3a
 1823 018c 0B       		.uleb128 0xb
 1824 018d 3B       		.uleb128 0x3b
 1825 018e 0B       		.uleb128 0xb
 1826 018f 27       		.uleb128 0x27
 1827 0190 0C       		.uleb128 0xc
 1828 0191 49       		.uleb128 0x49
 1829 0192 13       		.uleb128 0x13
 1830 0193 11       		.uleb128 0x11
 1831 0194 01       		.uleb128 0x1
 1832 0195 12       		.uleb128 0x12
 1833 0196 01       		.uleb128 0x1
 1834 0197 40       		.uleb128 0x40
 1835 0198 0A       		.uleb128 0xa
 1836 0199 9742     		.uleb128 0x2117
 1837 019b 0C       		.uleb128 0xc
 1838 019c 00       		.byte	0
 1839 019d 00       		.byte	0
 1840 019e 20       		.uleb128 0x20
 1841 019f 2E       		.uleb128 0x2e
 1842 01a0 01       		.byte	0x1
 1843 01a1 3F       		.uleb128 0x3f
 1844 01a2 0C       		.uleb128 0xc
 1845 01a3 03       		.uleb128 0x3
 1846 01a4 0E       		.uleb128 0xe
 1847 01a5 3A       		.uleb128 0x3a
 1848 01a6 0B       		.uleb128 0xb
 1849 01a7 3B       		.uleb128 0x3b
 1850 01a8 0B       		.uleb128 0xb
 1851 01a9 27       		.uleb128 0x27
 1852 01aa 0C       		.uleb128 0xc
 1853 01ab 11       		.uleb128 0x11
 1854 01ac 01       		.uleb128 0x1
 1855 01ad 12       		.uleb128 0x12
 1856 01ae 01       		.uleb128 0x1
 1857 01af 40       		.uleb128 0x40
 1858 01b0 06       		.uleb128 0x6
 1859 01b1 9742     		.uleb128 0x2117
 1860 01b3 0C       		.uleb128 0xc
 1861 01b4 01       		.uleb128 0x1
 1862 01b5 13       		.uleb128 0x13
 1863 01b6 00       		.byte	0
 1864 01b7 00       		.byte	0
 1865 01b8 21       		.uleb128 0x21
 1866 01b9 898201   		.uleb128 0x4109
 1867 01bc 00       		.byte	0
 1868 01bd 11       		.uleb128 0x11
 1869 01be 01       		.uleb128 0x1
 1870 01bf 9542     		.uleb128 0x2115
 1871 01c1 0C       		.uleb128 0xc
 1872 01c2 31       		.uleb128 0x31
 1873 01c3 13       		.uleb128 0x13
 1874 01c4 00       		.byte	0
ARM GAS  /var/folders/pt/gxfsd_x53tx3h6kb8dkzftl80000gr/T//ccnrF0YR.s 			page 34


 1875 01c5 00       		.byte	0
 1876 01c6 22       		.uleb128 0x22
 1877 01c7 01       		.uleb128 0x1
 1878 01c8 01       		.byte	0x1
 1879 01c9 49       		.uleb128 0x49
 1880 01ca 13       		.uleb128 0x13
 1881 01cb 01       		.uleb128 0x1
 1882 01cc 13       		.uleb128 0x13
 1883 01cd 00       		.byte	0
 1884 01ce 00       		.byte	0
 1885 01cf 23       		.uleb128 0x23
 1886 01d0 21       		.uleb128 0x21
 1887 01d1 00       		.byte	0
 1888 01d2 49       		.uleb128 0x49
 1889 01d3 13       		.uleb128 0x13
 1890 01d4 2F       		.uleb128 0x2f
 1891 01d5 0B       		.uleb128 0xb
 1892 01d6 00       		.byte	0
 1893 01d7 00       		.byte	0
 1894 01d8 24       		.uleb128 0x24
 1895 01d9 34       		.uleb128 0x34
 1896 01da 00       		.byte	0
 1897 01db 03       		.uleb128 0x3
 1898 01dc 0E       		.uleb128 0xe
 1899 01dd 3A       		.uleb128 0x3a
 1900 01de 0B       		.uleb128 0xb
 1901 01df 3B       		.uleb128 0x3b
 1902 01e0 0B       		.uleb128 0xb
 1903 01e1 49       		.uleb128 0x49
 1904 01e2 13       		.uleb128 0x13
 1905 01e3 3F       		.uleb128 0x3f
 1906 01e4 0C       		.uleb128 0xc
 1907 01e5 3C       		.uleb128 0x3c
 1908 01e6 0C       		.uleb128 0xc
 1909 01e7 00       		.byte	0
 1910 01e8 00       		.byte	0
 1911 01e9 25       		.uleb128 0x25
 1912 01ea 34       		.uleb128 0x34
 1913 01eb 00       		.byte	0
 1914 01ec 03       		.uleb128 0x3
 1915 01ed 0E       		.uleb128 0xe
 1916 01ee 3A       		.uleb128 0x3a
 1917 01ef 0B       		.uleb128 0xb
 1918 01f0 3B       		.uleb128 0x3b
 1919 01f1 05       		.uleb128 0x5
 1920 01f2 49       		.uleb128 0x49
 1921 01f3 13       		.uleb128 0x13
 1922 01f4 3F       		.uleb128 0x3f
 1923 01f5 0C       		.uleb128 0xc
 1924 01f6 3C       		.uleb128 0x3c
 1925 01f7 0C       		.uleb128 0xc
 1926 01f8 00       		.byte	0
 1927 01f9 00       		.byte	0
 1928 01fa 26       		.uleb128 0x26
 1929 01fb 34       		.uleb128 0x34
 1930 01fc 00       		.byte	0
 1931 01fd 03       		.uleb128 0x3
ARM GAS  /var/folders/pt/gxfsd_x53tx3h6kb8dkzftl80000gr/T//ccnrF0YR.s 			page 35


 1932 01fe 0E       		.uleb128 0xe
 1933 01ff 3A       		.uleb128 0x3a
 1934 0200 0B       		.uleb128 0xb
 1935 0201 3B       		.uleb128 0x3b
 1936 0202 0B       		.uleb128 0xb
 1937 0203 49       		.uleb128 0x49
 1938 0204 13       		.uleb128 0x13
 1939 0205 3F       		.uleb128 0x3f
 1940 0206 0C       		.uleb128 0xc
 1941 0207 02       		.uleb128 0x2
 1942 0208 0A       		.uleb128 0xa
 1943 0209 00       		.byte	0
 1944 020a 00       		.byte	0
 1945 020b 27       		.uleb128 0x27
 1946 020c 2E       		.uleb128 0x2e
 1947 020d 01       		.byte	0x1
 1948 020e 3F       		.uleb128 0x3f
 1949 020f 0C       		.uleb128 0xc
 1950 0210 03       		.uleb128 0x3
 1951 0211 0E       		.uleb128 0xe
 1952 0212 3A       		.uleb128 0x3a
 1953 0213 0B       		.uleb128 0xb
 1954 0214 3B       		.uleb128 0x3b
 1955 0215 0B       		.uleb128 0xb
 1956 0216 27       		.uleb128 0x27
 1957 0217 0C       		.uleb128 0xc
 1958 0218 49       		.uleb128 0x49
 1959 0219 13       		.uleb128 0x13
 1960 021a 3C       		.uleb128 0x3c
 1961 021b 0C       		.uleb128 0xc
 1962 021c 01       		.uleb128 0x1
 1963 021d 13       		.uleb128 0x13
 1964 021e 00       		.byte	0
 1965 021f 00       		.byte	0
 1966 0220 28       		.uleb128 0x28
 1967 0221 2E       		.uleb128 0x2e
 1968 0222 01       		.byte	0x1
 1969 0223 3F       		.uleb128 0x3f
 1970 0224 0C       		.uleb128 0xc
 1971 0225 03       		.uleb128 0x3
 1972 0226 0E       		.uleb128 0xe
 1973 0227 3A       		.uleb128 0x3a
 1974 0228 0B       		.uleb128 0xb
 1975 0229 3B       		.uleb128 0x3b
 1976 022a 05       		.uleb128 0x5
 1977 022b 27       		.uleb128 0x27
 1978 022c 0C       		.uleb128 0xc
 1979 022d 3C       		.uleb128 0x3c
 1980 022e 0C       		.uleb128 0xc
 1981 022f 01       		.uleb128 0x1
 1982 0230 13       		.uleb128 0x13
 1983 0231 00       		.byte	0
 1984 0232 00       		.byte	0
 1985 0233 29       		.uleb128 0x29
 1986 0234 2E       		.uleb128 0x2e
 1987 0235 01       		.byte	0x1
 1988 0236 3F       		.uleb128 0x3f
ARM GAS  /var/folders/pt/gxfsd_x53tx3h6kb8dkzftl80000gr/T//ccnrF0YR.s 			page 36


 1989 0237 0C       		.uleb128 0xc
 1990 0238 03       		.uleb128 0x3
 1991 0239 0E       		.uleb128 0xe
 1992 023a 3A       		.uleb128 0x3a
 1993 023b 0B       		.uleb128 0xb
 1994 023c 3B       		.uleb128 0x3b
 1995 023d 05       		.uleb128 0x5
 1996 023e 27       		.uleb128 0x27
 1997 023f 0C       		.uleb128 0xc
 1998 0240 49       		.uleb128 0x49
 1999 0241 13       		.uleb128 0x13
 2000 0242 3C       		.uleb128 0x3c
 2001 0243 0C       		.uleb128 0xc
 2002 0244 01       		.uleb128 0x1
 2003 0245 13       		.uleb128 0x13
 2004 0246 00       		.byte	0
 2005 0247 00       		.byte	0
 2006 0248 2A       		.uleb128 0x2a
 2007 0249 2E       		.uleb128 0x2e
 2008 024a 01       		.byte	0x1
 2009 024b 3F       		.uleb128 0x3f
 2010 024c 0C       		.uleb128 0xc
 2011 024d 03       		.uleb128 0x3
 2012 024e 0E       		.uleb128 0xe
 2013 024f 3A       		.uleb128 0x3a
 2014 0250 0B       		.uleb128 0xb
 2015 0251 3B       		.uleb128 0x3b
 2016 0252 05       		.uleb128 0x5
 2017 0253 27       		.uleb128 0x27
 2018 0254 0C       		.uleb128 0xc
 2019 0255 49       		.uleb128 0x49
 2020 0256 13       		.uleb128 0x13
 2021 0257 3C       		.uleb128 0x3c
 2022 0258 0C       		.uleb128 0xc
 2023 0259 00       		.byte	0
 2024 025a 00       		.byte	0
 2025 025b 00       		.byte	0
 2026              		.section	.debug_loc,"",%progbits
 2027              	.Ldebug_loc0:
 2028              	.LLST0:
 2029 0000 00000000 		.4byte	.LFB63
 2030 0004 04000000 		.4byte	.LCFI0
 2031 0008 0200     		.2byte	0x2
 2032 000a 7D       		.byte	0x7d
 2033 000b 00       		.sleb128 0
 2034 000c 04000000 		.4byte	.LCFI0
 2035 0010 C4000000 		.4byte	.LFE63
 2036 0014 0200     		.2byte	0x2
 2037 0016 7D       		.byte	0x7d
 2038 0017 28       		.sleb128 40
 2039 0018 00000000 		.4byte	0
 2040 001c 00000000 		.4byte	0
 2041              	.LLST1:
 2042 0020 00000000 		.4byte	.LVL0
 2043 0024 18000000 		.4byte	.LVL2
 2044 0028 0100     		.2byte	0x1
 2045 002a 50       		.byte	0x50
ARM GAS  /var/folders/pt/gxfsd_x53tx3h6kb8dkzftl80000gr/T//ccnrF0YR.s 			page 37


 2046 002b 18000000 		.4byte	.LVL2
 2047 002f C4000000 		.4byte	.LFE63
 2048 0033 0400     		.2byte	0x4
 2049 0035 F3       		.byte	0xf3
 2050 0036 01       		.uleb128 0x1
 2051 0037 50       		.byte	0x50
 2052 0038 9F       		.byte	0x9f
 2053 0039 00000000 		.4byte	0
 2054 003d 00000000 		.4byte	0
 2055              	.LLST2:
 2056 0041 12000000 		.4byte	.LVL1
 2057 0045 18000000 		.4byte	.LVL2
 2058 0049 0200     		.2byte	0x2
 2059 004b 30       		.byte	0x30
 2060 004c 9F       		.byte	0x9f
 2061 004d 00000000 		.4byte	0
 2062 0051 00000000 		.4byte	0
 2063              	.LLST3:
 2064 0055 00000000 		.4byte	.LVL0
 2065 0059 18000000 		.4byte	.LVL2
 2066 005d 0200     		.2byte	0x2
 2067 005f 30       		.byte	0x30
 2068 0060 9F       		.byte	0x9f
 2069 0061 24000000 		.4byte	.LVL4
 2070 0065 50000000 		.4byte	.LVL7
 2071 0069 0100     		.2byte	0x1
 2072 006b 55       		.byte	0x55
 2073 006c 00000000 		.4byte	0
 2074 0070 00000000 		.4byte	0
 2075              	.LLST4:
 2076 0074 4A000000 		.4byte	.LVL6
 2077 0078 5E000000 		.4byte	.LVL8
 2078 007c 0100     		.2byte	0x1
 2079 007e 5A       		.byte	0x5a
 2080 007f 00000000 		.4byte	0
 2081 0083 00000000 		.4byte	0
 2082              	.LLST5:
 2083 0087 6C000000 		.4byte	.LVL10
 2084 008b 70000000 		.4byte	.LVL11
 2085 008f 0700     		.2byte	0x7
 2086 0091 70       		.byte	0x70
 2087 0092 00       		.sleb128 0
 2088 0093 40       		.byte	0x40
 2089 0094 24       		.byte	0x24
 2090 0095 40       		.byte	0x40
 2091 0096 26       		.byte	0x26
 2092 0097 9F       		.byte	0x9f
 2093 0098 00000000 		.4byte	0
 2094 009c 00000000 		.4byte	0
 2095              	.LLST6:
 2096 00a0 00000000 		.4byte	.LVL0
 2097 00a4 64000000 		.4byte	.LVL9
 2098 00a8 0200     		.2byte	0x2
 2099 00aa 30       		.byte	0x30
 2100 00ab 9F       		.byte	0x9f
 2101 00ac 84000000 		.4byte	.LVL13
 2102 00b0 AC000000 		.4byte	.LVL17
ARM GAS  /var/folders/pt/gxfsd_x53tx3h6kb8dkzftl80000gr/T//ccnrF0YR.s 			page 38


 2103 00b4 0100     		.2byte	0x1
 2104 00b6 57       		.byte	0x57
 2105 00b7 00000000 		.4byte	0
 2106 00bb 00000000 		.4byte	0
 2107              	.LLST7:
 2108 00bf 72000000 		.4byte	.LVL12
 2109 00c3 94000000 		.4byte	.LVL15
 2110 00c7 0100     		.2byte	0x1
 2111 00c9 50       		.byte	0x50
 2112 00ca 00000000 		.4byte	0
 2113 00ce 00000000 		.4byte	0
 2114              	.LLST8:
 2115 00d2 00000000 		.4byte	.LVL0
 2116 00d6 64000000 		.4byte	.LVL9
 2117 00da 0200     		.2byte	0x2
 2118 00dc 30       		.byte	0x30
 2119 00dd 9F       		.byte	0x9f
 2120 00de 84000000 		.4byte	.LVL13
 2121 00e2 AC000000 		.4byte	.LVL17
 2122 00e6 0100     		.2byte	0x1
 2123 00e8 54       		.byte	0x54
 2124 00e9 00000000 		.4byte	0
 2125 00ed 00000000 		.4byte	0
 2126              	.LLST9:
 2127 00f1 00000000 		.4byte	.LFB65
 2128 00f5 02000000 		.4byte	.LCFI1
 2129 00f9 0200     		.2byte	0x2
 2130 00fb 7D       		.byte	0x7d
 2131 00fc 00       		.sleb128 0
 2132 00fd 02000000 		.4byte	.LCFI1
 2133 0101 08000000 		.4byte	.LCFI2
 2134 0105 0200     		.2byte	0x2
 2135 0107 7D       		.byte	0x7d
 2136 0108 0C       		.sleb128 12
 2137 0109 08000000 		.4byte	.LCFI2
 2138 010d 3C000000 		.4byte	.LFE65
 2139 0111 0200     		.2byte	0x2
 2140 0113 7D       		.byte	0x7d
 2141 0114 18       		.sleb128 24
 2142 0115 00000000 		.4byte	0
 2143 0119 00000000 		.4byte	0
 2144              	.LLST10:
 2145 011d 00000000 		.4byte	.LVL18
 2146 0121 14000000 		.4byte	.LVL19
 2147 0125 0100     		.2byte	0x1
 2148 0127 50       		.byte	0x50
 2149 0128 14000000 		.4byte	.LVL19
 2150 012c 3C000000 		.4byte	.LFE65
 2151 0130 0400     		.2byte	0x4
 2152 0132 F3       		.byte	0xf3
 2153 0133 01       		.uleb128 0x1
 2154 0134 50       		.byte	0x50
 2155 0135 9F       		.byte	0x9f
 2156 0136 00000000 		.4byte	0
 2157 013a 00000000 		.4byte	0
 2158              	.LLST11:
 2159 013e 00000000 		.4byte	.LFB66
ARM GAS  /var/folders/pt/gxfsd_x53tx3h6kb8dkzftl80000gr/T//ccnrF0YR.s 			page 39


 2160 0142 02000000 		.4byte	.LCFI3
 2161 0146 0200     		.2byte	0x2
 2162 0148 7D       		.byte	0x7d
 2163 0149 00       		.sleb128 0
 2164 014a 02000000 		.4byte	.LCFI3
 2165 014e 30000000 		.4byte	.LFE66
 2166 0152 0200     		.2byte	0x2
 2167 0154 7D       		.byte	0x7d
 2168 0155 08       		.sleb128 8
 2169 0156 00000000 		.4byte	0
 2170 015a 00000000 		.4byte	0
 2171              		.section	.debug_aranges,"",%progbits
 2172 0000 34000000 		.4byte	0x34
 2173 0004 0200     		.2byte	0x2
 2174 0006 00000000 		.4byte	.Ldebug_info0
 2175 000a 04       		.byte	0x4
 2176 000b 00       		.byte	0
 2177 000c 0000     		.2byte	0
 2178 000e 0000     		.2byte	0
 2179 0010 00000000 		.4byte	.LFB63
 2180 0014 C4000000 		.4byte	.LFE63-.LFB63
 2181 0018 00000000 		.4byte	.LFB64
 2182 001c 0C000000 		.4byte	.LFE64-.LFB64
 2183 0020 00000000 		.4byte	.LFB65
 2184 0024 3C000000 		.4byte	.LFE65-.LFB65
 2185 0028 00000000 		.4byte	.LFB66
 2186 002c 30000000 		.4byte	.LFE66-.LFB66
 2187 0030 00000000 		.4byte	0
 2188 0034 00000000 		.4byte	0
 2189              		.section	.debug_ranges,"",%progbits
 2190              	.Ldebug_ranges0:
 2191 0000 00000000 		.4byte	.LFB63
 2192 0004 C4000000 		.4byte	.LFE63
 2193 0008 00000000 		.4byte	.LFB64
 2194 000c 0C000000 		.4byte	.LFE64
 2195 0010 00000000 		.4byte	.LFB65
 2196 0014 3C000000 		.4byte	.LFE65
 2197 0018 00000000 		.4byte	.LFB66
 2198 001c 30000000 		.4byte	.LFE66
 2199 0020 00000000 		.4byte	0
 2200 0024 00000000 		.4byte	0
 2201              		.section	.debug_line,"",%progbits
 2202              	.Ldebug_line0:
 2203 0000 D7020000 		.section	.debug_str,"MS",%progbits,1
 2203      02003E02 
 2203      00000201 
 2203      FB0E0D00 
 2203      01010101 
 2204              	.LASF79:
 2205 0000 6B566578 		.ascii	"kVexAnalog_Num\000"
 2205      416E616C 
 2205      6F675F4E 
 2205      756D00
 2206              	.LASF69:
 2207 000f 7466756E 		.ascii	"tfunc_t\000"
 2207      635F7400 
 2208              	.LASF13:
ARM GAS  /var/folders/pt/gxfsd_x53tx3h6kb8dkzftl80000gr/T//ccnrF0YR.s 			page 40


 2209 0017 73697A65 		.ascii	"size_t\000"
 2209      5F7400
 2210              	.LASF65:
 2211 001e 7264796D 		.ascii	"rdymsg\000"
 2211      736700
 2212              	.LASF18:
 2213 0025 75696E74 		.ascii	"uint64_t\000"
 2213      36345F74 
 2213      00
 2214              	.LASF96:
 2215 002e 6B566578 		.ascii	"kVexDigitalOutput\000"
 2215      44696769 
 2215      74616C4F 
 2215      75747075 
 2215      7400
 2216              	.LASF6:
 2217 0040 6C6F6E67 		.ascii	"long long unsigned int\000"
 2217      206C6F6E 
 2217      6720756E 
 2217      7369676E 
 2217      65642069 
 2218              	.LASF94:
 2219 0057 6B566578 		.ascii	"kVexDigital_Num\000"
 2219      44696769 
 2219      74616C5F 
 2219      4E756D00 
 2220              	.LASF120:
 2221 0067 6779726F 		.ascii	"gyroAnalogPin\000"
 2221      416E616C 
 2221      6F675069 
 2221      6E00
 2222              	.LASF122:
 2223 0075 49544D5F 		.ascii	"ITM_RxBuffer\000"
 2223      52784275 
 2223      66666572 
 2223      00
 2224              	.LASF114:
 2225 0082 4779726F 		.ascii	"GyroJitterCycles\000"
 2225      4A697474 
 2225      65724379 
 2225      636C6573 
 2225      00
 2226              	.LASF31:
 2227 0093 705F7072 		.ascii	"p_prio\000"
 2227      696F00
 2228              	.LASF116:
 2229 009a 76657847 		.ascii	"vexGyroReset\000"
 2229      79726F52 
 2229      65736574 
 2229      00
 2230              	.LASF5:
 2231 00a7 6C6F6E67 		.ascii	"long long int\000"
 2231      206C6F6E 
 2231      6720696E 
 2231      7400
 2232              	.LASF1:
 2233 00b5 7369676E 		.ascii	"signed char\000"
ARM GAS  /var/folders/pt/gxfsd_x53tx3h6kb8dkzftl80000gr/T//ccnrF0YR.s 			page 41


 2233      65642063 
 2233      68617200 
 2234              	.LASF47:
 2235 00c1 705F6D70 		.ascii	"p_mpool\000"
 2235      6F6F6C00 
 2236              	.LASF62:
 2237 00c9 6D5F7175 		.ascii	"m_queue\000"
 2237      65756500 
 2238              	.LASF109:
 2239 00d1 4779726F 		.ascii	"GyroSmallBias\000"
 2239      536D616C 
 2239      6C426961 
 2239      7300
 2240              	.LASF67:
 2241 00df 77746F62 		.ascii	"wtobjp\000"
 2241      6A7000
 2242              	.LASF23:
 2243 00e6 74736C69 		.ascii	"tslices_t\000"
 2243      6365735F 
 2243      7400
 2244              	.LASF130:
 2245 00f0 636F6E76 		.ascii	"convex/convex/cortex/opt/vexgyro.c\000"
 2245      65782F63 
 2245      6F6E7665 
 2245      782F636F 
 2245      72746578 
 2246              	.LASF7:
 2247 0113 6C6F6E67 		.ascii	"long int\000"
 2247      20696E74 
 2247      00
 2248              	.LASF21:
 2249 011c 74737461 		.ascii	"tstate_t\000"
 2249      74655F74 
 2249      00
 2250              	.LASF115:
 2251 0125 76657847 		.ascii	"vexGyroInit\000"
 2251      79726F49 
 2251      6E697400 
 2252              	.LASF40:
 2253 0131 705F7469 		.ascii	"p_time\000"
 2253      6D6500
 2254              	.LASF11:
 2255 0138 646F7562 		.ascii	"double\000"
 2255      6C6500
 2256              	.LASF127:
 2257 013f 63685468 		.ascii	"chThdTerminate\000"
 2257      64546572 
 2257      6D696E61 
 2257      746500
 2258              	.LASF33:
 2259 014e 705F6E65 		.ascii	"p_newer\000"
 2259      77657200 
 2260              	.LASF71:
 2261 0156 6B566578 		.ascii	"kVexAnalog_1\000"
 2261      416E616C 
 2261      6F675F31 
 2261      00
ARM GAS  /var/folders/pt/gxfsd_x53tx3h6kb8dkzftl80000gr/T//ccnrF0YR.s 			page 42


 2262              	.LASF72:
 2263 0163 6B566578 		.ascii	"kVexAnalog_2\000"
 2263      416E616C 
 2263      6F675F32 
 2263      00
 2264              	.LASF74:
 2265 0170 6B566578 		.ascii	"kVexAnalog_4\000"
 2265      416E616C 
 2265      6F675F34 
 2265      00
 2266              	.LASF66:
 2267 017d 65786974 		.ascii	"exitcode\000"
 2267      636F6465 
 2267      00
 2268              	.LASF57:
 2269 0186 725F6E65 		.ascii	"r_newer\000"
 2269      77657200 
 2270              	.LASF107:
 2271 018e 4779726F 		.ascii	"GyroBiasAcc\000"
 2271      42696173 
 2271      41636300 
 2272              	.LASF50:
 2273 019a 72656761 		.ascii	"regarm_t\000"
 2273      726D5F74 
 2273      00
 2274              	.LASF105:
 2275 01a3 6B496D65 		.ascii	"kImeTotal\000"
 2275      546F7461 
 2275      6C00
 2276              	.LASF37:
 2277 01ad 705F666C 		.ascii	"p_flags\000"
 2277      61677300 
 2278              	.LASF0:
 2279 01b5 756E7369 		.ascii	"unsigned int\000"
 2279      676E6564 
 2279      20696E74 
 2279      00
 2280              	.LASF133:
 2281 01c2 76657847 		.ascii	"vexGyroGet\000"
 2281      79726F47 
 2281      657400
 2282              	.LASF42:
 2283 01cd 705F6D73 		.ascii	"p_msgqueue\000"
 2283      67717565 
 2283      756500
 2284              	.LASF118:
 2285 01d8 4779726F 		.ascii	"GyroValue\000"
 2285      56616C75 
 2285      6500
 2286              	.LASF124:
 2287 01e2 76657841 		.ascii	"vexAdcGet\000"
 2287      64634765 
 2287      7400
 2288              	.LASF4:
 2289 01ec 73686F72 		.ascii	"short unsigned int\000"
 2289      7420756E 
 2289      7369676E 
ARM GAS  /var/folders/pt/gxfsd_x53tx3h6kb8dkzftl80000gr/T//ccnrF0YR.s 			page 43


 2289      65642069 
 2289      6E7400
 2290              	.LASF25:
 2291 01ff 6D73675F 		.ascii	"msg_t\000"
 2291      7400
 2292              	.LASF110:
 2293 0205 4779726F 		.ascii	"GyroRaw\000"
 2293      52617700 
 2294              	.LASF82:
 2295 020d 6B566578 		.ascii	"kVexDigital_1\000"
 2295      44696769 
 2295      74616C5F 
 2295      3100
 2296              	.LASF83:
 2297 021b 6B566578 		.ascii	"kVexDigital_2\000"
 2297      44696769 
 2297      74616C5F 
 2297      3200
 2298              	.LASF84:
 2299 0229 6B566578 		.ascii	"kVexDigital_3\000"
 2299      44696769 
 2299      74616C5F 
 2299      3300
 2300              	.LASF85:
 2301 0237 6B566578 		.ascii	"kVexDigital_4\000"
 2301      44696769 
 2301      74616C5F 
 2301      3400
 2302              	.LASF86:
 2303 0245 6B566578 		.ascii	"kVexDigital_5\000"
 2303      44696769 
 2303      74616C5F 
 2303      3500
 2304              	.LASF87:
 2305 0253 6B566578 		.ascii	"kVexDigital_6\000"
 2305      44696769 
 2305      74616C5F 
 2305      3600
 2306              	.LASF88:
 2307 0261 6B566578 		.ascii	"kVexDigital_7\000"
 2307      44696769 
 2307      74616C5F 
 2307      3700
 2308              	.LASF89:
 2309 026f 6B566578 		.ascii	"kVexDigital_8\000"
 2309      44696769 
 2309      74616C5F 
 2309      3800
 2310              	.LASF90:
 2311 027d 6B566578 		.ascii	"kVexDigital_9\000"
 2311      44696769 
 2311      74616C5F 
 2311      3900
 2312              	.LASF49:
 2313 028b 54687265 		.ascii	"ThreadsList\000"
 2313      6164734C 
 2313      69737400 
ARM GAS  /var/folders/pt/gxfsd_x53tx3h6kb8dkzftl80000gr/T//ccnrF0YR.s 			page 44


 2314              	.LASF26:
 2315 0297 6576656E 		.ascii	"eventmask_t\000"
 2315      746D6173 
 2315      6B5F7400 
 2316              	.LASF117:
 2317 02a3 77615665 		.ascii	"waVexGyroTask\000"
 2317      78477972 
 2317      6F546173 
 2317      6B00
 2318              	.LASF51:
 2319 02b1 73746B61 		.ascii	"stkalign_t\000"
 2319      6C69676E 
 2319      5F7400
 2320              	.LASF125:
 2321 02bc 63685468 		.ascii	"chThdCreateStatic\000"
 2321      64437265 
 2321      61746553 
 2321      74617469 
 2321      6300
 2322              	.LASF8:
 2323 02ce 73697A65 		.ascii	"sizetype\000"
 2323      74797065 
 2323      00
 2324              	.LASF61:
 2325 02d7 4D757465 		.ascii	"Mutex\000"
 2325      7800
 2326              	.LASF131:
 2327 02dd 2F557365 		.ascii	"/Users/programmer/git/Prototypes/Jaws\000"
 2327      72732F70 
 2327      726F6772 
 2327      616D6D65 
 2327      722F6769 
 2328              	.LASF34:
 2329 0303 705F6F6C 		.ascii	"p_older\000"
 2329      64657200 
 2330              	.LASF56:
 2331 030b 725F6374 		.ascii	"r_ctx\000"
 2331      7800
 2332              	.LASF48:
 2333 0311 54687265 		.ascii	"ThreadsQueue\000"
 2333      61647351 
 2333      75657565 
 2333      00
 2334              	.LASF129:
 2335 031e 474E5520 		.ascii	"GNU C 4.7.2\000"
 2335      4320342E 
 2335      372E3200 
 2336              	.LASF59:
 2337 032a 725F6375 		.ascii	"r_current\000"
 2337      7272656E 
 2337      7400
 2338              	.LASF58:
 2339 0334 725F6F6C 		.ascii	"r_older\000"
 2339      64657200 
 2340              	.LASF81:
 2341 033c 6B566578 		.ascii	"kVexDigital_None\000"
 2341      44696769 
ARM GAS  /var/folders/pt/gxfsd_x53tx3h6kb8dkzftl80000gr/T//ccnrF0YR.s 			page 45


 2341      74616C5F 
 2341      4E6F6E65 
 2341      00
 2342              	.LASF97:
 2343 034d 6B496D65 		.ascii	"kImeChannel_1\000"
 2343      4368616E 
 2343      6E656C5F 
 2343      3100
 2344              	.LASF12:
 2345 035b 666C6F61 		.ascii	"float\000"
 2345      7400
 2346              	.LASF22:
 2347 0361 74726566 		.ascii	"trefs_t\000"
 2347      735F7400 
 2348              	.LASF30:
 2349 0369 705F7072 		.ascii	"p_prev\000"
 2349      657600
 2350              	.LASF24:
 2351 0370 74707269 		.ascii	"tprio_t\000"
 2351      6F5F7400 
 2352              	.LASF19:
 2353 0378 5F426F6F 		.ascii	"_Bool\000"
 2353      6C00
 2354              	.LASF16:
 2355 037e 696E7433 		.ascii	"int32_t\000"
 2355      325F7400 
 2356              	.LASF2:
 2357 0386 756E7369 		.ascii	"unsigned char\000"
 2357      676E6564 
 2357      20636861 
 2357      7200
 2358              	.LASF132:
 2359 0394 76657847 		.ascii	"vexGyroTask\000"
 2359      79726F54 
 2359      61736B00 
 2360              	.LASF45:
 2361 03a0 705F6D74 		.ascii	"p_mtxlist\000"
 2361      786C6973 
 2361      7400
 2362              	.LASF3:
 2363 03aa 73686F72 		.ascii	"short int\000"
 2363      7420696E 
 2363      7400
 2364              	.LASF36:
 2365 03b4 705F7374 		.ascii	"p_state\000"
 2365      61746500 
 2366              	.LASF39:
 2367 03bc 705F7072 		.ascii	"p_preempt\000"
 2367      65656D70 
 2367      7400
 2368              	.LASF55:
 2369 03c6 725F7072 		.ascii	"r_prio\000"
 2369      696F00
 2370              	.LASF68:
 2371 03cd 65776D61 		.ascii	"ewmask\000"
 2371      736B00
 2372              	.LASF29:
ARM GAS  /var/folders/pt/gxfsd_x53tx3h6kb8dkzftl80000gr/T//ccnrF0YR.s 			page 46


 2373 03d4 705F6E65 		.ascii	"p_next\000"
 2373      787400
 2374              	.LASF73:
 2375 03db 6B566578 		.ascii	"kVexAnalog_3\000"
 2375      416E616C 
 2375      6F675F33 
 2375      00
 2376              	.LASF113:
 2377 03e8 4779726F 		.ascii	"GyroSensorScale\000"
 2377      53656E73 
 2377      6F725363 
 2377      616C6500 
 2378              	.LASF108:
 2379 03f8 4779726F 		.ascii	"GyroBias\000"
 2379      42696173 
 2379      00
 2380              	.LASF76:
 2381 0401 6B566578 		.ascii	"kVexAnalog_6\000"
 2381      416E616C 
 2381      6F675F36 
 2381      00
 2382              	.LASF77:
 2383 040e 6B566578 		.ascii	"kVexAnalog_7\000"
 2383      416E616C 
 2383      6F675F37 
 2383      00
 2384              	.LASF78:
 2385 041b 6B566578 		.ascii	"kVexAnalog_8\000"
 2385      416E616C 
 2385      6F675F38 
 2385      00
 2386              	.LASF28:
 2387 0428 54687265 		.ascii	"Thread\000"
 2387      616400
 2388              	.LASF44:
 2389 042f 705F6570 		.ascii	"p_epending\000"
 2389      656E6469 
 2389      6E6700
 2390              	.LASF126:
 2391 043a 63685468 		.ascii	"chThdSleep\000"
 2391      64536C65 
 2391      657000
 2392              	.LASF17:
 2393 0445 75696E74 		.ascii	"uint32_t\000"
 2393      33325F74 
 2393      00
 2394              	.LASF54:
 2395 044e 725F7175 		.ascii	"r_queue\000"
 2395      65756500 
 2396              	.LASF9:
 2397 0456 6C6F6E67 		.ascii	"long unsigned int\000"
 2397      20756E73 
 2397      69676E65 
 2397      6420696E 
 2397      7400
 2398              	.LASF10:
 2399 0468 63686172 		.ascii	"char\000"
ARM GAS  /var/folders/pt/gxfsd_x53tx3h6kb8dkzftl80000gr/T//ccnrF0YR.s 			page 47


 2399      00
 2400              	.LASF98:
 2401 046d 6B496D65 		.ascii	"kImeChannel_2\000"
 2401      4368616E 
 2401      6E656C5F 
 2401      3200
 2402              	.LASF99:
 2403 047b 6B496D65 		.ascii	"kImeChannel_3\000"
 2403      4368616E 
 2403      6E656C5F 
 2403      3300
 2404              	.LASF100:
 2405 0489 6B496D65 		.ascii	"kImeChannel_4\000"
 2405      4368616E 
 2405      6E656C5F 
 2405      3400
 2406              	.LASF101:
 2407 0497 6B496D65 		.ascii	"kImeChannel_5\000"
 2407      4368616E 
 2407      6E656C5F 
 2407      3500
 2408              	.LASF102:
 2409 04a5 6B496D65 		.ascii	"kImeChannel_6\000"
 2409      4368616E 
 2409      6E656C5F 
 2409      3600
 2410              	.LASF103:
 2411 04b3 6B496D65 		.ascii	"kImeChannel_7\000"
 2411      4368616E 
 2411      6E656C5F 
 2411      3700
 2412              	.LASF104:
 2413 04c1 6B496D65 		.ascii	"kImeChannel_8\000"
 2413      4368616E 
 2413      6E656C5F 
 2413      3800
 2414              	.LASF91:
 2415 04cf 6B566578 		.ascii	"kVexDigital_10\000"
 2415      44696769 
 2415      74616C5F 
 2415      313000
 2416              	.LASF92:
 2417 04de 6B566578 		.ascii	"kVexDigital_11\000"
 2417      44696769 
 2417      74616C5F 
 2417      313100
 2418              	.LASF93:
 2419 04ed 6B566578 		.ascii	"kVexDigital_12\000"
 2419      44696769 
 2419      74616C5F 
 2419      313200
 2420              	.LASF64:
 2421 04fc 6D5F6E65 		.ascii	"m_next\000"
 2421      787400
 2422              	.LASF27:
 2423 0503 73797374 		.ascii	"systime_t\000"
 2423      696D655F 
ARM GAS  /var/folders/pt/gxfsd_x53tx3h6kb8dkzftl80000gr/T//ccnrF0YR.s 			page 48


 2423      7400
 2424              	.LASF46:
 2425 050d 705F7265 		.ascii	"p_realprio\000"
 2425      616C7072 
 2425      696F00
 2426              	.LASF123:
 2427 0518 4779726F 		.ascii	"GyroJitterRange\000"
 2427      4A697474 
 2427      65725261 
 2427      6E676500 
 2428              	.LASF53:
 2429 0528 636F6E74 		.ascii	"context\000"
 2429      65787400 
 2430              	.LASF119:
 2431 0530 6779726F 		.ascii	"gyroThread\000"
 2431      54687265 
 2431      616400
 2432              	.LASF52:
 2433 053b 696E7463 		.ascii	"intctx\000"
 2433      747800
 2434              	.LASF75:
 2435 0542 6B566578 		.ascii	"kVexAnalog_5\000"
 2435      416E616C 
 2435      6F675F35 
 2435      00
 2436              	.LASF128:
 2437 054f 63685468 		.ascii	"chThdWait\000"
 2437      64576169 
 2437      7400
 2438              	.LASF80:
 2439 0559 74566578 		.ascii	"tVexAnalogPin\000"
 2439      416E616C 
 2439      6F675069 
 2439      6E00
 2440              	.LASF38:
 2441 0567 705F7265 		.ascii	"p_refs\000"
 2441      667300
 2442              	.LASF112:
 2443 056e 4779726F 		.ascii	"GyroDelta\000"
 2443      44656C74 
 2443      6100
 2444              	.LASF60:
 2445 0578 52656164 		.ascii	"ReadyList\000"
 2445      794C6973 
 2445      7400
 2446              	.LASF121:
 2447 0582 726C6973 		.ascii	"rlist\000"
 2447      7400
 2448              	.LASF106:
 2449 0588 6B496D65 		.ascii	"kImeChannelNone\000"
 2449      4368616E 
 2449      6E656C4E 
 2449      6F6E6500 
 2450              	.LASF14:
 2451 0598 75696E74 		.ascii	"uint8_t\000"
 2451      385F7400 
 2452              	.LASF70:
ARM GAS  /var/folders/pt/gxfsd_x53tx3h6kb8dkzftl80000gr/T//ccnrF0YR.s 			page 49


 2453 05a0 6B566578 		.ascii	"kVexAnalog_None\000"
 2453      416E616C 
 2453      6F675F4E 
 2453      6F6E6500 
 2454              	.LASF35:
 2455 05b0 705F6E61 		.ascii	"p_name\000"
 2455      6D6500
 2456              	.LASF20:
 2457 05b7 746D6F64 		.ascii	"tmode_t\000"
 2457      655F7400 
 2458              	.LASF43:
 2459 05bf 705F6D73 		.ascii	"p_msg\000"
 2459      6700
 2460              	.LASF15:
 2461 05c5 696E7431 		.ascii	"int16_t\000"
 2461      365F7400 
 2462              	.LASF111:
 2463 05cd 4779726F 		.ascii	"GyroRawFiltered\000"
 2463      52617746 
 2463      696C7465 
 2463      72656400 
 2464              	.LASF63:
 2465 05dd 6D5F6F77 		.ascii	"m_owner\000"
 2465      6E657200 
 2466              	.LASF32:
 2467 05e5 705F6374 		.ascii	"p_ctx\000"
 2467      7800
 2468              	.LASF41:
 2469 05eb 705F7761 		.ascii	"p_waiting\000"
 2469      6974696E 
 2469      6700
 2470              	.LASF95:
 2471 05f5 6B566578 		.ascii	"kVexDigitalInput\000"
 2471      44696769 
 2471      74616C49 
 2471      6E707574 
 2471      00
 2472              		.ident	"GCC: (GNU) 4.7.2"
ARM GAS  /var/folders/pt/gxfsd_x53tx3h6kb8dkzftl80000gr/T//ccnrF0YR.s 			page 50


DEFINED SYMBOLS
                            *ABS*:0000000000000000 vexgyro.c
/var/folders/pt/gxfsd_x53tx3h6kb8dkzftl80000gr/T//ccnrF0YR.s:19     .text.vexGyroTask:0000000000000000 $t
/var/folders/pt/gxfsd_x53tx3h6kb8dkzftl80000gr/T//ccnrF0YR.s:24     .text.vexGyroTask:0000000000000000 vexGyroTask
/var/folders/pt/gxfsd_x53tx3h6kb8dkzftl80000gr/T//ccnrF0YR.s:162    .text.vexGyroTask:00000000000000b4 $d
/var/folders/pt/gxfsd_x53tx3h6kb8dkzftl80000gr/T//ccnrF0YR.s:170    .text.vexGyroGet:0000000000000000 $t
/var/folders/pt/gxfsd_x53tx3h6kb8dkzftl80000gr/T//ccnrF0YR.s:176    .text.vexGyroGet:0000000000000000 vexGyroGet
/var/folders/pt/gxfsd_x53tx3h6kb8dkzftl80000gr/T//ccnrF0YR.s:325    .bss.GyroValue:0000000000000000 .LANCHOR1
/var/folders/pt/gxfsd_x53tx3h6kb8dkzftl80000gr/T//ccnrF0YR.s:193    .text.vexGyroInit:0000000000000000 $t
/var/folders/pt/gxfsd_x53tx3h6kb8dkzftl80000gr/T//ccnrF0YR.s:199    .text.vexGyroInit:0000000000000000 vexGyroInit
/var/folders/pt/gxfsd_x53tx3h6kb8dkzftl80000gr/T//ccnrF0YR.s:248    .text.vexGyroInit:000000000000002c $d
/var/folders/pt/gxfsd_x53tx3h6kb8dkzftl80000gr/T//ccnrF0YR.s:256    .text.vexGyroReset:0000000000000000 $t
/var/folders/pt/gxfsd_x53tx3h6kb8dkzftl80000gr/T//ccnrF0YR.s:262    .text.vexGyroReset:0000000000000000 vexGyroReset
/var/folders/pt/gxfsd_x53tx3h6kb8dkzftl80000gr/T//ccnrF0YR.s:300    .text.vexGyroReset:0000000000000028 $d
/var/folders/pt/gxfsd_x53tx3h6kb8dkzftl80000gr/T//ccnrF0YR.s:317    .rodata.GyroJitterRange:0000000000000000 GyroJitterRange
/var/folders/pt/gxfsd_x53tx3h6kb8dkzftl80000gr/T//ccnrF0YR.s:307    .bss.gyroThread:0000000000000000 $d
/var/folders/pt/gxfsd_x53tx3h6kb8dkzftl80000gr/T//ccnrF0YR.s:311    .bss.gyroThread:0000000000000000 gyroThread
/var/folders/pt/gxfsd_x53tx3h6kb8dkzftl80000gr/T//ccnrF0YR.s:314    .rodata.GyroJitterRange:0000000000000000 $d
/var/folders/pt/gxfsd_x53tx3h6kb8dkzftl80000gr/T//ccnrF0YR.s:320    .rodata.str1.4:0000000000000000 $d
/var/folders/pt/gxfsd_x53tx3h6kb8dkzftl80000gr/T//ccnrF0YR.s:324    .bss.GyroValue:0000000000000000 $d
/var/folders/pt/gxfsd_x53tx3h6kb8dkzftl80000gr/T//ccnrF0YR.s:328    .bss.GyroValue:0000000000000000 GyroValue
/var/folders/pt/gxfsd_x53tx3h6kb8dkzftl80000gr/T//ccnrF0YR.s:331    .bss.waVexGyroTask:0000000000000000 $d
/var/folders/pt/gxfsd_x53tx3h6kb8dkzftl80000gr/T//ccnrF0YR.s:335    .bss.waVexGyroTask:0000000000000000 waVexGyroTask
/var/folders/pt/gxfsd_x53tx3h6kb8dkzftl80000gr/T//ccnrF0YR.s:341    .bss.gyroAnalogPin:0000000000000000 gyroAnalogPin
/var/folders/pt/gxfsd_x53tx3h6kb8dkzftl80000gr/T//ccnrF0YR.s:342    .bss.gyroAnalogPin:0000000000000000 $d
                     .debug_frame:0000000000000010 $d
/var/folders/pt/gxfsd_x53tx3h6kb8dkzftl80000gr/T//ccnrF0YR.s:169    .text.vexGyroTask:00000000000000c4 $t
/var/folders/pt/gxfsd_x53tx3h6kb8dkzftl80000gr/T//ccnrF0YR.s:255    .text.vexGyroInit:000000000000003c $t

UNDEFINED SYMBOLS
vexAdcGet
chThdSleep
rlist
chThdCreateStatic
chThdTerminate
chThdWait
