ARM GAS  /var/folders/pt/gxfsd_x53tx3h6kb8dkzftl80000gr/T//ccnrF0YR.s 			page 1


   1              		.syntax unified
   2              		.cpu cortex-m3
   3              		.fpu softvfp
   4              		.eabi_attribute 20, 1
   5              		.eabi_attribute 21, 1
   6              		.eabi_attribute 23, 3
   7              		.eabi_attribute 24, 1
   8              		.eabi_attribute 25, 1
   9              		.eabi_attribute 26, 1
  10              		.eabi_attribute 30, 2
  11              		.eabi_attribute 34, 1
  12              		.eabi_attribute 18, 4
  13              		.thumb
  14              		.file	"vexgyro.c"
  15              		.text
  16              	.Ltext0:
  17              		.cfi_sections	.debug_frame
  18              		.section	.text.vexGyroTask,"ax",%progbits
  19              		.align	2
  20              		.p2align 4,,15
  21              		.thumb
  22              		.thumb_func
  23              		.type	vexGyroTask, %function
  24              	vexGyroTask:
  25              	.LFB63:
  26              		.file 1 "convex/convex/cortex/opt/vexgyro.c"
  27              		.loc 1 78 0
  28              		.cfi_startproc
  29              		@ args = 0, pretend = 0, frame = 0
  30              		@ frame_needed = 0, uses_anonymous_args = 0
  31              	.LVL0:
  32 0000 2DE9F84F 		push	{r3, r4, r5, r6, r7, r8, r9, sl, fp, lr}
  33              	.LCFI0:
  34              		.cfi_def_cfa_offset 40
  35              		.cfi_offset 3, -40
  36              		.cfi_offset 4, -36
  37              		.cfi_offset 5, -32
  38              		.cfi_offset 6, -28
  39              		.cfi_offset 7, -24
  40              		.cfi_offset 8, -20
  41              		.cfi_offset 9, -16
  42              		.cfi_offset 10, -12
  43              		.cfi_offset 11, -8
  44              		.cfi_offset 14, -4
  45              		.loc 1 91 0
  46 0004 DFF8B480 		ldr	r8, .L14+8
  47 0008 2A4A     		ldr	r2, .L14
  48 000a D8F81830 		ldr	r3, [r8, #24]
  49 000e 2A4E     		ldr	r6, .L14+4
  50 0010 9A61     		str	r2, [r3, #24]
  51              	.LVL1:
  52 0012 4FF48064 		mov	r4, #1024
  53              		.loc 1 80 0
  54 0016 0025     		movs	r5, #0
  55              	.LVL2:
  56              	.L2:
  57              		.loc 1 96 0 discriminator 2
ARM GAS  /var/folders/pt/gxfsd_x53tx3h6kb8dkzftl80000gr/T//ccnrF0YR.s 			page 2


  58 0018 96F90000 		ldrsb	r0, [r6, #0]
  59 001c FFF7FEFF 		bl	vexAdcGet
  60              	.LVL3:
  61 0020 013C     		subs	r4, r4, #1
  62 0022 2D18     		adds	r5, r5, r0
  63              	.LVL4:
  64 0024 A4B2     		uxth	r4, r4
  65              		.loc 1 97 0 discriminator 2
  66 0026 0120     		movs	r0, #1
  67 0028 FFF7FEFF 		bl	chThdSleep
  68              	.LVL5:
  69              		.loc 1 94 0 discriminator 2
  70 002c 002C     		cmp	r4, #0
  71 002e F3D1     		bne	.L2
  72              		.loc 1 104 0
  73 0030 D8F81830 		ldr	r3, [r8, #24]
  74              		.loc 1 100 0
  75 0034 05F2FF3A 		addw	sl, r5, #1023
  76              		.loc 1 104 0
  77 0038 5B7F     		ldrb	r3, [r3, #29]	@ zero_extendqisi2
  78              		.loc 1 100 0
  79 003a 1AEA250A 		ands	sl, sl, r5, asr #32
  80 003e 38BF     		it	cc
  81 0040 AA46     		movcc	sl, r5
  82              		.loc 1 104 0
  83 0042 03F00403 		and	r3, r3, #4
  84              		.loc 1 100 0
  85 0046 4FEAAA2A 		asr	sl, sl, #10
  86              	.LVL6:
  87              		.loc 1 104 0
  88 004a DBB2     		uxtb	r3, r3
  89              		.loc 1 101 0
  90 004c A5EB8A25 		sub	r5, r5, sl, lsl #10
  91              	.LVL7:
  92              		.loc 1 104 0
  93 0050 63BB     		cbnz	r3, .L12
  94              		.loc 1 123 0
  95 0052 4EF27F09 		movw	r9, #57471
  96 0056 DFF868B0 		ldr	fp, .L14+12
  97 005a 1FFA8AFA 		uxth	sl, sl
  98              	.LVL8:
  99              		.loc 1 84 0
 100 005e 2746     		mov	r7, r4
 101              		.loc 1 123 0
 102 0060 C7F60769 		movt	r9, 32263
 103              	.LVL9:
 104              	.L5:
 105              		.loc 1 107 0
 106 0064 96F90000 		ldrsb	r0, [r6, #0]
 107 0068 FFF7FEFF 		bl	vexAdcGet
 108              	.LVL10:
 109              		.loc 1 109 0
 110 006c CAEB0000 		rsb	r0, sl, r0
 111              	.LVL11:
 112 0070 83B2     		uxth	r3, r0
 113              	.LVL12:
 114              		.loc 1 112 0
ARM GAS  /var/folders/pt/gxfsd_x53tx3h6kb8dkzftl80000gr/T//ccnrF0YR.s 			page 3


 115 0072 1A1D     		adds	r2, r3, #4
 116 0074 92B2     		uxth	r2, r2
 117 0076 082A     		cmp	r2, #8
 118 0078 06D9     		bls	.L4
 119              		.loc 1 118 0
 120 007a 0134     		adds	r4, r4, #1
 121 007c A205     		lsls	r2, r4, #22
 122              		.loc 1 115 0
 123 007e 1BB2     		sxth	r3, r3
 124              		.loc 1 118 0
 125 0080 920D     		lsrs	r2, r2, #22
 126              		.loc 1 115 0
 127 0082 FF18     		adds	r7, r7, r3
 128              	.LVL13:
 129              		.loc 1 118 0
 130 0084 02B9     		cbnz	r2, .L4
 131              		.loc 1 119 0
 132 0086 7F1B     		subs	r7, r7, r5
 133              	.LVL14:
 134              	.L4:
 135              		.loc 1 123 0
 136 0088 89FB0732 		smull	r3, r2, r9, r7
 137 008c FB17     		asrs	r3, r7, #31
 138 008e C3EBA213 		rsb	r3, r3, r2, asr #6
 139              		.loc 1 126 0
 140 0092 0120     		movs	r0, #1
 141              	.LVL15:
 142              		.loc 1 123 0
 143 0094 CBF80030 		str	r3, [fp, #0]
 144              		.loc 1 126 0
 145 0098 FFF7FEFF 		bl	chThdSleep
 146              	.LVL16:
 147              		.loc 1 104 0
 148 009c D8F81830 		ldr	r3, [r8, #24]
 149 00a0 5B7F     		ldrb	r3, [r3, #29]	@ zero_extendqisi2
 150 00a2 03F00403 		and	r3, r3, #4
 151 00a6 DBB2     		uxtb	r3, r3
 152 00a8 002B     		cmp	r3, #0
 153 00aa DBD0     		beq	.L5
 154              	.LVL17:
 155              	.L12:
 156              		.loc 1 130 0
 157 00ac 0020     		movs	r0, #0
 158 00ae BDE8F88F 		pop	{r3, r4, r5, r6, r7, r8, r9, sl, fp, pc}
 159              	.L15:
 160 00b2 00BF     		.align	2
 161              	.L14:
 162 00b4 00000000 		.word	.LC0
 163 00b8 00000000 		.word	.LANCHOR0
 164 00bc 00000000 		.word	rlist
 165 00c0 00000000 		.word	.LANCHOR1
 166              		.cfi_endproc
 167              	.LFE63:
 168              		.size	vexGyroTask, .-vexGyroTask
 169 00c4 AFF30080 		.section	.text.vexGyroGet,"ax",%progbits
 169      AFF30080 
 169      AFF30080 
ARM GAS  /var/folders/pt/gxfsd_x53tx3h6kb8dkzftl80000gr/T//ccnrF0YR.s 			page 4


 170              		.align	2
 171              		.p2align 4,,15
 172              		.global	vexGyroGet
 173              		.thumb
 174              		.thumb_func
 175              		.type	vexGyroGet, %function
 176              	vexGyroGet:
 177              	.LFB64:
 178              		.loc 1 139 0
 179              		.cfi_startproc
 180              		@ args = 0, pretend = 0, frame = 0
 181              		@ frame_needed = 0, uses_anonymous_args = 0
 182              		@ link register save eliminated.
 183              		.loc 1 140 0
 184 0000 40F20003 		movw	r3, #:lower16:.LANCHOR1
 185 0004 C0F20003 		movt	r3, #:upper16:.LANCHOR1
 186              		.loc 1 141 0
 187 0008 1868     		ldr	r0, [r3, #0]
 188 000a 7047     		bx	lr
 189              		.cfi_endproc
 190              	.LFE64:
 191              		.size	vexGyroGet, .-vexGyroGet
 192 000c AFF30080 		.section	.text.vexGyroInit,"ax",%progbits
 193              		.align	2
 194              		.p2align 4,,15
 195              		.global	vexGyroInit
 196              		.thumb
 197              		.thumb_func
 198              		.type	vexGyroInit, %function
 199              	vexGyroInit:
 200              	.LFB65:
 201              		.loc 1 149 0
 202              		.cfi_startproc
 203              		@ args = 0, pretend = 0, frame = 0
 204              		@ frame_needed = 0, uses_anonymous_args = 0
 205              	.LVL18:
 206 0000 30B5     		push	{r4, r5, lr}
 207              	.LCFI1:
 208              		.cfi_def_cfa_offset 12
 209              		.cfi_offset 4, -12
 210              		.cfi_offset 5, -8
 211              		.cfi_offset 14, -4
 212              		.loc 1 150 0
 213 0002 C3B2     		uxtb	r3, r0
 214 0004 072B     		cmp	r3, #7
 215              		.loc 1 149 0
 216 0006 83B0     		sub	sp, sp, #12
 217              	.LCFI2:
 218              		.cfi_def_cfa_offset 24
 219              		.loc 1 149 0
 220 0008 0446     		mov	r4, r0
 221              		.loc 1 150 0
 222 000a 0CD8     		bhi	.L17
 223              		.loc 1 155 0
 224 000c 0023     		movs	r3, #0
 225              		.loc 1 153 0
 226 000e 074D     		ldr	r5, .L19
ARM GAS  /var/folders/pt/gxfsd_x53tx3h6kb8dkzftl80000gr/T//ccnrF0YR.s 			page 5


 227              		.loc 1 155 0
 228 0010 0093     		str	r3, [sp, #0]
 229 0012 0748     		ldr	r0, .L19+4
 230              	.LVL19:
 231 0014 074B     		ldr	r3, .L19+8
 232 0016 4FF42C71 		mov	r1, #688
 233 001a 4122     		movs	r2, #65
 234              		.loc 1 153 0
 235 001c 2C70     		strb	r4, [r5, #0]
 236              		.loc 1 155 0
 237 001e FFF7FEFF 		bl	chThdCreateStatic
 238              	.LVL20:
 239 0022 054B     		ldr	r3, .L19+12
 240 0024 1860     		str	r0, [r3, #0]
 241              	.L17:
 242              		.loc 1 156 0
 243 0026 03B0     		add	sp, sp, #12
 244 0028 30BD     		pop	{r4, r5, pc}
 245              	.L20:
 246 002a 00BF     		.align	2
 247              	.L19:
 248 002c 00000000 		.word	.LANCHOR0
 249 0030 00000000 		.word	.LANCHOR2
 250 0034 00000000 		.word	vexGyroTask
 251 0038 00000000 		.word	.LANCHOR3
 252              		.cfi_endproc
 253              	.LFE65:
 254              		.size	vexGyroInit, .-vexGyroInit
 255 003c AFF30080 		.section	.text.vexGyroReset,"ax",%progbits
 256              		.align	2
 257              		.p2align 4,,15
 258              		.global	vexGyroReset
 259              		.thumb
 260              		.thumb_func
 261              		.type	vexGyroReset, %function
 262              	vexGyroReset:
 263              	.LFB66:
 264              		.loc 1 164 0
 265              		.cfi_startproc
 266              		@ args = 0, pretend = 0, frame = 0
 267              		@ frame_needed = 0, uses_anonymous_args = 0
 268 0000 10B5     		push	{r4, lr}
 269              	.LCFI3:
 270              		.cfi_def_cfa_offset 8
 271              		.cfi_offset 4, -8
 272              		.cfi_offset 14, -4
 273              		.loc 1 165 0
 274 0002 094C     		ldr	r4, .L23
 275 0004 2068     		ldr	r0, [r4, #0]
 276 0006 68B1     		cbz	r0, .L21
 277              		.loc 1 168 0
 278 0008 FFF7FEFF 		bl	chThdTerminate
 279              	.LVL21:
 280              		.loc 1 170 0
 281 000c 2068     		ldr	r0, [r4, #0]
 282 000e FFF7FEFF 		bl	chThdWait
 283              	.LVL22:
ARM GAS  /var/folders/pt/gxfsd_x53tx3h6kb8dkzftl80000gr/T//ccnrF0YR.s 			page 6


 284              		.loc 1 174 0
 285 0012 064B     		ldr	r3, .L23+4
 286 0014 93F90000 		ldrsb	r0, [r3, #0]
 287              		.loc 1 173 0
 288 0018 0023     		movs	r3, #0
 289 001a 2360     		str	r3, [r4, #0]
 290              		.loc 1 176 0
 291 001c BDE81040 		pop	{r4, lr}
 292              		.loc 1 174 0
 293 0020 FFF7FEBF 		b	vexGyroInit
 294              	.LVL23:
 295              	.L21:
 296 0024 10BD     		pop	{r4, pc}
 297              	.L24:
 298 0026 00BF     		.align	2
 299              	.L23:
 300 0028 00000000 		.word	.LANCHOR3
 301 002c 00000000 		.word	.LANCHOR0
 302              		.cfi_endproc
 303              	.LFE66:
 304              		.size	vexGyroReset, .-vexGyroReset
 305              		.global	GyroJitterRange
 306              		.section	.bss.gyroThread,"aw",%nobits
 307              		.align	2
 308              		.set	.LANCHOR3,. + 0
 309              		.type	gyroThread, %object
 310              		.size	gyroThread, 4
 311              	gyroThread:
 312 0000 00000000 		.space	4
 313              		.section	.rodata.GyroJitterRange,"a",%progbits
 314              		.align	2
 315              		.type	GyroJitterRange, %object
 316              		.size	GyroJitterRange, 4
 317              	GyroJitterRange:
 318 0000 04000000 		.word	4
 319              		.section	.rodata.str1.4,"aMS",%progbits,1
 320              		.align	2
 321              	.LC0:
 322 0000 6779726F 		.ascii	"gyro\000"
 322      00
 323 0005 000000   		.section	.bss.GyroValue,"aw",%nobits
 324              		.align	2
 325              		.set	.LANCHOR1,. + 0
 326              		.type	GyroValue, %object
 327              		.size	GyroValue, 4
 328              	GyroValue:
 329 0000 00000000 		.space	4
 330              		.section	.bss.waVexGyroTask,"aw",%nobits
 331              		.align	3
 332              		.set	.LANCHOR2,. + 0
 333              		.type	waVexGyroTask, %object
 334              		.size	waVexGyroTask, 688
 335              	waVexGyroTask:
 336 0000 00000000 		.space	688
 336      00000000 
 336      00000000 
 336      00000000 
ARM GAS  /var/folders/pt/gxfsd_x53tx3h6kb8dkzftl80000gr/T//ccnrF0YR.s 			page 7


 336      00000000 
 337              		.section	.bss.gyroAnalogPin,"aw",%nobits
 338              		.set	.LANCHOR0,. + 0
 339              		.type	gyroAnalogPin, %object
 340              		.size	gyroAnalogPin, 1
 341              	gyroAnalogPin:
 342 0000 00       		.space	1
 343              		.text
 344              	.Letext0:
 345              		.file 2 "/Users/programmer/ConVEX/yagarto-4.7.2/bin/../lib/gcc/arm-none-eabi/4.7.2/include/stddef.
 346              		.file 3 "/Users/programmer/ConVEX/yagarto-4.7.2/bin/../lib/gcc/arm-none-eabi/4.7.2/../../../../arm
 347              		.file 4 "convex/ChibiOS_2.6.2/os/ports/GCC/ARMCMx/chtypes.h"
 348              		.file 5 "convex/ChibiOS_2.6.2/os/kernel/include/chlists.h"
 349              		.file 6 "convex/ChibiOS_2.6.2/os/kernel/include/chthreads.h"
 350              		.file 7 "convex/ChibiOS_2.6.2/os/ports/GCC/ARMCMx/chcore_v7m.h"
 351              		.file 8 "convex/ChibiOS_2.6.2/os/kernel/include/chschd.h"
 352              		.file 9 "convex/ChibiOS_2.6.2/os/kernel/include/chmtx.h"
 353              		.file 10 "convex/convex/cortex/fw/vexanalog.h"
 354              		.file 11 "convex/convex/cortex/fw/vexdigital.h"
 355              		.file 12 "convex/convex/cortex/fw/vexime.h"
 356              		.file 13 "convex/ChibiOS_2.6.2/os/ports/common/ARMCMx/CMSIS/include/core_cm3.h"