ARM GAS  /var/folders/pt/gxfsd_x53tx3h6kb8dkzftl80000gr/T//ccxqPL1I.s 			page 1


   1              		.syntax unified
   2              		.cpu cortex-m3
   3              		.fpu softvfp
   4              		.eabi_attribute 20, 1
   5              		.eabi_attribute 21, 1
   6              		.eabi_attribute 23, 3
   7              		.eabi_attribute 24, 1
   8              		.eabi_attribute 25, 1
   9              		.eabi_attribute 26, 1
  10              		.eabi_attribute 30, 2
  11              		.eabi_attribute 34, 1
  12              		.eabi_attribute 18, 4
  13              		.thumb
  14              		.file	"vexime.c"
  15              		.text
  16              	.Ltext0:
  17              		.cfi_sections	.debug_frame
  18              		.section	.text.vexImeGetCount,"ax",%progbits
  19              		.align	2
  20              		.p2align 4,,15
  21              		.global	vexImeGetCount
  22              		.thumb
  23              		.thumb_func
  24              		.type	vexImeGetCount, %function
  25              	vexImeGetCount:
  26              	.LFB63:
  27              		.file 1 "convex/convex/cortex/fw/vexime.c"
  28              		.loc 1 85 0
  29              		.cfi_startproc
  30              		@ args = 0, pretend = 0, frame = 0
  31              		@ frame_needed = 0, uses_anonymous_args = 0
  32              		@ link register save eliminated.
  33              	.LVL0:
  34              		.loc 1 86 0
  35 0000 C3B2     		uxtb	r3, r0
  36 0002 072B     		cmp	r3, #7
  37 0004 09D8     		bhi	.L3
  38              		.loc 1 89 0
  39 0006 064B     		ldr	r3, .L6
  40 0008 6C22     		movs	r2, #108
  41 000a 02FB0033 		mla	r3, r2, r0, r3
  42 000e D88B     		ldrh	r0, [r3, #30]
  43              	.LVL1:
  44 0010 20B1     		cbz	r0, .L2
  45              		.loc 1 90 0
  46 0012 586E     		ldr	r0, [r3, #100]
  47 0014 9B6E     		ldr	r3, [r3, #104]
  48 0016 C01A     		subs	r0, r0, r3
  49 0018 7047     		bx	lr
  50              	.LVL2:
  51              	.L3:
  52              		.loc 1 87 0
  53 001a 0020     		movs	r0, #0
  54              	.LVL3:
  55              	.L2:
  56              		.loc 1 93 0
  57 001c 7047     		bx	lr
ARM GAS  /var/folders/pt/gxfsd_x53tx3h6kb8dkzftl80000gr/T//ccxqPL1I.s 			page 2


  58              	.L7:
  59 001e 00BF     		.align	2
  60              	.L6:
  61 0020 00000000 		.word	.LANCHOR0
  62              		.cfi_endproc
  63              	.LFE63:
  64              		.size	vexImeGetCount, .-vexImeGetCount
  65 0024 AFF30080 		.section	.text.vexImeSetCount,"ax",%progbits
  65      AFF30080 
  65      AFF30080 
  66              		.align	2
  67              		.p2align 4,,15
  68              		.global	vexImeSetCount
  69              		.thumb
  70              		.thumb_func
  71              		.type	vexImeSetCount, %function
  72              	vexImeSetCount:
  73              	.LFB64:
  74              		.loc 1 104 0
  75              		.cfi_startproc
  76              		@ args = 0, pretend = 0, frame = 0
  77              		@ frame_needed = 0, uses_anonymous_args = 0
  78              		@ link register save eliminated.
  79              	.LVL4:
  80              		.loc 1 105 0
  81 0000 C3B2     		uxtb	r3, r0
  82 0002 072B     		cmp	r3, #7
  83 0004 08D8     		bhi	.L8
  84              		.loc 1 108 0
  85 0006 054B     		ldr	r3, .L13
  86 0008 6C22     		movs	r2, #108
  87 000a 02FB0030 		mla	r0, r2, r0, r3
  88              	.LVL5:
  89 000e C38B     		ldrh	r3, [r0, #30]
  90 0010 13B1     		cbz	r3, .L8
  91              		.loc 1 109 0
  92 0012 436E     		ldr	r3, [r0, #100]
  93 0014 591A     		subs	r1, r3, r1
  94              	.LVL6:
  95 0016 8166     		str	r1, [r0, #104]
  96              	.L8:
  97 0018 7047     		bx	lr
  98              	.L14:
  99 001a 00BF     		.align	2
 100              	.L13:
 101 001c 00000000 		.word	.LANCHOR0
 102              		.cfi_endproc
 103              	.LFE64:
 104              		.size	vexImeSetCount, .-vexImeSetCount
 105              		.section	.text.vexImeGetId,"ax",%progbits
 106              		.align	2
 107              		.p2align 4,,15
 108              		.global	vexImeGetId
 109              		.thumb
 110              		.thumb_func
 111              		.type	vexImeGetId, %function
 112              	vexImeGetId:
ARM GAS  /var/folders/pt/gxfsd_x53tx3h6kb8dkzftl80000gr/T//ccxqPL1I.s 			page 3


 113              	.LFB65:
 114              		.loc 1 123 0
 115              		.cfi_startproc
 116              		@ args = 0, pretend = 0, frame = 0
 117              		@ frame_needed = 0, uses_anonymous_args = 0
 118              		@ link register save eliminated.
 119              	.LVL7:
 120              		.loc 1 124 0
 121 0000 C3B2     		uxtb	r3, r0
 122 0002 072B     		cmp	r3, #7
 123 0004 06D8     		bhi	.L17
 124              		.loc 1 128 0
 125 0006 054B     		ldr	r3, .L18
 126 0008 6C22     		movs	r2, #108
 127 000a 02FB0030 		mla	r0, r2, r0, r3
 128              	.LVL8:
 129 000e 007F     		ldrb	r0, [r0, #28]	@ zero_extendqisi2
 130              	.L16:
 131              		.loc 1 129 0
 132 0010 00B2     		sxth	r0, r0
 133 0012 7047     		bx	lr
 134              	.LVL9:
 135              	.L17:
 136              		.loc 1 125 0
 137 0014 4FF6FF70 		movw	r0, #65535
 138              	.LVL10:
 139 0018 FAE7     		b	.L16
 140              	.L19:
 141 001a 00BF     		.align	2
 142              	.L18:
 143 001c 00000000 		.word	.LANCHOR0
 144              		.cfi_endproc
 145              	.LFE65:
 146              		.size	vexImeGetId, .-vexImeGetId
 147              		.section	.text.vexImeGetPtr,"ax",%progbits
 148              		.align	2
 149              		.p2align 4,,15
 150              		.global	vexImeGetPtr
 151              		.thumb
 152              		.thumb_func
 153              		.type	vexImeGetPtr, %function
 154              	vexImeGetPtr:
 155              	.LFB66:
 156              		.loc 1 139 0
 157              		.cfi_startproc
 158              		@ args = 0, pretend = 0, frame = 0
 159              		@ frame_needed = 0, uses_anonymous_args = 0
 160              		@ link register save eliminated.
 161              	.LVL11:
 162              		.loc 1 140 0
 163 0000 0728     		cmp	r0, #7
 164 0002 05D8     		bhi	.L22
 165              		.loc 1 144 0
 166 0004 034B     		ldr	r3, .L23
 167 0006 6C22     		movs	r2, #108
 168 0008 02FB0030 		mla	r0, r2, r0, r3
 169              	.LVL12:
ARM GAS  /var/folders/pt/gxfsd_x53tx3h6kb8dkzftl80000gr/T//ccxqPL1I.s 			page 4


 170 000c 1C30     		adds	r0, r0, #28
 171 000e 7047     		bx	lr
 172              	.LVL13:
 173              	.L22:
 174              		.loc 1 141 0
 175 0010 0020     		movs	r0, #0
 176              	.LVL14:
 177              		.loc 1 145 0
 178 0012 7047     		bx	lr
 179              	.L24:
 180              		.align	2
 181              	.L23:
 182 0014 00000000 		.word	.LANCHOR0
 183              		.cfi_endproc
 184              	.LFE66:
 185              		.size	vexImeGetPtr, .-vexImeGetPtr
 186 0018 AFF30080 		.section	.text.vexImeGetChannelMax,"ax",%progbits
 186      AFF30080 
 187              		.align	2
 188              		.p2align 4,,15
 189              		.global	vexImeGetChannelMax
 190              		.thumb
 191              		.thumb_func
 192              		.type	vexImeGetChannelMax, %function
 193              	vexImeGetChannelMax:
 194              	.LFB67:
 195              		.loc 1 154 0
 196              		.cfi_startproc
 197              		@ args = 0, pretend = 0, frame = 0
 198              		@ frame_needed = 0, uses_anonymous_args = 0
 199              		@ link register save eliminated.
 200              		.loc 1 155 0
 201 0000 40F20003 		movw	r3, #:lower16:.LANCHOR0
 202 0004 C0F20003 		movt	r3, #:upper16:.LANCHOR0
 203              		.loc 1 156 0
 204 0008 B3F90800 		ldrsh	r0, [r3, #8]
 205 000c 7047     		bx	lr
 206              		.cfi_endproc
 207              	.LFE67:
 208              		.size	vexImeGetChannelMax, .-vexImeGetChannelMax
 209 000e 00BF     		.section	.text.vexImeSetType,"ax",%progbits
 210              		.align	2
 211              		.p2align 4,,15
 212              		.global	vexImeSetType
 213              		.thumb
 214              		.thumb_func
 215              		.type	vexImeSetType, %function
 216              	vexImeSetType:
 217              	.LFB68:
 218              		.loc 1 169 0
 219              		.cfi_startproc
 220              		@ args = 0, pretend = 0, frame = 0
 221              		@ frame_needed = 0, uses_anonymous_args = 0
 222              		@ link register save eliminated.
 223              	.LVL15:
 224              		.loc 1 170 0
 225 0000 0728     		cmp	r0, #7
ARM GAS  /var/folders/pt/gxfsd_x53tx3h6kb8dkzftl80000gr/T//ccxqPL1I.s 			page 5


 226 0002 0BD8     		bhi	.L26
 227              		.loc 1 180 0
 228 0004 0A4B     		ldr	r3, .L34
 229 0006 6C22     		movs	r2, #108
 230              		.loc 1 174 0
 231 0008 0229     		cmp	r1, #2
 232              		.loc 1 180 0
 233 000a 02FB0030 		mla	r0, r2, r0, r3
 234              	.LVL16:
 235              		.loc 1 174 0
 236 000e 06D0     		beq	.L30
 237 0010 0329     		cmp	r1, #3
 238 0012 0AD0     		beq	.L31
 239 0014 0129     		cmp	r1, #1
 240 0016 05D0     		beq	.L33
 241              		.loc 1 186 0
 242 0018 1023     		movs	r3, #16
 243 001a 4377     		strb	r3, [r0, #29]
 244              	.L26:
 245 001c 7047     		bx	lr
 246              	.L30:
 247              		.loc 1 180 0
 248 001e 0123     		movs	r3, #1
 249 0020 4377     		strb	r3, [r0, #29]
 250              		.loc 1 181 0
 251 0022 7047     		bx	lr
 252              	.L33:
 253              		.loc 1 177 0
 254 0024 0023     		movs	r3, #0
 255 0026 4377     		strb	r3, [r0, #29]
 256              		.loc 1 178 0
 257 0028 7047     		bx	lr
 258              	.L31:
 259              		.loc 1 183 0
 260 002a 0223     		movs	r3, #2
 261 002c 4377     		strb	r3, [r0, #29]
 262              		.loc 1 184 0
 263 002e 7047     		bx	lr
 264              	.L35:
 265              		.align	2
 266              	.L34:
 267 0030 00000000 		.word	.LANCHOR0
 268              		.cfi_endproc
 269              	.LFE68:
 270              		.size	vexImeSetType, .-vexImeSetType
 271 0034 AFF30080 		.section	.text.vexImeSetMotor,"ax",%progbits
 271      AFF30080 
 271      AFF30080 
 272              		.align	2
 273              		.p2align 4,,15
 274              		.global	vexImeSetMotor
 275              		.thumb
 276              		.thumb_func
 277              		.type	vexImeSetMotor, %function
 278              	vexImeSetMotor:
 279              	.LFB69:
 280              		.loc 1 199 0
ARM GAS  /var/folders/pt/gxfsd_x53tx3h6kb8dkzftl80000gr/T//ccxqPL1I.s 			page 6


 281              		.cfi_startproc
 282              		@ args = 0, pretend = 0, frame = 0
 283              		@ frame_needed = 0, uses_anonymous_args = 0
 284              		@ link register save eliminated.
 285              	.LVL17:
 286              		.loc 1 200 0
 287 0000 0728     		cmp	r0, #7
 288 0002 06D8     		bhi	.L36
 289              		.loc 1 202 0
 290 0004 0929     		cmp	r1, #9
 291 0006 04DC     		bgt	.L36
 292              		.loc 1 206 0
 293 0008 024B     		ldr	r3, .L38
 294 000a 6C22     		movs	r2, #108
 295 000c 02FB0030 		mla	r0, r2, r0, r3
 296              	.LVL18:
 297 0010 0184     		strh	r1, [r0, #32]	@ movhi
 298              	.L36:
 299 0012 7047     		bx	lr
 300              	.L39:
 301              		.align	2
 302              	.L38:
 303 0014 00000000 		.word	.LANCHOR0
 304              		.cfi_endproc
 305              	.LFE69:
 306              		.size	vexImeSetMotor, .-vexImeSetMotor
 307 0018 AFF30080 		.section	.text.vexImeMotorGetCount,"ax",%progbits
 307      AFF30080 
 308              		.align	2
 309              		.p2align 4,,15
 310              		.global	vexImeMotorGetCount
 311              		.thumb
 312              		.thumb_func
 313              		.type	vexImeMotorGetCount, %function
 314              	vexImeMotorGetCount:
 315              	.LFB70:
 316              		.loc 1 218 0
 317              		.cfi_startproc
 318              		@ args = 0, pretend = 0, frame = 0
 319              		@ frame_needed = 0, uses_anonymous_args = 0
 320              		@ link register save eliminated.
 321              	.LVL19:
 322              		.loc 1 221 0
 323 0000 0928     		cmp	r0, #9
 324              		.loc 1 218 0
 325 0002 10B4     		push	{r4}
 326              	.LCFI0:
 327              		.cfi_def_cfa_offset 4
 328              		.cfi_offset 4, -4
 329              		.loc 1 221 0
 330 0004 09DC     		bgt	.L44
 331 0006 0B4C     		ldr	r4, .L48
 332 0008 0022     		movs	r2, #0
 333 000a 2346     		mov	r3, r4
 334              	.L43:
 335              	.LVL20:
 336              		.loc 1 227 0
ARM GAS  /var/folders/pt/gxfsd_x53tx3h6kb8dkzftl80000gr/T//ccxqPL1I.s 			page 7


 337 000c 198C     		ldrh	r1, [r3, #32]
 338 000e 6C33     		adds	r3, r3, #108
 339 0010 8142     		cmp	r1, r0
 340 0012 05D0     		beq	.L47
 341 0014 0132     		adds	r2, r2, #1
 342              		.loc 1 225 0
 343 0016 082A     		cmp	r2, #8
 344 0018 F8D1     		bne	.L43
 345              	.L44:
 346              		.loc 1 222 0
 347 001a 0020     		movs	r0, #0
 348              	.LVL21:
 349              	.L41:
 350              		.loc 1 232 0
 351 001c 10BC     		pop	{r4}
 352 001e 7047     		bx	lr
 353              	.LVL22:
 354              	.L47:
 355              	.LBB4:
 356              	.LBB5:
 357              		.loc 1 89 0
 358 0020 6C23     		movs	r3, #108
 359 0022 03FB0242 		mla	r2, r3, r2, r4
 360 0026 D08B     		ldrh	r0, [r2, #30]
 361              	.LVL23:
 362 0028 0028     		cmp	r0, #0
 363 002a F7D0     		beq	.L41
 364              		.loc 1 90 0
 365 002c 506E     		ldr	r0, [r2, #100]
 366 002e 936E     		ldr	r3, [r2, #104]
 367 0030 C01A     		subs	r0, r0, r3
 368 0032 F3E7     		b	.L41
 369              	.L49:
 370              		.align	2
 371              	.L48:
 372 0034 00000000 		.word	.LANCHOR0
 373              	.LBE5:
 374              	.LBE4:
 375              		.cfi_endproc
 376              	.LFE70:
 377              		.size	vexImeMotorGetCount, .-vexImeMotorGetCount
 378 0038 AFF30080 		.section	.text.vexImeInit,"ax",%progbits
 378      AFF30080 
 379              		.align	2
 380              		.p2align 4,,15
 381              		.global	vexImeInit
 382              		.thumb
 383              		.thumb_func
 384              		.type	vexImeInit, %function
 385              	vexImeInit:
 386              	.LFB72:
 387              		.loc 1 310 0
 388              		.cfi_startproc
 389              		@ args = 0, pretend = 0, frame = 0
 390              		@ frame_needed = 0, uses_anonymous_args = 0
 391              	.LVL24:
 392 0000 70B5     		push	{r4, r5, r6, lr}
ARM GAS  /var/folders/pt/gxfsd_x53tx3h6kb8dkzftl80000gr/T//ccxqPL1I.s 			page 8


 393              	.LCFI1:
 394              		.cfi_def_cfa_offset 16
 395              		.cfi_offset 4, -16
 396              		.cfi_offset 5, -12
 397              		.cfi_offset 6, -8
 398              		.cfi_offset 14, -4
 399              		.loc 1 318 0
 400 0002 134C     		ldr	r4, .L53
 401              		.loc 1 310 0
 402 0004 0D46     		mov	r5, r1
 403 0006 82B0     		sub	sp, sp, #8
 404              	.LCFI2:
 405              		.cfi_def_cfa_offset 24
 406              		.loc 1 315 0
 407 0008 1249     		ldr	r1, .L53+4
 408              	.LVL25:
 409              		.loc 1 310 0
 410 000a 0646     		mov	r6, r0
 411              		.loc 1 315 0
 412 000c FFF7FEFF 		bl	i2cStart
 413              	.LVL26:
 414              		.loc 1 323 0
 415 0010 0022     		movs	r2, #0
 416 0012 2346     		mov	r3, r4
 417              		.loc 1 318 0
 418 0014 2660     		str	r6, [r4, #0]
 419              		.loc 1 320 0
 420 0016 6560     		str	r5, [r4, #4]
 421              		.loc 1 323 0
 422 0018 E281     		strh	r2, [r4, #14]	@ movhi
 423              		.loc 1 324 0
 424 001a 6282     		strh	r2, [r4, #18]	@ movhi
 425              		.loc 1 325 0
 426 001c 2282     		strh	r2, [r4, #16]	@ movhi
 427              		.loc 1 328 0
 428 001e 6283     		strh	r2, [r4, #26]	@ movhi
 429              	.LVL27:
 430              		.loc 1 309 0
 431 0020 04F55870 		add	r0, r4, #864
 432              		.loc 1 336 0
 433 0024 4FF6FF71 		movw	r1, #65535
 434              	.LVL28:
 435              	.L51:
 436              		.loc 1 333 0 discriminator 2
 437 0028 1A77     		strb	r2, [r3, #28]
 438              		.loc 1 334 0 discriminator 2
 439 002a C3F88020 		str	r2, [r3, #128]
 440              		.loc 1 335 0 discriminator 2
 441 002e C3F88420 		str	r2, [r3, #132]
 442              		.loc 1 336 0 discriminator 2
 443 0032 1984     		strh	r1, [r3, #32]	@ movhi
 444 0034 6C33     		adds	r3, r3, #108
 445              		.loc 1 331 0 discriminator 2
 446 0036 8342     		cmp	r3, r0
 447 0038 F6D1     		bne	.L51
 448              		.loc 1 340 0
 449 003a 0023     		movs	r3, #0
ARM GAS  /var/folders/pt/gxfsd_x53tx3h6kb8dkzftl80000gr/T//ccxqPL1I.s 			page 9


 450 003c 0093     		str	r3, [sp, #0]
 451 003e 4FF42071 		mov	r1, #640
 452 0042 4922     		movs	r2, #73
 453 0044 044B     		ldr	r3, .L53+8
 454 0046 0548     		ldr	r0, .L53+12
 455 0048 FFF7FEFF 		bl	chThdCreateStatic
 456              	.LVL29:
 457              		.loc 1 341 0
 458 004c 02B0     		add	sp, sp, #8
 459 004e 70BD     		pop	{r4, r5, r6, pc}
 460              	.L54:
 461              		.align	2
 462              	.L53:
 463 0050 00000000 		.word	.LANCHOR0
 464 0054 00000000 		.word	.LANCHOR1
 465 0058 00000000 		.word	vexImeTask
 466 005c 00000000 		.word	.LANCHOR2
 467              		.cfi_endproc
 468              	.LFE72:
 469              		.size	vexImeInit, .-vexImeInit
 470              		.section	.text.vexIMEDataInit,"ax",%progbits
 471              		.align	2
 472              		.p2align 4,,15
 473              		.global	vexIMEDataInit
 474              		.thumb
 475              		.thumb_func
 476              		.type	vexIMEDataInit, %function
 477              	vexIMEDataInit:
 478              	.LFB74:
 479              		.loc 1 402 0
 480              		.cfi_startproc
 481              		@ args = 0, pretend = 0, frame = 0
 482              		@ frame_needed = 0, uses_anonymous_args = 0
 483              	.LVL30:
 484 0000 70B5     		push	{r4, r5, r6, lr}
 485              	.LCFI3:
 486              		.cfi_def_cfa_offset 16
 487              		.cfi_offset 4, -16
 488              		.cfi_offset 5, -12
 489              		.cfi_offset 6, -8
 490              		.cfi_offset 14, -4
 491              		.loc 1 403 0
 492 0002 6023     		movs	r3, #96
 493              		.loc 1 404 0
 494 0004 0025     		movs	r5, #0
 495              		.loc 1 406 0
 496 0006 1026     		movs	r6, #16
 497              		.loc 1 402 0
 498 0008 0446     		mov	r4, r0
 499              		.loc 1 403 0
 500 000a 0370     		strb	r3, [r0, #0]
 501              		.loc 1 406 0
 502 000c 2946     		mov	r1, r5
 503 000e 3246     		mov	r2, r6
 504              		.loc 1 404 0
 505 0010 4580     		strh	r5, [r0, #2]	@ movhi
 506              		.loc 1 406 0
ARM GAS  /var/folders/pt/gxfsd_x53tx3h6kb8dkzftl80000gr/T//ccxqPL1I.s 			page 10


 507 0012 0630     		adds	r0, r0, #6
 508              	.LVL31:
 509 0014 FFF7FEFF 		bl	memset
 510              	.LVL32:
 511              		.loc 1 407 0
 512 0018 2946     		mov	r1, r5
 513 001a 3246     		mov	r2, r6
 514 001c 04F11600 		add	r0, r4, #22
 515 0020 FFF7FEFF 		bl	memset
 516              	.LVL33:
 517              		.loc 1 408 0
 518 0024 2946     		mov	r1, r5
 519 0026 3246     		mov	r2, r6
 520 0028 04F12600 		add	r0, r4, #38
 521 002c FFF7FEFF 		bl	memset
 522              	.LVL34:
 523              		.loc 1 409 0
 524 0030 04F13600 		add	r0, r4, #54
 525 0034 2946     		mov	r1, r5
 526 0036 3246     		mov	r2, r6
 527 0038 FFF7FEFF 		bl	memset
 528              	.LVL35:
 529              		.loc 1 413 0
 530 003c 4FF0FE43 		mov	r3, #2130706432
 531              		.loc 1 411 0
 532 0040 A564     		str	r5, [r4, #72]
 533              		.loc 1 412 0
 534 0042 E564     		str	r5, [r4, #76]
 535              		.loc 1 413 0
 536 0044 E365     		str	r3, [r4, #92]
 537              		.loc 1 414 0
 538 0046 2565     		str	r5, [r4, #80]
 539 0048 70BD     		pop	{r4, r5, r6, pc}
 540              		.cfi_endproc
 541              	.LFE74:
 542              		.size	vexIMEDataInit, .-vexIMEDataInit
 543 004a 00BFAFF3 		.section	.text.vexIMEResetAll,"ax",%progbits
 543      0080
 544              		.align	2
 545              		.p2align 4,,15
 546              		.global	vexIMEResetAll
 547              		.thumb
 548              		.thumb_func
 549              		.type	vexIMEResetAll, %function
 550              	vexIMEResetAll:
 551              	.LFB87:
 552              		.loc 1 864 0
 553              		.cfi_startproc
 554              		@ args = 0, pretend = 0, frame = 8
 555              		@ frame_needed = 0, uses_anonymous_args = 0
 556              	.LVL36:
 557 0000 70B5     		push	{r4, r5, r6, lr}
 558              	.LCFI4:
 559              		.cfi_def_cfa_offset 16
 560              		.cfi_offset 4, -16
 561              		.cfi_offset 5, -12
 562              		.cfi_offset 6, -8
ARM GAS  /var/folders/pt/gxfsd_x53tx3h6kb8dkzftl80000gr/T//ccxqPL1I.s 			page 11


 563              		.cfi_offset 14, -4
 564              		.loc 1 873 0
 565 0002 40F20004 		movw	r4, #:lower16:.LANCHOR0
 566              		.loc 1 864 0
 567 0006 86B0     		sub	sp, sp, #24
 568              	.LCFI5:
 569              		.cfi_def_cfa_offset 40
 570              		.loc 1 873 0
 571 0008 C0F20004 		movt	r4, #:upper16:.LANCHOR0
 572              		.loc 1 869 0
 573 000c 4E23     		movs	r3, #78
 574              		.loc 1 874 0
 575 000e 0025     		movs	r5, #0
 576              		.loc 1 871 0
 577 0010 0326     		movs	r6, #3
 578              		.loc 1 873 0
 579 0012 2068     		ldr	r0, [r4, #0]
 580              		.loc 1 869 0
 581 0014 8DF81430 		strb	r3, [sp, #20]
 582              		.loc 1 870 0
 583 0018 CA23     		movs	r3, #202
 584 001a 8DF81530 		strb	r3, [sp, #21]
 585              		.loc 1 871 0
 586 001e 8DF81660 		strb	r6, [sp, #22]
 587              		.loc 1 873 0
 588 0022 FFF7FEFF 		bl	i2cAcquireBus
 589              	.LVL37:
 590              		.loc 1 874 0
 591 0026 2946     		mov	r1, r5
 592 0028 0095     		str	r5, [sp, #0]
 593 002a 0195     		str	r5, [sp, #4]
 594 002c 0425     		movs	r5, #4
 595 002e 05AA     		add	r2, sp, #20
 596 0030 3346     		mov	r3, r6
 597 0032 0295     		str	r5, [sp, #8]
 598 0034 2068     		ldr	r0, [r4, #0]
 599 0036 FFF7FEFF 		bl	i2cMasterTransmitTimeout
 600              	.LVL38:
 601 003a 0546     		mov	r5, r0
 602              	.LVL39:
 603              		.loc 1 875 0
 604 003c 2068     		ldr	r0, [r4, #0]
 605              	.LVL40:
 606 003e FFF7FEFF 		bl	i2cReleaseBus
 607              	.LVL41:
 608              		.loc 1 878 0
 609 0042 6420     		movs	r0, #100
 610 0044 FFF7FEFF 		bl	chThdSleep
 611              	.LVL42:
 612              		.loc 1 881 0
 613 0048 2846     		mov	r0, r5
 614 004a 06B0     		add	sp, sp, #24
 615 004c 70BD     		pop	{r4, r5, r6, pc}
 616              		.cfi_endproc
 617              	.LFE87:
 618              		.size	vexIMEResetAll, .-vexIMEResetAll
 619 004e 00BF     		.section	.text.vexIMEHandleErrors,"ax",%progbits
ARM GAS  /var/folders/pt/gxfsd_x53tx3h6kb8dkzftl80000gr/T//ccxqPL1I.s 			page 12


 620              		.align	2
 621              		.p2align 4,,15
 622              		.global	vexIMEHandleErrors
 623              		.thumb
 624              		.thumb_func
 625              		.type	vexIMEHandleErrors, %function
 626              	vexIMEHandleErrors:
 627              	.LFB88:
 628              		.loc 1 893 0
 629              		.cfi_startproc
 630              		@ args = 0, pretend = 0, frame = 0
 631              		@ frame_needed = 0, uses_anonymous_args = 0
 632              	.LVL43:
 633              		.loc 1 896 0
 634 0000 0130     		adds	r0, r0, #1
 635              	.LVL44:
 636              		.loc 1 893 0
 637 0002 38B5     		push	{r3, r4, r5, lr}
 638              	.LCFI6:
 639              		.cfi_def_cfa_offset 16
 640              		.cfi_offset 3, -16
 641              		.cfi_offset 4, -12
 642              		.cfi_offset 5, -8
 643              		.cfi_offset 14, -4
 644              		.loc 1 893 0
 645 0004 0C46     		mov	r4, r1
 646              		.loc 1 896 0
 647 0006 22D0     		beq	.L78
 648              	.LVL45:
 649              	.L58:
 650              		.loc 1 912 0
 651 0008 5CB1     		cbz	r4, .L60
 652              		.loc 1 914 0
 653 000a 194B     		ldr	r3, .L80
 654 000c DA8A     		ldrh	r2, [r3, #22]
 655 000e 0132     		adds	r2, r2, #1
 656 0010 92B2     		uxth	r2, r2
 657              		.loc 1 916 0
 658 0012 052A     		cmp	r2, #5
 659              		.loc 1 914 0
 660 0014 DA82     		strh	r2, [r3, #22]	@ movhi
 661              		.loc 1 916 0
 662 0016 17D0     		beq	.L79
 663              	.L61:
 664              		.loc 1 924 0
 665 0018 6007     		lsls	r0, r4, #29
 666 001a 02D5     		bpl	.L60
 667              		.loc 1 925 0
 668 001c DA89     		ldrh	r2, [r3, #14]
 669 001e 0132     		adds	r2, r2, #1
 670 0020 DA81     		strh	r2, [r3, #14]	@ movhi
 671              	.L60:
 672              		.loc 1 926 0
 673 0022 A107     		lsls	r1, r4, #30
 674 0024 03D5     		bpl	.L63
 675              		.loc 1 927 0
 676 0026 124B     		ldr	r3, .L80
ARM GAS  /var/folders/pt/gxfsd_x53tx3h6kb8dkzftl80000gr/T//ccxqPL1I.s 			page 13


 677 0028 5A8A     		ldrh	r2, [r3, #18]
 678 002a 0132     		adds	r2, r2, #1
 679 002c 5A82     		strh	r2, [r3, #18]	@ movhi
 680              	.L63:
 681              		.loc 1 928 0
 682 002e E207     		lsls	r2, r4, #31
 683 0030 03D5     		bpl	.L64
 684              		.loc 1 929 0
 685 0032 0F4B     		ldr	r3, .L80
 686 0034 1A8A     		ldrh	r2, [r3, #16]
 687 0036 0132     		adds	r2, r2, #1
 688 0038 1A82     		strh	r2, [r3, #16]	@ movhi
 689              	.L64:
 690              		.loc 1 930 0
 691 003a A306     		lsls	r3, r4, #26
 692 003c 03D5     		bpl	.L57
 693              		.loc 1 931 0
 694 003e 0C4B     		ldr	r3, .L80
 695 0040 9A8A     		ldrh	r2, [r3, #20]
 696 0042 0132     		adds	r2, r2, #1
 697 0044 9A82     		strh	r2, [r3, #20]	@ movhi
 698              	.L57:
 699 0046 38BD     		pop	{r3, r4, r5, pc}
 700              	.L79:
 701              		.loc 1 919 0
 702 0048 0122     		movs	r2, #1
 703 004a 1A83     		strh	r2, [r3, #24]	@ movhi
 704 004c E4E7     		b	.L61
 705              	.LVL46:
 706              	.L78:
 707              		.loc 1 899 0
 708 004e 084D     		ldr	r5, .L80
 709 0050 AB89     		ldrh	r3, [r5, #12]
 710              		.loc 1 901 0
 711 0052 2868     		ldr	r0, [r5, #0]
 712              		.loc 1 899 0
 713 0054 0133     		adds	r3, r3, #1
 714 0056 AB81     		strh	r3, [r5, #12]	@ movhi
 715              		.loc 1 901 0
 716 0058 FFF7FEFF 		bl	i2cStop
 717              	.LVL47:
 718              		.loc 1 903 0
 719 005c 6420     		movs	r0, #100
 720 005e FFF7FEFF 		bl	chThdSleep
 721              	.LVL48:
 722              		.loc 1 905 0
 723 0062 2868     		ldr	r0, [r5, #0]
 724 0064 0349     		ldr	r1, .L80+4
 725 0066 FFF7FEFF 		bl	i2cStart
 726              	.LVL49:
 727              		.loc 1 907 0
 728 006a 0123     		movs	r3, #1
 729 006c 2B83     		strh	r3, [r5, #24]	@ movhi
 730 006e CBE7     		b	.L58
 731              	.L81:
 732              		.align	2
 733              	.L80:
ARM GAS  /var/folders/pt/gxfsd_x53tx3h6kb8dkzftl80000gr/T//ccxqPL1I.s 			page 14


 734 0070 00000000 		.word	.LANCHOR0
 735 0074 00000000 		.word	.LANCHOR1
 736              		.cfi_endproc
 737              	.LFE88:
 738              		.size	vexIMEHandleErrors, .-vexIMEHandleErrors
 739 0078 AFF30080 		.section	.text.vexIMESetAddr,"ax",%progbits
 739      AFF30080 
 740              		.align	2
 741              		.p2align 4,,15
 742              		.global	vexIMESetAddr
 743              		.thumb
 744              		.thumb_func
 745              		.type	vexIMESetAddr, %function
 746              	vexIMESetAddr:
 747              	.LFB86:
 748              		.loc 1 830 0
 749              		.cfi_startproc
 750              		@ args = 0, pretend = 0, frame = 8
 751              		@ frame_needed = 0, uses_anonymous_args = 0
 752              	.LVL50:
 753 0000 F0B5     		push	{r4, r5, r6, r7, lr}
 754              	.LCFI7:
 755              		.cfi_def_cfa_offset 20
 756              		.cfi_offset 4, -20
 757              		.cfi_offset 5, -16
 758              		.cfi_offset 6, -12
 759              		.cfi_offset 7, -8
 760              		.cfi_offset 14, -4
 761              		.loc 1 839 0
 762 0002 154C     		ldr	r4, .L87
 763              		.loc 1 830 0
 764 0004 87B0     		sub	sp, sp, #28
 765              	.LCFI8:
 766              		.cfi_def_cfa_offset 48
 767              		.loc 1 836 0
 768 0006 4D23     		movs	r3, #77
 769              		.loc 1 830 0
 770 0008 0646     		mov	r6, r0
 771              		.loc 1 839 0
 772 000a 2068     		ldr	r0, [r4, #0]
 773              	.LVL51:
 774              		.loc 1 830 0
 775 000c 0F46     		mov	r7, r1
 776              		.loc 1 836 0
 777 000e 8DF81430 		strb	r3, [sp, #20]
 778              		.loc 1 837 0
 779 0012 8DF81510 		strb	r1, [sp, #21]
 780              		.loc 1 839 0
 781 0016 FFF7FEFF 		bl	i2cAcquireBus
 782              	.LVL52:
 783              		.loc 1 840 0
 784 001a 3178     		ldrb	r1, [r6, #0]	@ zero_extendqisi2
 785 001c 0023     		movs	r3, #0
 786 001e 0093     		str	r3, [sp, #0]
 787 0020 0193     		str	r3, [sp, #4]
 788 0022 0423     		movs	r3, #4
 789 0024 0293     		str	r3, [sp, #8]
ARM GAS  /var/folders/pt/gxfsd_x53tx3h6kb8dkzftl80000gr/T//ccxqPL1I.s 			page 15


 790 0026 2068     		ldr	r0, [r4, #0]
 791 0028 4908     		lsrs	r1, r1, #1
 792 002a 05AA     		add	r2, sp, #20
 793 002c 0223     		movs	r3, #2
 794 002e FFF7FEFF 		bl	i2cMasterTransmitTimeout
 795              	.LVL53:
 796 0032 0546     		mov	r5, r0
 797              	.LVL54:
 798              		.loc 1 841 0
 799 0034 2068     		ldr	r0, [r4, #0]
 800              	.LVL55:
 801 0036 FFF7FEFF 		bl	i2cReleaseBus
 802              	.LVL56:
 803              		.loc 1 843 0
 804 003a 4DB1     		cbz	r5, .L83
 805              		.loc 1 844 0
 806 003c 2068     		ldr	r0, [r4, #0]
 807 003e FFF7FEFF 		bl	i2cGetErrors
 808              	.LVL57:
 809 0042 064A     		ldr	r2, .L87+4
 810 0044 0346     		mov	r3, r0
 811              		.loc 1 845 0
 812 0046 1946     		mov	r1, r3
 813 0048 2846     		mov	r0, r5
 814              		.loc 1 844 0
 815 004a 1360     		str	r3, [r2, #0]
 816              		.loc 1 845 0
 817 004c FFF7FEFF 		bl	vexIMEHandleErrors
 818              	.LVL58:
 819              	.L83:
 820              		.loc 1 848 0
 821 0050 3770     		strb	r7, [r6, #0]
 822              		.loc 1 851 0
 823 0052 2846     		mov	r0, r5
 824 0054 07B0     		add	sp, sp, #28
 825 0056 F0BD     		pop	{r4, r5, r6, r7, pc}
 826              	.L88:
 827              		.align	2
 828              	.L87:
 829 0058 00000000 		.word	.LANCHOR0
 830 005c 00000000 		.word	.LANCHOR3
 831              		.cfi_endproc
 832              	.LFE86:
 833              		.size	vexIMESetAddr, .-vexIMESetAddr
 834              		.section	.text.vexIMEEnableTermination,"ax",%progbits
 835              		.align	2
 836              		.p2align 4,,15
 837              		.global	vexIMEEnableTermination
 838              		.thumb
 839              		.thumb_func
 840              		.type	vexIMEEnableTermination, %function
 841              	vexIMEEnableTermination:
 842              	.LFB85:
 843              		.loc 1 801 0
 844              		.cfi_startproc
 845              		@ args = 0, pretend = 0, frame = 8
 846              		@ frame_needed = 0, uses_anonymous_args = 0
ARM GAS  /var/folders/pt/gxfsd_x53tx3h6kb8dkzftl80000gr/T//ccxqPL1I.s 			page 16


 847              	.LVL59:
 848 0000 70B5     		push	{r4, r5, r6, lr}
 849              	.LCFI9:
 850              		.cfi_def_cfa_offset 16
 851              		.cfi_offset 4, -16
 852              		.cfi_offset 5, -12
 853              		.cfi_offset 6, -8
 854              		.cfi_offset 14, -4
 855              		.loc 1 805 0
 856 0002 134C     		ldr	r4, .L94
 857              		.loc 1 801 0
 858 0004 86B0     		sub	sp, sp, #24
 859              	.LCFI10:
 860              		.cfi_def_cfa_offset 40
 861              		.loc 1 803 0
 862 0006 06AD     		add	r5, sp, #24
 863 0008 4C23     		movs	r3, #76
 864              		.loc 1 801 0
 865 000a 0646     		mov	r6, r0
 866              		.loc 1 805 0
 867 000c 2068     		ldr	r0, [r4, #0]
 868              	.LVL60:
 869              		.loc 1 803 0
 870 000e 05F8013D 		strb	r3, [r5, #-1]!
 871              	.LVL61:
 872              		.loc 1 805 0
 873 0012 FFF7FEFF 		bl	i2cAcquireBus
 874              	.LVL62:
 875              		.loc 1 806 0
 876 0016 0023     		movs	r3, #0
 877 0018 0093     		str	r3, [sp, #0]
 878 001a 0193     		str	r3, [sp, #4]
 879 001c 0423     		movs	r3, #4
 880 001e 0293     		str	r3, [sp, #8]
 881 0020 2A46     		mov	r2, r5
 882 0022 2068     		ldr	r0, [r4, #0]
 883 0024 7108     		lsrs	r1, r6, #1
 884 0026 0123     		movs	r3, #1
 885 0028 FFF7FEFF 		bl	i2cMasterTransmitTimeout
 886              	.LVL63:
 887 002c 0546     		mov	r5, r0
 888              	.LVL64:
 889              		.loc 1 807 0
 890 002e 2068     		ldr	r0, [r4, #0]
 891              	.LVL65:
 892 0030 FFF7FEFF 		bl	i2cReleaseBus
 893              	.LVL66:
 894              		.loc 1 809 0
 895 0034 4DB1     		cbz	r5, .L90
 896              		.loc 1 810 0
 897 0036 2068     		ldr	r0, [r4, #0]
 898 0038 FFF7FEFF 		bl	i2cGetErrors
 899              	.LVL67:
 900 003c 054A     		ldr	r2, .L94+4
 901 003e 0346     		mov	r3, r0
 902              		.loc 1 811 0
 903 0040 1946     		mov	r1, r3
ARM GAS  /var/folders/pt/gxfsd_x53tx3h6kb8dkzftl80000gr/T//ccxqPL1I.s 			page 17


 904 0042 2846     		mov	r0, r5
 905              		.loc 1 810 0
 906 0044 1360     		str	r3, [r2, #0]
 907              		.loc 1 811 0
 908 0046 FFF7FEFF 		bl	vexIMEHandleErrors
 909              	.LVL68:
 910              	.L90:
 911              		.loc 1 815 0
 912 004a 2846     		mov	r0, r5
 913 004c 06B0     		add	sp, sp, #24
 914 004e 70BD     		pop	{r4, r5, r6, pc}
 915              	.L95:
 916              		.align	2
 917              	.L94:
 918 0050 00000000 		.word	.LANCHOR0
 919 0054 00000000 		.word	.LANCHOR3
 920              		.cfi_endproc
 921              	.LFE85:
 922              		.size	vexIMEEnableTermination, .-vexIMEEnableTermination
 923 0058 AFF30080 		.section	.text.vexIMEDisableTermination,"ax",%progbits
 923      AFF30080 
 924              		.align	2
 925              		.p2align 4,,15
 926              		.global	vexIMEDisableTermination
 927              		.thumb
 928              		.thumb_func
 929              		.type	vexIMEDisableTermination, %function
 930              	vexIMEDisableTermination:
 931              	.LFB84:
 932              		.loc 1 773 0
 933              		.cfi_startproc
 934              		@ args = 0, pretend = 0, frame = 8
 935              		@ frame_needed = 0, uses_anonymous_args = 0
 936              	.LVL69:
 937 0000 70B5     		push	{r4, r5, r6, lr}
 938              	.LCFI11:
 939              		.cfi_def_cfa_offset 16
 940              		.cfi_offset 4, -16
 941              		.cfi_offset 5, -12
 942              		.cfi_offset 6, -8
 943              		.cfi_offset 14, -4
 944              		.loc 1 777 0
 945 0002 134C     		ldr	r4, .L101
 946              		.loc 1 773 0
 947 0004 86B0     		sub	sp, sp, #24
 948              	.LCFI12:
 949              		.cfi_def_cfa_offset 40
 950              		.loc 1 775 0
 951 0006 06AD     		add	r5, sp, #24
 952 0008 4B23     		movs	r3, #75
 953              		.loc 1 773 0
 954 000a 0646     		mov	r6, r0
 955              		.loc 1 777 0
 956 000c 2068     		ldr	r0, [r4, #0]
 957              	.LVL70:
 958              		.loc 1 775 0
 959 000e 05F8013D 		strb	r3, [r5, #-1]!
ARM GAS  /var/folders/pt/gxfsd_x53tx3h6kb8dkzftl80000gr/T//ccxqPL1I.s 			page 18


 960              	.LVL71:
 961              		.loc 1 777 0
 962 0012 FFF7FEFF 		bl	i2cAcquireBus
 963              	.LVL72:
 964              		.loc 1 778 0
 965 0016 0023     		movs	r3, #0
 966 0018 0093     		str	r3, [sp, #0]
 967 001a 0193     		str	r3, [sp, #4]
 968 001c 0423     		movs	r3, #4
 969 001e 0293     		str	r3, [sp, #8]
 970 0020 2A46     		mov	r2, r5
 971 0022 2068     		ldr	r0, [r4, #0]
 972 0024 7108     		lsrs	r1, r6, #1
 973 0026 0123     		movs	r3, #1
 974 0028 FFF7FEFF 		bl	i2cMasterTransmitTimeout
 975              	.LVL73:
 976 002c 0546     		mov	r5, r0
 977              	.LVL74:
 978              		.loc 1 779 0
 979 002e 2068     		ldr	r0, [r4, #0]
 980              	.LVL75:
 981 0030 FFF7FEFF 		bl	i2cReleaseBus
 982              	.LVL76:
 983              		.loc 1 781 0
 984 0034 4DB1     		cbz	r5, .L97
 985              		.loc 1 782 0
 986 0036 2068     		ldr	r0, [r4, #0]
 987 0038 FFF7FEFF 		bl	i2cGetErrors
 988              	.LVL77:
 989 003c 054A     		ldr	r2, .L101+4
 990 003e 0346     		mov	r3, r0
 991              		.loc 1 783 0
 992 0040 1946     		mov	r1, r3
 993 0042 2846     		mov	r0, r5
 994              		.loc 1 782 0
 995 0044 1360     		str	r3, [r2, #0]
 996              		.loc 1 783 0
 997 0046 FFF7FEFF 		bl	vexIMEHandleErrors
 998              	.LVL78:
 999              	.L97:
 1000              		.loc 1 787 0
 1001 004a 2846     		mov	r0, r5
 1002 004c 06B0     		add	sp, sp, #24
 1003 004e 70BD     		pop	{r4, r5, r6, pc}
 1004              	.L102:
 1005              		.align	2
 1006              	.L101:
 1007 0050 00000000 		.word	.LANCHOR0
 1008 0054 00000000 		.word	.LANCHOR3
 1009              		.cfi_endproc
 1010              	.LFE84:
 1011              		.size	vexIMEDisableTermination, .-vexIMEDisableTermination
 1012 0058 AFF30080 		.section	.text.vexIMEClearCounters,"ax",%progbits
 1012      AFF30080 
 1013              		.align	2
 1014              		.p2align 4,,15
 1015              		.global	vexIMEClearCounters
ARM GAS  /var/folders/pt/gxfsd_x53tx3h6kb8dkzftl80000gr/T//ccxqPL1I.s 			page 19


 1016              		.thumb
 1017              		.thumb_func
 1018              		.type	vexIMEClearCounters, %function
 1019              	vexIMEClearCounters:
 1020              	.LFB83:
 1021              		.loc 1 745 0
 1022              		.cfi_startproc
 1023              		@ args = 0, pretend = 0, frame = 8
 1024              		@ frame_needed = 0, uses_anonymous_args = 0
 1025              	.LVL79:
 1026 0000 70B5     		push	{r4, r5, r6, lr}
 1027              	.LCFI13:
 1028              		.cfi_def_cfa_offset 16
 1029              		.cfi_offset 4, -16
 1030              		.cfi_offset 5, -12
 1031              		.cfi_offset 6, -8
 1032              		.cfi_offset 14, -4
 1033              		.loc 1 749 0
 1034 0002 134C     		ldr	r4, .L108
 1035              		.loc 1 745 0
 1036 0004 86B0     		sub	sp, sp, #24
 1037              	.LCFI14:
 1038              		.cfi_def_cfa_offset 40
 1039              		.loc 1 747 0
 1040 0006 06AD     		add	r5, sp, #24
 1041 0008 4A23     		movs	r3, #74
 1042              		.loc 1 745 0
 1043 000a 0646     		mov	r6, r0
 1044              		.loc 1 749 0
 1045 000c 2068     		ldr	r0, [r4, #0]
 1046              	.LVL80:
 1047              		.loc 1 747 0
 1048 000e 05F8013D 		strb	r3, [r5, #-1]!
 1049              	.LVL81:
 1050              		.loc 1 749 0
 1051 0012 FFF7FEFF 		bl	i2cAcquireBus
 1052              	.LVL82:
 1053              		.loc 1 750 0
 1054 0016 0023     		movs	r3, #0
 1055 0018 0093     		str	r3, [sp, #0]
 1056 001a 0193     		str	r3, [sp, #4]
 1057 001c 0423     		movs	r3, #4
 1058 001e 0293     		str	r3, [sp, #8]
 1059 0020 2A46     		mov	r2, r5
 1060 0022 2068     		ldr	r0, [r4, #0]
 1061 0024 7108     		lsrs	r1, r6, #1
 1062 0026 0123     		movs	r3, #1
 1063 0028 FFF7FEFF 		bl	i2cMasterTransmitTimeout
 1064              	.LVL83:
 1065 002c 0546     		mov	r5, r0
 1066              	.LVL84:
 1067              		.loc 1 751 0
 1068 002e 2068     		ldr	r0, [r4, #0]
 1069              	.LVL85:
 1070 0030 FFF7FEFF 		bl	i2cReleaseBus
 1071              	.LVL86:
 1072              		.loc 1 753 0
ARM GAS  /var/folders/pt/gxfsd_x53tx3h6kb8dkzftl80000gr/T//ccxqPL1I.s 			page 20


 1073 0034 4DB1     		cbz	r5, .L104
 1074              		.loc 1 754 0
 1075 0036 2068     		ldr	r0, [r4, #0]
 1076 0038 FFF7FEFF 		bl	i2cGetErrors
 1077              	.LVL87:
 1078 003c 054A     		ldr	r2, .L108+4
 1079 003e 0346     		mov	r3, r0
 1080              		.loc 1 755 0
 1081 0040 1946     		mov	r1, r3
 1082 0042 2846     		mov	r0, r5
 1083              		.loc 1 754 0
 1084 0044 1360     		str	r3, [r2, #0]
 1085              		.loc 1 755 0
 1086 0046 FFF7FEFF 		bl	vexIMEHandleErrors
 1087              	.LVL88:
 1088              	.L104:
 1089              		.loc 1 759 0
 1090 004a 2846     		mov	r0, r5
 1091 004c 06B0     		add	sp, sp, #24
 1092 004e 70BD     		pop	{r4, r5, r6, pc}
 1093              	.L109:
 1094              		.align	2
 1095              	.L108:
 1096 0050 00000000 		.word	.LANCHOR0
 1097 0054 00000000 		.word	.LANCHOR3
 1098              		.cfi_endproc
 1099              	.LFE83:
 1100              		.size	vexIMEClearCounters, .-vexIMEClearCounters
 1101 0058 AFF30080 		.section	.text.vexIMESetScratchpad,"ax",%progbits
 1101      AFF30080 
 1102              		.align	2
 1103              		.p2align 4,,15
 1104              		.global	vexIMESetScratchpad
 1105              		.thumb
 1106              		.thumb_func
 1107              		.type	vexIMESetScratchpad, %function
 1108              	vexIMESetScratchpad:
 1109              	.LFB82:
 1110              		.loc 1 700 0
 1111              		.cfi_startproc
 1112              		@ args = 0, pretend = 0, frame = 0
 1113              		@ frame_needed = 0, uses_anonymous_args = 0
 1114              	.LVL89:
 1115 0000 2DE9F047 		push	{r4, r5, r6, r7, r8, r9, sl, lr}
 1116              	.LCFI15:
 1117              		.cfi_def_cfa_offset 32
 1118              		.cfi_offset 4, -32
 1119              		.cfi_offset 5, -28
 1120              		.cfi_offset 6, -24
 1121              		.cfi_offset 7, -20
 1122              		.cfi_offset 8, -16
 1123              		.cfi_offset 9, -12
 1124              		.cfi_offset 10, -8
 1125              		.cfi_offset 14, -4
 1126 0004 8246     		mov	sl, r0
 1127 0006 84B0     		sub	sp, sp, #16
 1128              	.LCFI16:
ARM GAS  /var/folders/pt/gxfsd_x53tx3h6kb8dkzftl80000gr/T//ccxqPL1I.s 			page 21


 1129              		.cfi_def_cfa_offset 48
 1130              		.loc 1 700 0
 1131 0008 8846     		mov	r8, r1
 1132              		.loc 1 709 0
 1133 000a 0020     		movs	r0, #0
 1134              	.LVL90:
 1135 000c 4021     		movs	r1, #64
 1136              	.LVL91:
 1137              		.loc 1 700 0
 1138 000e 1446     		mov	r4, r2
 1139 0010 1F46     		mov	r7, r3
 1140              		.loc 1 709 0
 1141 0012 FFF7FEFF 		bl	chHeapAlloc
 1142              	.LVL92:
 1143              		.loc 1 711 0
 1144 0016 8146     		mov	r9, r0
 1145              		.loc 1 701 0
 1146 0018 0546     		mov	r5, r0
 1147              		.loc 1 711 0
 1148 001a 18B3     		cbz	r0, .L111
 1149              		.loc 1 713 0
 1150 001c 603C     		subs	r4, r4, #96
 1151 001e 0470     		strb	r4, [r0, #0]
 1152              	.LVL93:
 1153 0020 0546     		mov	r5, r0
 1154              		.loc 1 714 0
 1155 0022 0024     		movs	r4, #0
 1156 0024 37B1     		cbz	r7, .L115
 1157              	.LVL94:
 1158              	.L114:
 1159              		.loc 1 715 0 discriminator 2
 1160 0026 18F80460 		ldrb	r6, [r8, r4]	@ zero_extendqisi2
 1161              		.loc 1 714 0 discriminator 2
 1162 002a 0134     		adds	r4, r4, #1
 1163              	.LVL95:
 1164 002c BC42     		cmp	r4, r7
 1165              		.loc 1 715 0 discriminator 2
 1166 002e 05F8016F 		strb	r6, [r5, #1]!
 1167              		.loc 1 714 0 discriminator 2
 1168 0032 F8DB     		blt	.L114
 1169              	.LVL96:
 1170              	.L115:
 1171              		.loc 1 717 0
 1172 0034 134C     		ldr	r4, .L119
 1173              		.loc 1 718 0
 1174 0036 0025     		movs	r5, #0
 1175              		.loc 1 717 0
 1176 0038 2068     		ldr	r0, [r4, #0]
 1177              	.LVL97:
 1178 003a FFF7FEFF 		bl	i2cAcquireBus
 1179              	.LVL98:
 1180              		.loc 1 718 0
 1181 003e 2068     		ldr	r0, [r4, #0]
 1182 0040 0095     		str	r5, [sp, #0]
 1183 0042 0195     		str	r5, [sp, #4]
 1184 0044 0425     		movs	r5, #4
 1185 0046 4FEA5A01 		lsr	r1, sl, #1
ARM GAS  /var/folders/pt/gxfsd_x53tx3h6kb8dkzftl80000gr/T//ccxqPL1I.s 			page 22


 1186 004a 4A46     		mov	r2, r9
 1187 004c 7B1C     		adds	r3, r7, #1
 1188 004e 0295     		str	r5, [sp, #8]
 1189 0050 FFF7FEFF 		bl	i2cMasterTransmitTimeout
 1190              	.LVL99:
 1191 0054 0546     		mov	r5, r0
 1192              	.LVL100:
 1193              		.loc 1 719 0
 1194 0056 2068     		ldr	r0, [r4, #0]
 1195              	.LVL101:
 1196 0058 FFF7FEFF 		bl	i2cReleaseBus
 1197              	.LVL102:
 1198              		.loc 1 722 0
 1199 005c 4846     		mov	r0, r9
 1200 005e FFF7FEFF 		bl	chHeapFree
 1201              	.LVL103:
 1202              		.loc 1 725 0
 1203 0062 1DB9     		cbnz	r5, .L118
 1204              	.LVL104:
 1205              	.L111:
 1206              		.loc 1 731 0
 1207 0064 2846     		mov	r0, r5
 1208 0066 04B0     		add	sp, sp, #16
 1209 0068 BDE8F087 		pop	{r4, r5, r6, r7, r8, r9, sl, pc}
 1210              	.LVL105:
 1211              	.L118:
 1212              		.loc 1 726 0
 1213 006c 2068     		ldr	r0, [r4, #0]
 1214 006e FFF7FEFF 		bl	i2cGetErrors
 1215              	.LVL106:
 1216 0072 054A     		ldr	r2, .L119+4
 1217 0074 0346     		mov	r3, r0
 1218              		.loc 1 727 0
 1219 0076 1946     		mov	r1, r3
 1220 0078 2846     		mov	r0, r5
 1221              		.loc 1 726 0
 1222 007a 1360     		str	r3, [r2, #0]
 1223              		.loc 1 727 0
 1224 007c FFF7FEFF 		bl	vexIMEHandleErrors
 1225              	.LVL107:
 1226 0080 F0E7     		b	.L111
 1227              	.L120:
 1228 0082 00BF     		.align	2
 1229              	.L119:
 1230 0084 00000000 		.word	.LANCHOR0
 1231 0088 00000000 		.word	.LANCHOR3
 1232              		.cfi_endproc
 1233              	.LFE82:
 1234              		.size	vexIMESetScratchpad, .-vexIMESetScratchpad
 1235 008c AFF30080 		.section	.text.vexIMEGetScratchpad,"ax",%progbits
 1236              		.align	2
 1237              		.p2align 4,,15
 1238              		.global	vexIMEGetScratchpad
 1239              		.thumb
 1240              		.thumb_func
 1241              		.type	vexIMEGetScratchpad, %function
 1242              	vexIMEGetScratchpad:
ARM GAS  /var/folders/pt/gxfsd_x53tx3h6kb8dkzftl80000gr/T//ccxqPL1I.s 			page 23


 1243              	.LFB81:
 1244              		.loc 1 669 0
 1245              		.cfi_startproc
 1246              		@ args = 0, pretend = 0, frame = 8
 1247              		@ frame_needed = 0, uses_anonymous_args = 0
 1248              	.LVL108:
 1249 0000 2DE9F041 		push	{r4, r5, r6, r7, r8, lr}
 1250              	.LCFI17:
 1251              		.cfi_def_cfa_offset 24
 1252              		.cfi_offset 4, -24
 1253              		.cfi_offset 5, -20
 1254              		.cfi_offset 6, -16
 1255              		.cfi_offset 7, -12
 1256              		.cfi_offset 8, -8
 1257              		.cfi_offset 14, -4
 1258              		.loc 1 673 0
 1259 0004 144C     		ldr	r4, .L126
 1260              		.loc 1 669 0
 1261 0006 86B0     		sub	sp, sp, #24
 1262              	.LCFI18:
 1263              		.cfi_def_cfa_offset 48
 1264              		.loc 1 671 0
 1265 0008 6032     		adds	r2, r2, #96
 1266              	.LVL109:
 1267 000a 06AD     		add	r5, sp, #24
 1268              		.loc 1 669 0
 1269 000c 0646     		mov	r6, r0
 1270              		.loc 1 673 0
 1271 000e 2068     		ldr	r0, [r4, #0]
 1272              	.LVL110:
 1273              		.loc 1 669 0
 1274 0010 0F46     		mov	r7, r1
 1275 0012 9846     		mov	r8, r3
 1276              		.loc 1 671 0
 1277 0014 05F8012D 		strb	r2, [r5, #-1]!
 1278              	.LVL111:
 1279              		.loc 1 673 0
 1280 0018 FFF7FEFF 		bl	i2cAcquireBus
 1281              	.LVL112:
 1282              		.loc 1 674 0
 1283 001c 0423     		movs	r3, #4
 1284 001e 0293     		str	r3, [sp, #8]
 1285 0020 2A46     		mov	r2, r5
 1286 0022 2068     		ldr	r0, [r4, #0]
 1287 0024 8DE88001 		stmia	sp, {r7, r8}
 1288 0028 7108     		lsrs	r1, r6, #1
 1289 002a 0123     		movs	r3, #1
 1290 002c FFF7FEFF 		bl	i2cMasterTransmitTimeout
 1291              	.LVL113:
 1292 0030 0546     		mov	r5, r0
 1293              	.LVL114:
 1294              		.loc 1 675 0
 1295 0032 2068     		ldr	r0, [r4, #0]
 1296              	.LVL115:
 1297 0034 FFF7FEFF 		bl	i2cReleaseBus
 1298              	.LVL116:
 1299              		.loc 1 677 0
ARM GAS  /var/folders/pt/gxfsd_x53tx3h6kb8dkzftl80000gr/T//ccxqPL1I.s 			page 24


 1300 0038 4DB1     		cbz	r5, .L122
 1301              		.loc 1 678 0
 1302 003a 2068     		ldr	r0, [r4, #0]
 1303 003c FFF7FEFF 		bl	i2cGetErrors
 1304              	.LVL117:
 1305 0040 064A     		ldr	r2, .L126+4
 1306 0042 0346     		mov	r3, r0
 1307              		.loc 1 679 0
 1308 0044 1946     		mov	r1, r3
 1309 0046 2846     		mov	r0, r5
 1310              		.loc 1 678 0
 1311 0048 1360     		str	r3, [r2, #0]
 1312              		.loc 1 679 0
 1313 004a FFF7FEFF 		bl	vexIMEHandleErrors
 1314              	.LVL118:
 1315              	.L122:
 1316              		.loc 1 683 0
 1317 004e 2846     		mov	r0, r5
 1318 0050 06B0     		add	sp, sp, #24
 1319 0052 BDE8F081 		pop	{r4, r5, r6, r7, r8, pc}
 1320              	.L127:
 1321 0056 00BF     		.align	2
 1322              	.L126:
 1323 0058 00000000 		.word	.LANCHOR0
 1324 005c 00000000 		.word	.LANCHOR3
 1325              		.cfi_endproc
 1326              	.LFE81:
 1327              		.size	vexIMEGetScratchpad, .-vexIMEGetScratchpad
 1328              		.section	.text.vexIMEGetData,"ax",%progbits
 1329              		.align	2
 1330              		.p2align 4,,15
 1331              		.global	vexIMEGetData
 1332              		.thumb
 1333              		.thumb_func
 1334              		.type	vexIMEGetData, %function
 1335              	vexIMEGetData:
 1336              	.LFB80:
 1337              		.loc 1 638 0
 1338              		.cfi_startproc
 1339              		@ args = 0, pretend = 0, frame = 8
 1340              		@ frame_needed = 0, uses_anonymous_args = 0
 1341              	.LVL119:
 1342 0000 F0B5     		push	{r4, r5, r6, r7, lr}
 1343              	.LCFI19:
 1344              		.cfi_def_cfa_offset 20
 1345              		.cfi_offset 4, -20
 1346              		.cfi_offset 5, -16
 1347              		.cfi_offset 6, -12
 1348              		.cfi_offset 7, -8
 1349              		.cfi_offset 14, -4
 1350              		.loc 1 642 0
 1351 0002 144C     		ldr	r4, .L133
 1352              		.loc 1 638 0
 1353 0004 87B0     		sub	sp, sp, #28
 1354              	.LCFI20:
 1355              		.cfi_def_cfa_offset 48
 1356              		.loc 1 640 0
ARM GAS  /var/folders/pt/gxfsd_x53tx3h6kb8dkzftl80000gr/T//ccxqPL1I.s 			page 25


 1357 0006 06AD     		add	r5, sp, #24
 1358 0008 4023     		movs	r3, #64
 1359              		.loc 1 638 0
 1360 000a 0646     		mov	r6, r0
 1361              		.loc 1 642 0
 1362 000c 2068     		ldr	r0, [r4, #0]
 1363              	.LVL120:
 1364              		.loc 1 640 0
 1365 000e 05F8013D 		strb	r3, [r5, #-1]!
 1366              	.LVL121:
 1367              		.loc 1 638 0
 1368 0012 0F46     		mov	r7, r1
 1369              		.loc 1 642 0
 1370 0014 FFF7FEFF 		bl	i2cAcquireBus
 1371              	.LVL122:
 1372              		.loc 1 643 0
 1373 0018 0822     		movs	r2, #8
 1374 001a 0192     		str	r2, [sp, #4]
 1375 001c 0422     		movs	r2, #4
 1376 001e 0292     		str	r2, [sp, #8]
 1377 0020 2068     		ldr	r0, [r4, #0]
 1378 0022 2A46     		mov	r2, r5
 1379 0024 0097     		str	r7, [sp, #0]
 1380 0026 7108     		lsrs	r1, r6, #1
 1381 0028 0123     		movs	r3, #1
 1382 002a FFF7FEFF 		bl	i2cMasterTransmitTimeout
 1383              	.LVL123:
 1384 002e 0546     		mov	r5, r0
 1385              	.LVL124:
 1386              		.loc 1 644 0
 1387 0030 2068     		ldr	r0, [r4, #0]
 1388              	.LVL125:
 1389 0032 FFF7FEFF 		bl	i2cReleaseBus
 1390              	.LVL126:
 1391              		.loc 1 646 0
 1392 0036 4DB1     		cbz	r5, .L129
 1393              		.loc 1 647 0
 1394 0038 2068     		ldr	r0, [r4, #0]
 1395 003a FFF7FEFF 		bl	i2cGetErrors
 1396              	.LVL127:
 1397 003e 064A     		ldr	r2, .L133+4
 1398 0040 0346     		mov	r3, r0
 1399              		.loc 1 648 0
 1400 0042 1946     		mov	r1, r3
 1401 0044 2846     		mov	r0, r5
 1402              		.loc 1 647 0
 1403 0046 1360     		str	r3, [r2, #0]
 1404              		.loc 1 648 0
 1405 0048 FFF7FEFF 		bl	vexIMEHandleErrors
 1406              	.LVL128:
 1407              	.L129:
 1408              		.loc 1 652 0
 1409 004c 2846     		mov	r0, r5
 1410 004e 07B0     		add	sp, sp, #28
 1411 0050 F0BD     		pop	{r4, r5, r6, r7, pc}
 1412              	.L134:
 1413 0052 00BF     		.align	2
ARM GAS  /var/folders/pt/gxfsd_x53tx3h6kb8dkzftl80000gr/T//ccxqPL1I.s 			page 26


 1414              	.L133:
 1415 0054 00000000 		.word	.LANCHOR0
 1416 0058 00000000 		.word	.LANCHOR3
 1417              		.cfi_endproc
 1418              	.LFE80:
 1419              		.size	vexIMEGetData, .-vexIMEGetData
 1420 005c AFF30080 		.section	.text.vexIMEUpdateCounts,"ax",%progbits
 1421              		.align	2
 1422              		.p2align 4,,15
 1423              		.global	vexIMEUpdateCounts
 1424              		.thumb
 1425              		.thumb_func
 1426              		.type	vexIMEUpdateCounts, %function
 1427              	vexIMEUpdateCounts:
 1428              	.LFB73:
 1429              		.loc 1 356 0
 1430              		.cfi_startproc
 1431              		@ args = 0, pretend = 0, frame = 0
 1432              		@ frame_needed = 0, uses_anonymous_args = 0
 1433              	.LVL129:
 1434 0000 70B5     		push	{r4, r5, r6, lr}
 1435              	.LCFI21:
 1436              		.cfi_def_cfa_offset 16
 1437              		.cfi_offset 4, -16
 1438              		.cfi_offset 5, -12
 1439              		.cfi_offset 6, -8
 1440              		.cfi_offset 14, -4
 1441              		.loc 1 359 0
 1442 0002 0446     		mov	r4, r0
 1443 0004 0028     		cmp	r0, #0
 1444 0006 35D0     		beq	.L140
 1445              		.loc 1 363 0
 1446 0008 436E     		ldr	r3, [r0, #100]
 1447              		.loc 1 366 0
 1448 000a 0146     		mov	r1, r0
 1449              		.loc 1 363 0
 1450 000c 0133     		adds	r3, r3, #1
 1451              		.loc 1 366 0
 1452 000e 11F8360B 		ldrb	r0, [r1], #54	@ zero_extendqisi2
 1453              	.LVL130:
 1454              		.loc 1 363 0
 1455 0012 6366     		str	r3, [r4, #100]
 1456              		.loc 1 366 0
 1457 0014 FFF7FEFF 		bl	vexIMEGetData
 1458              	.LVL131:
 1459 0018 40BB     		cbnz	r0, .L137
 1460              		.loc 1 369 0
 1461 001a 94F83830 		ldrb	r3, [r4, #56]	@ zero_extendqisi2
 1462 001e 94F83620 		ldrb	r2, [r4, #54]	@ zero_extendqisi2
 1463 0022 1B06     		lsls	r3, r3, #24
 1464 0024 94F83710 		ldrb	r1, [r4, #55]	@ zero_extendqisi2
 1465 0028 43EA0223 		orr	r3, r3, r2, lsl #8
 1466 002c 0B43     		orrs	r3, r3, r1
 1467 002e 94F83960 		ldrb	r6, [r4, #57]	@ zero_extendqisi2
 1468              		.loc 1 370 0
 1469 0032 94F83A50 		ldrb	r5, [r4, #58]	@ zero_extendqisi2
 1470 0036 94F83B20 		ldrb	r2, [r4, #59]	@ zero_extendqisi2
ARM GAS  /var/folders/pt/gxfsd_x53tx3h6kb8dkzftl80000gr/T//ccxqPL1I.s 			page 27


 1471              		.loc 1 372 0
 1472 003a E16D     		ldr	r1, [r4, #92]
 1473              		.loc 1 369 0
 1474 003c 43EA0643 		orr	r3, r3, r6, lsl #16
 1475              		.loc 1 370 0
 1476 0040 02EB0522 		add	r2, r2, r5, lsl #8
 1477              		.loc 1 372 0
 1478 0044 B1F1FE4F 		cmp	r1, #2130706432
 1479              		.loc 1 369 0
 1480 0048 A364     		str	r3, [r4, #72]
 1481              		.loc 1 370 0
 1482 004a 2265     		str	r2, [r4, #80]
 1483              		.loc 1 372 0
 1484 004c 0CD0     		beq	.L138
 1485              		.loc 1 374 0
 1486 004e 591A     		subs	r1, r3, r1
 1487 0050 6165     		str	r1, [r4, #84]
 1488              		.loc 1 377 0
 1489 0052 82B1     		cbz	r2, .L139
 1490              		.loc 1 378 0
 1491 0054 256E     		ldr	r5, [r4, #96]
 1492 0056 44F25871 		movw	r1, #18264
 1493 005a 05FB02F2 		mul	r2, r5, r2
 1494 005e C0F6F851 		movt	r1, 3576
 1495 0062 91FBF2F1 		sdiv	r1, r1, r2
 1496 0066 A165     		str	r1, [r4, #88]
 1497              	.L138:
 1498              		.loc 1 383 0
 1499 0068 E365     		str	r3, [r4, #92]
 1500 006a 70BD     		pop	{r4, r5, r6, pc}
 1501              	.L137:
 1502              		.loc 1 388 0
 1503 006c A36E     		ldr	r3, [r4, #104]
 1504 006e 0133     		adds	r3, r3, #1
 1505 0070 A366     		str	r3, [r4, #104]
 1506 0072 70BD     		pop	{r4, r5, r6, pc}
 1507              	.LVL132:
 1508              	.L140:
 1509              		.loc 1 392 0
 1510 0074 70BD     		pop	{r4, r5, r6, pc}
 1511              	.LVL133:
 1512              	.L139:
 1513              		.loc 1 380 0
 1514 0076 A065     		str	r0, [r4, #88]
 1515              		.loc 1 383 0
 1516 0078 E365     		str	r3, [r4, #92]
 1517 007a 70BD     		pop	{r4, r5, r6, pc}
 1518              		.cfi_endproc
 1519              	.LFE73:
 1520              		.size	vexIMEUpdateCounts, .-vexIMEUpdateCounts
 1521 007c AFF30080 		.section	.text.vexIMEGetStatus,"ax",%progbits
 1522              		.align	2
 1523              		.p2align 4,,15
 1524              		.global	vexIMEGetStatus
 1525              		.thumb
 1526              		.thumb_func
 1527              		.type	vexIMEGetStatus, %function
ARM GAS  /var/folders/pt/gxfsd_x53tx3h6kb8dkzftl80000gr/T//ccxqPL1I.s 			page 28


 1528              	vexIMEGetStatus:
 1529              	.LFB79:
 1530              		.loc 1 609 0
 1531              		.cfi_startproc
 1532              		@ args = 0, pretend = 0, frame = 8
 1533              		@ frame_needed = 0, uses_anonymous_args = 0
 1534              	.LVL134:
 1535 0000 F0B5     		push	{r4, r5, r6, r7, lr}
 1536              	.LCFI22:
 1537              		.cfi_def_cfa_offset 20
 1538              		.cfi_offset 4, -20
 1539              		.cfi_offset 5, -16
 1540              		.cfi_offset 6, -12
 1541              		.cfi_offset 7, -8
 1542              		.cfi_offset 14, -4
 1543              		.loc 1 613 0
 1544 0002 134C     		ldr	r4, .L149
 1545              		.loc 1 609 0
 1546 0004 87B0     		sub	sp, sp, #28
 1547              	.LCFI23:
 1548              		.cfi_def_cfa_offset 48
 1549              		.loc 1 611 0
 1550 0006 06AD     		add	r5, sp, #24
 1551 0008 2023     		movs	r3, #32
 1552              		.loc 1 609 0
 1553 000a 0646     		mov	r6, r0
 1554              		.loc 1 613 0
 1555 000c 2068     		ldr	r0, [r4, #0]
 1556              	.LVL135:
 1557              		.loc 1 611 0
 1558 000e 05F8013D 		strb	r3, [r5, #-1]!
 1559              	.LVL136:
 1560              		.loc 1 609 0
 1561 0012 0F46     		mov	r7, r1
 1562              		.loc 1 613 0
 1563 0014 FFF7FEFF 		bl	i2cAcquireBus
 1564              	.LVL137:
 1565              		.loc 1 614 0
 1566 0018 0423     		movs	r3, #4
 1567 001a 0193     		str	r3, [sp, #4]
 1568 001c 0293     		str	r3, [sp, #8]
 1569 001e 2A46     		mov	r2, r5
 1570 0020 2068     		ldr	r0, [r4, #0]
 1571 0022 0097     		str	r7, [sp, #0]
 1572 0024 7108     		lsrs	r1, r6, #1
 1573 0026 0123     		movs	r3, #1
 1574 0028 FFF7FEFF 		bl	i2cMasterTransmitTimeout
 1575              	.LVL138:
 1576 002c 0546     		mov	r5, r0
 1577              	.LVL139:
 1578              		.loc 1 615 0
 1579 002e 2068     		ldr	r0, [r4, #0]
 1580              	.LVL140:
 1581 0030 FFF7FEFF 		bl	i2cReleaseBus
 1582              	.LVL141:
 1583              		.loc 1 617 0
 1584 0034 4DB1     		cbz	r5, .L145
ARM GAS  /var/folders/pt/gxfsd_x53tx3h6kb8dkzftl80000gr/T//ccxqPL1I.s 			page 29


 1585              		.loc 1 618 0
 1586 0036 2068     		ldr	r0, [r4, #0]
 1587 0038 FFF7FEFF 		bl	i2cGetErrors
 1588              	.LVL142:
 1589 003c 054A     		ldr	r2, .L149+4
 1590 003e 0346     		mov	r3, r0
 1591              		.loc 1 619 0
 1592 0040 1946     		mov	r1, r3
 1593 0042 2846     		mov	r0, r5
 1594              		.loc 1 618 0
 1595 0044 1360     		str	r3, [r2, #0]
 1596              		.loc 1 619 0
 1597 0046 FFF7FEFF 		bl	vexIMEHandleErrors
 1598              	.LVL143:
 1599              	.L145:
 1600              		.loc 1 623 0
 1601 004a 2846     		mov	r0, r5
 1602 004c 07B0     		add	sp, sp, #28
 1603 004e F0BD     		pop	{r4, r5, r6, r7, pc}
 1604              	.L150:
 1605              		.align	2
 1606              	.L149:
 1607 0050 00000000 		.word	.LANCHOR0
 1608 0054 00000000 		.word	.LANCHOR3
 1609              		.cfi_endproc
 1610              	.LFE79:
 1611              		.size	vexIMEGetStatus, .-vexIMEGetStatus
 1612 0058 AFF30080 		.section	.text.vexIMEGetDeviceId,"ax",%progbits
 1612      AFF30080 
 1613              		.align	2
 1614              		.p2align 4,,15
 1615              		.global	vexIMEGetDeviceId
 1616              		.thumb
 1617              		.thumb_func
 1618              		.type	vexIMEGetDeviceId, %function
 1619              	vexIMEGetDeviceId:
 1620              	.LFB78:
 1621              		.loc 1 580 0
 1622              		.cfi_startproc
 1623              		@ args = 0, pretend = 0, frame = 8
 1624              		@ frame_needed = 0, uses_anonymous_args = 0
 1625              	.LVL144:
 1626 0000 F0B5     		push	{r4, r5, r6, r7, lr}
 1627              	.LCFI24:
 1628              		.cfi_def_cfa_offset 20
 1629              		.cfi_offset 4, -20
 1630              		.cfi_offset 5, -16
 1631              		.cfi_offset 6, -12
 1632              		.cfi_offset 7, -8
 1633              		.cfi_offset 14, -4
 1634              		.loc 1 584 0
 1635 0002 144C     		ldr	r4, .L156
 1636              		.loc 1 580 0
 1637 0004 87B0     		sub	sp, sp, #28
 1638              	.LCFI25:
 1639              		.cfi_def_cfa_offset 48
 1640              		.loc 1 582 0
ARM GAS  /var/folders/pt/gxfsd_x53tx3h6kb8dkzftl80000gr/T//ccxqPL1I.s 			page 30


 1641 0006 06AD     		add	r5, sp, #24
 1642 0008 1023     		movs	r3, #16
 1643              		.loc 1 580 0
 1644 000a 0646     		mov	r6, r0
 1645              		.loc 1 584 0
 1646 000c 2068     		ldr	r0, [r4, #0]
 1647              	.LVL145:
 1648              		.loc 1 582 0
 1649 000e 05F8013D 		strb	r3, [r5, #-1]!
 1650              	.LVL146:
 1651              		.loc 1 580 0
 1652 0012 0F46     		mov	r7, r1
 1653              		.loc 1 584 0
 1654 0014 FFF7FEFF 		bl	i2cAcquireBus
 1655              	.LVL147:
 1656              		.loc 1 585 0
 1657 0018 0822     		movs	r2, #8
 1658 001a 0192     		str	r2, [sp, #4]
 1659 001c 0422     		movs	r2, #4
 1660 001e 0292     		str	r2, [sp, #8]
 1661 0020 2068     		ldr	r0, [r4, #0]
 1662 0022 2A46     		mov	r2, r5
 1663 0024 0097     		str	r7, [sp, #0]
 1664 0026 7108     		lsrs	r1, r6, #1
 1665 0028 0123     		movs	r3, #1
 1666 002a FFF7FEFF 		bl	i2cMasterTransmitTimeout
 1667              	.LVL148:
 1668 002e 0546     		mov	r5, r0
 1669              	.LVL149:
 1670              		.loc 1 586 0
 1671 0030 2068     		ldr	r0, [r4, #0]
 1672              	.LVL150:
 1673 0032 FFF7FEFF 		bl	i2cReleaseBus
 1674              	.LVL151:
 1675              		.loc 1 588 0
 1676 0036 4DB1     		cbz	r5, .L152
 1677              		.loc 1 589 0
 1678 0038 2068     		ldr	r0, [r4, #0]
 1679 003a FFF7FEFF 		bl	i2cGetErrors
 1680              	.LVL152:
 1681 003e 064A     		ldr	r2, .L156+4
 1682 0040 0346     		mov	r3, r0
 1683              		.loc 1 590 0
 1684 0042 1946     		mov	r1, r3
 1685 0044 2846     		mov	r0, r5
 1686              		.loc 1 589 0
 1687 0046 1360     		str	r3, [r2, #0]
 1688              		.loc 1 590 0
 1689 0048 FFF7FEFF 		bl	vexIMEHandleErrors
 1690              	.LVL153:
 1691              	.L152:
 1692              		.loc 1 594 0
 1693 004c 2846     		mov	r0, r5
 1694 004e 07B0     		add	sp, sp, #28
 1695 0050 F0BD     		pop	{r4, r5, r6, r7, pc}
 1696              	.L157:
 1697 0052 00BF     		.align	2
ARM GAS  /var/folders/pt/gxfsd_x53tx3h6kb8dkzftl80000gr/T//ccxqPL1I.s 			page 31


 1698              	.L156:
 1699 0054 00000000 		.word	.LANCHOR0
 1700 0058 00000000 		.word	.LANCHOR3
 1701              		.cfi_endproc
 1702              	.LFE78:
 1703              		.size	vexIMEGetDeviceId, .-vexIMEGetDeviceId
 1704 005c AFF30080 		.section	.text.vexIMEGetVendor,"ax",%progbits
 1705              		.align	2
 1706              		.p2align 4,,15
 1707              		.global	vexIMEGetVendor
 1708              		.thumb
 1709              		.thumb_func
 1710              		.type	vexIMEGetVendor, %function
 1711              	vexIMEGetVendor:
 1712              	.LFB77:
 1713              		.loc 1 551 0
 1714              		.cfi_startproc
 1715              		@ args = 0, pretend = 0, frame = 8
 1716              		@ frame_needed = 0, uses_anonymous_args = 0
 1717              	.LVL154:
 1718 0000 2DE9F041 		push	{r4, r5, r6, r7, r8, lr}
 1719              	.LCFI26:
 1720              		.cfi_def_cfa_offset 24
 1721              		.cfi_offset 4, -24
 1722              		.cfi_offset 5, -20
 1723              		.cfi_offset 6, -16
 1724              		.cfi_offset 7, -12
 1725              		.cfi_offset 8, -8
 1726              		.cfi_offset 14, -4
 1727              		.loc 1 555 0
 1728 0004 144C     		ldr	r4, .L163
 1729              		.loc 1 551 0
 1730 0006 86B0     		sub	sp, sp, #24
 1731              	.LCFI27:
 1732              		.cfi_def_cfa_offset 48
 1733              		.loc 1 553 0
 1734 0008 06AD     		add	r5, sp, #24
 1735              		.loc 1 551 0
 1736 000a 0746     		mov	r7, r0
 1737              		.loc 1 553 0
 1738 000c 0826     		movs	r6, #8
 1739              		.loc 1 555 0
 1740 000e 2068     		ldr	r0, [r4, #0]
 1741              	.LVL155:
 1742              		.loc 1 551 0
 1743 0010 8846     		mov	r8, r1
 1744              		.loc 1 553 0
 1745 0012 05F8016D 		strb	r6, [r5, #-1]!
 1746              	.LVL156:
 1747              		.loc 1 555 0
 1748 0016 FFF7FEFF 		bl	i2cAcquireBus
 1749              	.LVL157:
 1750              		.loc 1 556 0
 1751 001a 0422     		movs	r2, #4
 1752 001c 0292     		str	r2, [sp, #8]
 1753 001e 2068     		ldr	r0, [r4, #0]
 1754 0020 2A46     		mov	r2, r5
ARM GAS  /var/folders/pt/gxfsd_x53tx3h6kb8dkzftl80000gr/T//ccxqPL1I.s 			page 32


 1755 0022 CDF80080 		str	r8, [sp, #0]
 1756 0026 0196     		str	r6, [sp, #4]
 1757 0028 7908     		lsrs	r1, r7, #1
 1758 002a 0123     		movs	r3, #1
 1759 002c FFF7FEFF 		bl	i2cMasterTransmitTimeout
 1760              	.LVL158:
 1761 0030 0546     		mov	r5, r0
 1762              	.LVL159:
 1763              		.loc 1 557 0
 1764 0032 2068     		ldr	r0, [r4, #0]
 1765              	.LVL160:
 1766 0034 FFF7FEFF 		bl	i2cReleaseBus
 1767              	.LVL161:
 1768              		.loc 1 559 0
 1769 0038 4DB1     		cbz	r5, .L159
 1770              		.loc 1 560 0
 1771 003a 2068     		ldr	r0, [r4, #0]
 1772 003c FFF7FEFF 		bl	i2cGetErrors
 1773              	.LVL162:
 1774 0040 064A     		ldr	r2, .L163+4
 1775 0042 0346     		mov	r3, r0
 1776              		.loc 1 561 0
 1777 0044 1946     		mov	r1, r3
 1778 0046 2846     		mov	r0, r5
 1779              		.loc 1 560 0
 1780 0048 1360     		str	r3, [r2, #0]
 1781              		.loc 1 561 0
 1782 004a FFF7FEFF 		bl	vexIMEHandleErrors
 1783              	.LVL163:
 1784              	.L159:
 1785              		.loc 1 565 0
 1786 004e 2846     		mov	r0, r5
 1787 0050 06B0     		add	sp, sp, #24
 1788 0052 BDE8F081 		pop	{r4, r5, r6, r7, r8, pc}
 1789              	.L164:
 1790 0056 00BF     		.align	2
 1791              	.L163:
 1792 0058 00000000 		.word	.LANCHOR0
 1793 005c 00000000 		.word	.LANCHOR3
 1794              		.cfi_endproc
 1795              	.LFE77:
 1796              		.size	vexIMEGetVendor, .-vexIMEGetVendor
 1797              		.section	.text.vexIMEGetVersion,"ax",%progbits
 1798              		.align	2
 1799              		.p2align 4,,15
 1800              		.global	vexIMEGetVersion
 1801              		.thumb
 1802              		.thumb_func
 1803              		.type	vexIMEGetVersion, %function
 1804              	vexIMEGetVersion:
 1805              	.LFB76:
 1806              		.loc 1 522 0
 1807              		.cfi_startproc
 1808              		@ args = 0, pretend = 0, frame = 8
 1809              		@ frame_needed = 0, uses_anonymous_args = 0
 1810              	.LVL164:
 1811 0000 F0B5     		push	{r4, r5, r6, r7, lr}
ARM GAS  /var/folders/pt/gxfsd_x53tx3h6kb8dkzftl80000gr/T//ccxqPL1I.s 			page 33


 1812              	.LCFI28:
 1813              		.cfi_def_cfa_offset 20
 1814              		.cfi_offset 4, -20
 1815              		.cfi_offset 5, -16
 1816              		.cfi_offset 6, -12
 1817              		.cfi_offset 7, -8
 1818              		.cfi_offset 14, -4
 1819              		.loc 1 526 0
 1820 0002 144C     		ldr	r4, .L170
 1821              		.loc 1 522 0
 1822 0004 87B0     		sub	sp, sp, #28
 1823              	.LCFI29:
 1824              		.cfi_def_cfa_offset 48
 1825              		.loc 1 524 0
 1826 0006 06AD     		add	r5, sp, #24
 1827 0008 0023     		movs	r3, #0
 1828              		.loc 1 522 0
 1829 000a 0646     		mov	r6, r0
 1830              		.loc 1 526 0
 1831 000c 2068     		ldr	r0, [r4, #0]
 1832              	.LVL165:
 1833              		.loc 1 524 0
 1834 000e 05F8013D 		strb	r3, [r5, #-1]!
 1835              	.LVL166:
 1836              		.loc 1 522 0
 1837 0012 0F46     		mov	r7, r1
 1838              		.loc 1 526 0
 1839 0014 FFF7FEFF 		bl	i2cAcquireBus
 1840              	.LVL167:
 1841              		.loc 1 527 0
 1842 0018 0822     		movs	r2, #8
 1843 001a 0192     		str	r2, [sp, #4]
 1844 001c 0422     		movs	r2, #4
 1845 001e 0292     		str	r2, [sp, #8]
 1846 0020 2068     		ldr	r0, [r4, #0]
 1847 0022 2A46     		mov	r2, r5
 1848 0024 0097     		str	r7, [sp, #0]
 1849 0026 7108     		lsrs	r1, r6, #1
 1850 0028 0123     		movs	r3, #1
 1851 002a FFF7FEFF 		bl	i2cMasterTransmitTimeout
 1852              	.LVL168:
 1853 002e 0546     		mov	r5, r0
 1854              	.LVL169:
 1855              		.loc 1 528 0
 1856 0030 2068     		ldr	r0, [r4, #0]
 1857              	.LVL170:
 1858 0032 FFF7FEFF 		bl	i2cReleaseBus
 1859              	.LVL171:
 1860              		.loc 1 530 0
 1861 0036 4DB1     		cbz	r5, .L166
 1862              		.loc 1 531 0
 1863 0038 2068     		ldr	r0, [r4, #0]
 1864 003a FFF7FEFF 		bl	i2cGetErrors
 1865              	.LVL172:
 1866 003e 064A     		ldr	r2, .L170+4
 1867 0040 0346     		mov	r3, r0
 1868              		.loc 1 532 0
ARM GAS  /var/folders/pt/gxfsd_x53tx3h6kb8dkzftl80000gr/T//ccxqPL1I.s 			page 34


 1869 0042 1946     		mov	r1, r3
 1870 0044 2846     		mov	r0, r5
 1871              		.loc 1 531 0
 1872 0046 1360     		str	r3, [r2, #0]
 1873              		.loc 1 532 0
 1874 0048 FFF7FEFF 		bl	vexIMEHandleErrors
 1875              	.LVL173:
 1876              	.L166:
 1877              		.loc 1 536 0
 1878 004c 2846     		mov	r0, r5
 1879 004e 07B0     		add	sp, sp, #28
 1880 0050 F0BD     		pop	{r4, r5, r6, r7, pc}
 1881              	.L171:
 1882 0052 00BF     		.align	2
 1883              	.L170:
 1884 0054 00000000 		.word	.LANCHOR0
 1885 0058 00000000 		.word	.LANCHOR3
 1886              		.cfi_endproc
 1887              	.LFE76:
 1888              		.size	vexIMEGetVersion, .-vexIMEGetVersion
 1889 005c AFF30080 		.section	.text.vexIMEFindEncoders,"ax",%progbits
 1890              		.align	2
 1891              		.p2align 4,,15
 1892              		.global	vexIMEFindEncoders
 1893              		.thumb
 1894              		.thumb_func
 1895              		.type	vexIMEFindEncoders, %function
 1896              	vexIMEFindEncoders:
 1897              	.LFB75:
 1898              		.loc 1 425 0
 1899              		.cfi_startproc
 1900              		@ args = 0, pretend = 0, frame = 0
 1901              		@ frame_needed = 0, uses_anonymous_args = 0
 1902              	.LVL174:
 1903 0000 2DE9F84F 		push	{r3, r4, r5, r6, r7, r8, r9, sl, fp, lr}
 1904              	.LCFI30:
 1905              		.cfi_def_cfa_offset 40
 1906              		.cfi_offset 3, -40
 1907              		.cfi_offset 4, -36
 1908              		.cfi_offset 5, -32
 1909              		.cfi_offset 6, -28
 1910              		.cfi_offset 7, -24
 1911              		.cfi_offset 8, -20
 1912              		.cfi_offset 9, -16
 1913              		.cfi_offset 10, -12
 1914              		.cfi_offset 11, -8
 1915              		.cfi_offset 14, -4
 1916              		.loc 1 433 0
 1917 0004 384F     		ldr	r7, .L184
 1918              		.loc 1 430 0
 1919 0006 FFF7FEFF 		bl	vexIMEResetAll
 1920              	.LVL175:
 1921              		.loc 1 433 0
 1922 000a 0026     		movs	r6, #0
 1923              		.loc 1 435 0
 1924 000c 2023     		movs	r3, #32
 1925              		.loc 1 433 0
ARM GAS  /var/folders/pt/gxfsd_x53tx3h6kb8dkzftl80000gr/T//ccxqPL1I.s 			page 35


 1926 000e 3E81     		strh	r6, [r7, #8]	@ movhi
 1927              		.loc 1 434 0
 1928 0010 FE82     		strh	r6, [r7, #22]	@ movhi
 1929              		.loc 1 435 0
 1930 0012 7B81     		strh	r3, [r7, #10]	@ movhi
 1931              		.loc 1 436 0
 1932 0014 3E83     		strh	r6, [r7, #24]	@ movhi
 1933              		.loc 1 442 0
 1934 0016 3D46     		mov	r5, r7
 1935 0018 4FF06C08 		mov	r8, #108
 1936              		.loc 1 457 0
 1937 001c 4FF00109 		mov	r9, #1
 1938              		.loc 1 477 0
 1939 0020 44F6904B 		movw	fp, #19600
 1940              	.LVL176:
 1941              	.L179:
 1942              		.loc 1 442 0
 1943 0024 08FB0674 		mla	r4, r8, r6, r7
 1944 0028 1834     		adds	r4, r4, #24
 1945 002a 04F1040A 		add	sl, r4, #4
 1946              	.LVL177:
 1947              		.loc 1 443 0
 1948 002e 5046     		mov	r0, sl
 1949 0030 FFF7FEFF 		bl	vexIMEDataInit
 1950              	.LVL178:
 1951              		.loc 1 447 0
 1952 0034 2079     		ldrb	r0, [r4, #4]	@ zero_extendqisi2
 1953 0036 FFF7FEFF 		bl	vexIMEEnableTermination
 1954              	.LVL179:
 1955 003a 0028     		cmp	r0, #0
 1956 003c 50D1     		bne	.L173
 1957              		.loc 1 450 0
 1958 003e 2A89     		ldrh	r2, [r5, #8]
 1959              		.loc 1 453 0
 1960 0040 A97A     		ldrb	r1, [r5, #10]	@ zero_extendqisi2
 1961              		.loc 1 450 0
 1962 0042 0132     		adds	r2, r2, #1
 1963              		.loc 1 453 0
 1964 0044 5046     		mov	r0, sl
 1965              		.loc 1 450 0
 1966 0046 2A81     		strh	r2, [r5, #8]	@ movhi
 1967              		.loc 1 453 0
 1968 0048 FFF7FEFF 		bl	vexIMESetAddr
 1969              	.LVL180:
 1970              		.loc 1 454 0
 1971 004c 6A89     		ldrh	r2, [r5, #10]
 1972              		.loc 1 457 0
 1973 004e 0120     		movs	r0, #1
 1974              		.loc 1 454 0
 1975 0050 0232     		adds	r2, r2, #2
 1976 0052 6A81     		strh	r2, [r5, #10]	@ movhi
 1977              		.loc 1 457 0
 1978 0054 FFF7FEFF 		bl	chThdSleep
 1979              	.LVL181:
 1980              		.loc 1 460 0
 1981 0058 04F10A01 		add	r1, r4, #10
 1982 005c 2079     		ldrb	r0, [r4, #4]	@ zero_extendqisi2
ARM GAS  /var/folders/pt/gxfsd_x53tx3h6kb8dkzftl80000gr/T//ccxqPL1I.s 			page 36


 1983 005e FFF7FEFF 		bl	vexIMEGetVersion
 1984              	.LVL182:
 1985              		.loc 1 461 0
 1986 0062 04F11A01 		add	r1, r4, #26
 1987 0066 2079     		ldrb	r0, [r4, #4]	@ zero_extendqisi2
 1988 0068 FFF7FEFF 		bl	vexIMEGetVendor
 1989              	.LVL183:
 1990              		.loc 1 462 0
 1991 006c 04F12A01 		add	r1, r4, #42
 1992 0070 2079     		ldrb	r0, [r4, #4]	@ zero_extendqisi2
 1993 0072 FFF7FEFF 		bl	vexIMEGetDeviceId
 1994              	.LVL184:
 1995              		.loc 1 465 0
 1996 0076 2079     		ldrb	r0, [r4, #4]	@ zero_extendqisi2
 1997 0078 FFF7FEFF 		bl	vexIMEClearCounters
 1998              	.LVL185:
 1999              		.loc 1 471 0
 2000 007c 9AF80120 		ldrb	r2, [sl, #1]	@ zero_extendqisi2
 2001 0080 012A     		cmp	r2, #1
 2002              		.loc 1 477 0
 2003 0082 08BF     		it	eq
 2004 0084 CAF860B0 		streq	fp, [sl, #96]
 2005              		.loc 1 471 0
 2006 0088 10D0     		beq	.L178
 2007              		.loc 1 474 0
 2008 008a 3CBF     		itt	cc
 2009 008c 41F65A53 		movwcc	r3, #7514
 2010 0090 CAF86030 		strcc	r3, [sl, #96]
 2011              		.loc 1 471 0
 2012 0094 0AD3     		bcc	.L178
 2013 0096 022A     		cmp	r2, #2
 2014              		.loc 1 483 0
 2015 0098 1CBF     		itt	ne
 2016 009a 42F24863 		movwne	r3, #9800
 2017 009e CAF86030 		strne	r3, [sl, #96]
 2018              		.loc 1 471 0
 2019 00a2 03D1     		bne	.L178
 2020              		.loc 1 480 0
 2021 00a4 42F6DA72 		movw	r2, #12250
 2022 00a8 CAF86020 		str	r2, [sl, #96]
 2023              	.L178:
 2024              		.loc 1 491 0
 2025 00ac 2079     		ldrb	r0, [r4, #4]	@ zero_extendqisi2
 2026              		.loc 1 488 0
 2027 00ae AAF80290 		strh	r9, [sl, #2]	@ movhi
 2028              		.loc 1 491 0
 2029 00b2 FFF7FEFF 		bl	vexIMEDisableTermination
 2030              	.LVL186:
 2031 00b6 0136     		adds	r6, r6, #1
 2032              		.loc 1 492 0
 2033 00b8 0120     		movs	r0, #1
 2034 00ba FFF7FEFF 		bl	chThdSleep
 2035              	.LVL187:
 2036              		.loc 1 439 0
 2037 00be 082E     		cmp	r6, #8
 2038 00c0 B0D1     		bne	.L179
 2039              	.L180:
ARM GAS  /var/folders/pt/gxfsd_x53tx3h6kb8dkzftl80000gr/T//ccxqPL1I.s 			page 37


 2040              		.loc 1 503 0
 2041 00c2 3889     		ldrh	r0, [r7, #8]
 2042 00c4 084C     		ldr	r4, .L184
 2043 00c6 03B2     		sxth	r3, r0
 2044 00c8 002B     		cmp	r3, #0
 2045 00ca 07DD     		ble	.L181
 2046              		.loc 1 504 0
 2047 00cc 6C22     		movs	r2, #108
 2048 00ce 013B     		subs	r3, r3, #1
 2049 00d0 02FB0343 		mla	r3, r2, r3, r4
 2050 00d4 187F     		ldrb	r0, [r3, #28]	@ zero_extendqisi2
 2051 00d6 FFF7FEFF 		bl	vexIMEEnableTermination
 2052              	.LVL188:
 2053 00da 2089     		ldrh	r0, [r4, #8]
 2054              	.L181:
 2055              		.loc 1 507 0
 2056 00dc BDE8F88F 		pop	{r3, r4, r5, r6, r7, r8, r9, sl, fp, pc}
 2057              	.L173:
 2058              		.loc 1 497 0
 2059 00e0 0022     		movs	r2, #0
 2060 00e2 8AF80020 		strb	r2, [sl, #0]
 2061              		.loc 1 498 0
 2062 00e6 ECE7     		b	.L180
 2063              	.L185:
 2064              		.align	2
 2065              	.L184:
 2066 00e8 00000000 		.word	.LANCHOR0
 2067              		.cfi_endproc
 2068              	.LFE75:
 2069              		.size	vexIMEFindEncoders, .-vexIMEFindEncoders
 2070 00ec AFF30080 		.section	.text.vexIMEPrintBuf,"ax",%progbits
 2071              		.align	2
 2072              		.p2align 4,,15
 2073              		.global	vexIMEPrintBuf
 2074              		.thumb
 2075              		.thumb_func
 2076              		.type	vexIMEPrintBuf, %function
 2077              	vexIMEPrintBuf:
 2078              	.LFB89:
 2079              		.loc 1 945 0
 2080              		.cfi_startproc
 2081              		@ args = 0, pretend = 0, frame = 0
 2082              		@ frame_needed = 0, uses_anonymous_args = 0
 2083              	.LVL189:
 2084 0000 F8B5     		push	{r3, r4, r5, r6, r7, lr}
 2085              	.LCFI31:
 2086              		.cfi_def_cfa_offset 24
 2087              		.cfi_offset 3, -24
 2088              		.cfi_offset 4, -20
 2089              		.cfi_offset 5, -16
 2090              		.cfi_offset 6, -12
 2091              		.cfi_offset 7, -8
 2092              		.cfi_offset 14, -4
 2093              		.loc 1 948 0
 2094 0002 1646     		mov	r6, r2
 2095              		.loc 1 945 0
 2096 0004 0546     		mov	r5, r0
ARM GAS  /var/folders/pt/gxfsd_x53tx3h6kb8dkzftl80000gr/T//ccxqPL1I.s 			page 38


 2097 0006 0F46     		mov	r7, r1
 2098              		.loc 1 948 0
 2099 0008 002A     		cmp	r2, #0
 2100 000a 26D0     		beq	.L187
 2101 000c 0024     		movs	r4, #0
 2102              	.LVL190:
 2103              	.L188:
 2104              		.loc 1 949 0 discriminator 2
 2105 000e 3A5D     		ldrb	r2, [r7, r4]	@ zero_extendqisi2
 2106 0010 2846     		mov	r0, r5
 2107 0012 1449     		ldr	r1, .L198
 2108              		.loc 1 948 0 discriminator 2
 2109 0014 0134     		adds	r4, r4, #1
 2110              		.loc 1 949 0 discriminator 2
 2111 0016 FFF7FEFF 		bl	vex_chprintf
 2112              	.LVL191:
 2113              		.loc 1 948 0 discriminator 2
 2114 001a B442     		cmp	r4, r6
 2115 001c F7DB     		blt	.L188
 2116              		.loc 1 951 0
 2117 001e 2846     		mov	r0, r5
 2118 0020 1149     		ldr	r1, .L198+4
 2119 0022 FFF7FEFF 		bl	vex_chprintf
 2120              	.LVL192:
 2121              		.loc 1 953 0
 2122 0026 0024     		movs	r4, #0
 2123 0028 05E0     		b	.L192
 2124              	.LVL193:
 2125              	.L197:
 2126              		.loc 1 956 0
 2127 002a 1049     		ldr	r1, .L198+8
 2128              		.loc 1 953 0
 2129 002c 0134     		adds	r4, r4, #1
 2130              		.loc 1 956 0
 2131 002e FFF7FEFF 		bl	vex_chprintf
 2132              	.LVL194:
 2133              		.loc 1 953 0
 2134 0032 B442     		cmp	r4, r6
 2135 0034 0BDA     		bge	.L193
 2136              	.LVL195:
 2137              	.L192:
 2138              		.loc 1 955 0
 2139 0036 3A5D     		ldrb	r2, [r7, r4]	@ zero_extendqisi2
 2140              		.loc 1 958 0
 2141 0038 2846     		mov	r0, r5
 2142              		.loc 1 955 0
 2143 003a A2F12003 		sub	r3, r2, #32
 2144 003e 5E2B     		cmp	r3, #94
 2145              		.loc 1 958 0
 2146 0040 0B49     		ldr	r1, .L198+12
 2147              		.loc 1 955 0
 2148 0042 F2D9     		bls	.L197
 2149              	.LVL196:
 2150              		.loc 1 953 0
 2151 0044 0134     		adds	r4, r4, #1
 2152              		.loc 1 958 0
 2153 0046 FFF7FEFF 		bl	vex_chprintf
ARM GAS  /var/folders/pt/gxfsd_x53tx3h6kb8dkzftl80000gr/T//ccxqPL1I.s 			page 39


 2154              	.LVL197:
 2155              		.loc 1 953 0
 2156 004a B442     		cmp	r4, r6
 2157 004c F3DB     		blt	.L192
 2158              	.LVL198:
 2159              	.L193:
 2160              		.loc 1 961 0
 2161 004e 0949     		ldr	r1, .L198+16
 2162 0050 2846     		mov	r0, r5
 2163              		.loc 1 962 0
 2164 0052 BDE8F840 		pop	{r3, r4, r5, r6, r7, lr}
 2165              		.loc 1 961 0
 2166 0056 FFF7FEBF 		b	vex_chprintf
 2167              	.LVL199:
 2168              	.L187:
 2169              		.loc 1 951 0
 2170 005a 0349     		ldr	r1, .L198+4
 2171              	.LVL200:
 2172 005c FFF7FEFF 		bl	vex_chprintf
 2173              	.LVL201:
 2174 0060 F5E7     		b	.L193
 2175              	.L199:
 2176 0062 00BF     		.align	2
 2177              	.L198:
 2178 0064 00000000 		.word	.LC0
 2179 0068 14000000 		.word	.LC4
 2180 006c 08000000 		.word	.LC1
 2181 0070 0C000000 		.word	.LC2
 2182 0074 10000000 		.word	.LC3
 2183              		.cfi_endproc
 2184              	.LFE89:
 2185              		.size	vexIMEPrintBuf, .-vexIMEPrintBuf
 2186 0078 AFF30080 		.section	.text.vexImeTask,"ax",%progbits
 2186      AFF30080 
 2187              		.align	2
 2188              		.p2align 4,,15
 2189              		.thumb
 2190              		.thumb_func
 2191              		.type	vexImeTask, %function
 2192              	vexImeTask:
 2193              	.LFB71:
 2194              		.loc 1 241 0
 2195              		.cfi_startproc
 2196              		@ args = 0, pretend = 0, frame = 0
 2197              		@ frame_needed = 0, uses_anonymous_args = 0
 2198              	.LVL202:
 2199 0000 2DE9F047 		push	{r4, r5, r6, r7, r8, r9, sl, lr}
 2200              	.LCFI32:
 2201              		.cfi_def_cfa_offset 32
 2202              		.cfi_offset 4, -32
 2203              		.cfi_offset 5, -28
 2204              		.cfi_offset 6, -24
 2205              		.cfi_offset 7, -20
 2206              		.cfi_offset 8, -16
 2207              		.cfi_offset 9, -12
 2208              		.cfi_offset 10, -8
 2209              		.cfi_offset 14, -4
ARM GAS  /var/folders/pt/gxfsd_x53tx3h6kb8dkzftl80000gr/T//ccxqPL1I.s 			page 40


 2210              		.loc 1 245 0
 2211 0004 DFF8FC80 		ldr	r8, .L217+24
 2212              		.loc 1 248 0
 2213 0008 384D     		ldr	r5, .L217
 2214              		.loc 1 245 0
 2215 000a D8F81830 		ldr	r3, [r8, #24]
 2216 000e 384A     		ldr	r2, .L217+4
 2217              		.loc 1 250 0
 2218 0010 5C7F     		ldrb	r4, [r3, #29]	@ zero_extendqisi2
 2219              		.loc 1 248 0
 2220 0012 4FF00109 		mov	r9, #1
 2221              		.loc 1 250 0
 2222 0016 04F00404 		and	r4, r4, #4
 2223 001a E4B2     		uxtb	r4, r4
 2224              		.loc 1 245 0
 2225 001c 9A61     		str	r2, [r3, #24]
 2226              		.loc 1 252 0
 2227 001e 2F46     		mov	r7, r5
 2228              		.loc 1 248 0
 2229 0020 A5F81890 		strh	r9, [r5, #24]	@ movhi
 2230              		.loc 1 250 0
 2231 0024 04BB     		cbnz	r4, .L214
 2232              	.LVL203:
 2233              	.L210:
 2234              		.loc 1 252 0
 2235 0026 2B8B     		ldrh	r3, [r5, #24]
 2236 0028 012B     		cmp	r3, #1
 2237 002a 20D0     		beq	.L202
 2238              	.L213:
 2239 002c B7F90830 		ldrsh	r3, [r7, #8]
 2240              		.loc 1 277 0
 2241 0030 002B     		cmp	r3, #0
 2242 0032 53DD     		ble	.L205
 2243              	.L215:
 2244 0034 0024     		movs	r4, #0
 2245              		.loc 1 282 0
 2246 0036 6C26     		movs	r6, #108
 2247              	.L208:
 2248 0038 06FB0450 		mla	r0, r6, r4, r5
 2249 003c 1C30     		adds	r0, r0, #28
 2250 003e FFF7FEFF 		bl	vexIMEUpdateCounts
 2251              	.LVL204:
 2252 0042 0346     		mov	r3, r0
 2253              		.loc 1 279 0
 2254 0044 0134     		adds	r4, r4, #1
 2255              		.loc 1 286 0
 2256 0046 0120     		movs	r0, #1
 2257              		.loc 1 282 0
 2258 0048 03B9     		cbnz	r3, .L207
 2259              		.loc 1 283 0
 2260 004a FB82     		strh	r3, [r7, #22]	@ movhi
 2261              	.L207:
 2262              		.loc 1 286 0
 2263 004c FFF7FEFF 		bl	chThdSleep
 2264              	.LVL205:
 2265              		.loc 1 279 0
 2266 0050 B5F90830 		ldrsh	r3, [r5, #8]
ARM GAS  /var/folders/pt/gxfsd_x53tx3h6kb8dkzftl80000gr/T//ccxqPL1I.s 			page 41


 2267 0054 A342     		cmp	r3, r4
 2268 0056 EFDC     		bgt	.L208
 2269 0058 D8F81830 		ldr	r3, [r8, #24]
 2270              	.LVL206:
 2271              	.L216:
 2272              		.loc 1 250 0
 2273 005c 5C7F     		ldrb	r4, [r3, #29]	@ zero_extendqisi2
 2274 005e 04F00404 		and	r4, r4, #4
 2275 0062 E4B2     		uxtb	r4, r4
 2276 0064 002C     		cmp	r4, #0
 2277 0066 DED0     		beq	.L210
 2278              	.L214:
 2279              		.loc 1 299 0
 2280 0068 0020     		movs	r0, #0
 2281 006a BDE8F087 		pop	{r4, r5, r6, r7, r8, r9, sl, pc}
 2282              	.L202:
 2283              		.loc 1 255 0
 2284 006e FFF7FEFF 		bl	vexIMEFindEncoders
 2285              	.LVL207:
 2286              		.loc 1 258 0
 2287 0072 7B8B     		ldrh	r3, [r7, #26]
 2288 0074 002B     		cmp	r3, #0
 2289 0076 D9D0     		beq	.L213
 2290              	.LVL208:
 2291              		.loc 1 260 0 discriminator 1
 2292 0078 B7F90830 		ldrsh	r3, [r7, #8]
 2293 007c 002B     		cmp	r3, #0
 2294 007e 2DDD     		ble	.L205
 2295              		.loc 1 265 0
 2296 0080 4FF06C0A 		mov	sl, #108
 2297              	.LVL209:
 2298              	.L206:
 2299              		.loc 1 265 0 is_stmt 0 discriminator 2
 2300 0084 0AFB04F6 		mul	r6, sl, r4
 2301              		.loc 1 263 0 is_stmt 1 discriminator 2
 2302 0088 2246     		mov	r2, r4
 2303 008a 1A49     		ldr	r1, .L217+8
 2304 008c 6868     		ldr	r0, [r5, #4]
 2305 008e FFF7FEFF 		bl	vex_chprintf
 2306              	.LVL210:
 2307              		.loc 1 264 0 discriminator 2
 2308 0092 1949     		ldr	r1, .L217+12
 2309 0094 6868     		ldr	r0, [r5, #4]
 2310 0096 FFF7FEFF 		bl	vex_chprintf
 2311              	.LVL211:
 2312              		.loc 1 265 0 discriminator 2
 2313 009a A919     		adds	r1, r5, r6
 2314 009c 0822     		movs	r2, #8
 2315 009e 2231     		adds	r1, r1, #34
 2316 00a0 6868     		ldr	r0, [r5, #4]
 2317 00a2 FFF7FEFF 		bl	vexIMEPrintBuf
 2318              	.LVL212:
 2319              		.loc 1 267 0 discriminator 2
 2320 00a6 1549     		ldr	r1, .L217+16
 2321 00a8 6868     		ldr	r0, [r5, #4]
 2322 00aa FFF7FEFF 		bl	vex_chprintf
 2323              	.LVL213:
ARM GAS  /var/folders/pt/gxfsd_x53tx3h6kb8dkzftl80000gr/T//ccxqPL1I.s 			page 42


 2324              		.loc 1 268 0 discriminator 2
 2325 00ae A919     		adds	r1, r5, r6
 2326 00b0 0822     		movs	r2, #8
 2327 00b2 3231     		adds	r1, r1, #50
 2328 00b4 6868     		ldr	r0, [r5, #4]
 2329 00b6 FFF7FEFF 		bl	vexIMEPrintBuf
 2330              	.LVL214:
 2331              		.loc 1 270 0 discriminator 2
 2332 00ba 1149     		ldr	r1, .L217+20
 2333 00bc 6868     		ldr	r0, [r5, #4]
 2334 00be FFF7FEFF 		bl	vex_chprintf
 2335              	.LVL215:
 2336              		.loc 1 271 0 discriminator 2
 2337 00c2 A919     		adds	r1, r5, r6
 2338 00c4 4231     		adds	r1, r1, #66
 2339 00c6 0822     		movs	r2, #8
 2340 00c8 6868     		ldr	r0, [r5, #4]
 2341 00ca FFF7FEFF 		bl	vexIMEPrintBuf
 2342              	.LVL216:
 2343              		.loc 1 260 0 discriminator 2
 2344 00ce B5F90830 		ldrsh	r3, [r5, #8]
 2345 00d2 0134     		adds	r4, r4, #1
 2346              	.LVL217:
 2347 00d4 A342     		cmp	r3, r4
 2348 00d6 D5DC     		bgt	.L206
 2349              		.loc 1 277 0
 2350 00d8 002B     		cmp	r3, #0
 2351 00da ABDC     		bgt	.L215
 2352              	.LVL218:
 2353              	.L205:
 2354              		.loc 1 294 0
 2355 00dc 0A20     		movs	r0, #10
 2356              		.loc 1 292 0
 2357 00de A5F81890 		strh	r9, [r5, #24]	@ movhi
 2358              		.loc 1 294 0
 2359 00e2 FFF7FEFF 		bl	chThdSleep
 2360              	.LVL219:
 2361 00e6 D8F81830 		ldr	r3, [r8, #24]
 2362 00ea B7E7     		b	.L216
 2363              	.L218:
 2364              		.align	2
 2365              	.L217:
 2366 00ec 00000000 		.word	.LANCHOR0
 2367 00f0 18000000 		.word	.LC5
 2368 00f4 1C000000 		.word	.LC6
 2369 00f8 2C000000 		.word	.LC7
 2370 00fc 38000000 		.word	.LC8
 2371 0100 44000000 		.word	.LC9
 2372 0104 00000000 		.word	rlist
 2373              		.cfi_endproc
 2374              	.LFE71:
 2375              		.size	vexImeTask, .-vexImeTask
 2376 0108 AFF30080 		.section	.text.vexIMEDebug,"ax",%progbits
 2376      AFF30080 
 2377              		.align	2
 2378              		.p2align 4,,15
 2379              		.global	vexIMEDebug
ARM GAS  /var/folders/pt/gxfsd_x53tx3h6kb8dkzftl80000gr/T//ccxqPL1I.s 			page 43


 2380              		.thumb
 2381              		.thumb_func
 2382              		.type	vexIMEDebug, %function
 2383              	vexIMEDebug:
 2384              	.LFB90:
 2385              		.loc 1 973 0
 2386              		.cfi_startproc
 2387              		@ args = 0, pretend = 0, frame = 0
 2388              		@ frame_needed = 0, uses_anonymous_args = 0
 2389              	.LVL220:
 2390 0000 2DE9F041 		push	{r4, r5, r6, r7, r8, lr}
 2391              	.LCFI33:
 2392              		.cfi_def_cfa_offset 24
 2393              		.cfi_offset 4, -24
 2394              		.cfi_offset 5, -20
 2395              		.cfi_offset 6, -16
 2396              		.cfi_offset 7, -12
 2397              		.cfi_offset 8, -8
 2398              		.cfi_offset 14, -4
 2399              		.loc 1 979 0
 2400 0004 364F     		ldr	r7, .L231
 2401              		.loc 1 973 0
 2402 0006 84B0     		sub	sp, sp, #16
 2403              	.LCFI34:
 2404              		.cfi_def_cfa_offset 40
 2405              		.loc 1 979 0
 2406 0008 3649     		ldr	r1, .L231+4
 2407              	.LVL221:
 2408 000a B7F90820 		ldrsh	r2, [r7, #8]
 2409              	.LVL222:
 2410              		.loc 1 973 0
 2411 000e 0446     		mov	r4, r0
 2412              		.loc 1 979 0
 2413 0010 FFF7FEFF 		bl	vex_chprintf
 2414              	.LVL223:
 2415              		.loc 1 980 0
 2416 0014 788A     		ldrh	r0, [r7, #18]
 2417 0016 B98A     		ldrh	r1, [r7, #20]
 2418 0018 3D8A     		ldrh	r5, [r7, #16]
 2419 001a FB89     		ldrh	r3, [r7, #14]
 2420 001c BA89     		ldrh	r2, [r7, #12]
 2421 001e 0190     		str	r0, [sp, #4]
 2422 0020 0291     		str	r1, [sp, #8]
 2423 0022 0095     		str	r5, [sp, #0]
 2424 0024 2046     		mov	r0, r4
 2425 0026 3049     		ldr	r1, .L231+8
 2426 0028 FFF7FEFF 		bl	vex_chprintf
 2427              	.LVL224:
 2428              		.loc 1 983 0
 2429 002c B7F90830 		ldrsh	r3, [r7, #8]
 2430 0030 002B     		cmp	r3, #0
 2431 0032 51DD     		ble	.L219
 2432 0034 3D46     		mov	r5, r7
 2433 0036 0026     		movs	r6, #0
 2434 0038 32E0     		b	.L226
 2435              	.LVL225:
 2436              	.L222:
ARM GAS  /var/folders/pt/gxfsd_x53tx3h6kb8dkzftl80000gr/T//ccxqPL1I.s 			page 44


 2437              		.loc 1 990 0
 2438 003a 2046     		mov	r0, r4
 2439 003c 2B49     		ldr	r1, .L231+12
 2440 003e FFF7FEFF 		bl	vex_chprintf
 2441              	.LVL226:
 2442              	.L225:
 2443              		.loc 1 1003 0
 2444 0042 6C23     		movs	r3, #108
 2445 0044 03FB0672 		mla	r2, r3, r6, r7
 2446 0048 2B8C     		ldrh	r3, [r5, #32]
 2447 004a 4232     		adds	r2, r2, #66
 2448 004c 0133     		adds	r3, r3, #1
 2449 004e 2849     		ldr	r1, .L231+16
 2450 0050 2046     		mov	r0, r4
 2451 0052 FFF7FEFF 		bl	vex_chprintf
 2452              	.LVL227:
 2453              		.loc 1 1004 0
 2454 0056 D5F88020 		ldr	r2, [r5, #128]
 2455 005a 2649     		ldr	r1, .L231+20
 2456 005c 2046     		mov	r0, r4
 2457 005e FFF7FEFF 		bl	vex_chprintf
 2458              	.LVL228:
 2459              		.loc 1 1005 0
 2460 0062 D5F88420 		ldr	r2, [r5, #132]
 2461 0066 2449     		ldr	r1, .L231+24
 2462 0068 2046     		mov	r0, r4
 2463 006a FFF7FEFF 		bl	vex_chprintf
 2464              	.LVL229:
 2465              		.loc 1 1006 0
 2466 006e 6A6E     		ldr	r2, [r5, #100]
 2467 0070 2249     		ldr	r1, .L231+28
 2468 0072 2046     		mov	r0, r4
 2469 0074 FFF7FEFF 		bl	vex_chprintf
 2470              	.LVL230:
 2471              		.loc 1 1007 0
 2472 0078 EA6E     		ldr	r2, [r5, #108]
 2473 007a 2149     		ldr	r1, .L231+32
 2474 007c 2046     		mov	r0, r4
 2475 007e FFF7FEFF 		bl	vex_chprintf
 2476              	.LVL231:
 2477              		.loc 1 1008 0
 2478 0082 6A6F     		ldr	r2, [r5, #116]
 2479 0084 1F49     		ldr	r1, .L231+36
 2480 0086 2046     		mov	r0, r4
 2481 0088 FFF7FEFF 		bl	vex_chprintf
 2482              	.LVL232:
 2483              		.loc 1 1009 0
 2484 008c 2046     		mov	r0, r4
 2485 008e 1E49     		ldr	r1, .L231+40
 2486 0090 FFF7FEFF 		bl	vex_chprintf
 2487              	.LVL233:
 2488              		.loc 1 983 0
 2489 0094 B7F90830 		ldrsh	r3, [r7, #8]
 2490 0098 6C35     		adds	r5, r5, #108
 2491 009a 4345     		cmp	r3, r8
 2492 009c 4646     		mov	r6, r8
 2493 009e 1BDD     		ble	.L219
ARM GAS  /var/folders/pt/gxfsd_x53tx3h6kb8dkzftl80000gr/T//ccxqPL1I.s 			page 45


 2494              	.LVL234:
 2495              	.L226:
 2496              		.loc 1 985 0
 2497 00a0 06F10108 		add	r8, r6, #1
 2498 00a4 4246     		mov	r2, r8
 2499 00a6 1949     		ldr	r1, .L231+44
 2500 00a8 2046     		mov	r0, r4
 2501 00aa FFF7FEFF 		bl	vex_chprintf
 2502              	.LVL235:
 2503              		.loc 1 987 0
 2504 00ae 6B7F     		ldrb	r3, [r5, #29]	@ zero_extendqisi2
 2505 00b0 012B     		cmp	r3, #1
 2506 00b2 07D0     		beq	.L223
 2507 00b4 C1D3     		bcc	.L222
 2508 00b6 022B     		cmp	r3, #2
 2509              		.loc 1 999 0
 2510 00b8 1549     		ldr	r1, .L231+48
 2511 00ba 2046     		mov	r0, r4
 2512              		.loc 1 987 0
 2513 00bc 07D0     		beq	.L230
 2514              	.LVL236:
 2515              		.loc 1 999 0
 2516 00be FFF7FEFF 		bl	vex_chprintf
 2517              	.LVL237:
 2518              		.loc 1 1000 0
 2519 00c2 BEE7     		b	.L225
 2520              	.L223:
 2521              		.loc 1 993 0
 2522 00c4 2046     		mov	r0, r4
 2523 00c6 1349     		ldr	r1, .L231+52
 2524 00c8 FFF7FEFF 		bl	vex_chprintf
 2525              	.LVL238:
 2526              		.loc 1 994 0
 2527 00cc B9E7     		b	.L225
 2528              	.LVL239:
 2529              	.L230:
 2530              		.loc 1 996 0
 2531 00ce 2046     		mov	r0, r4
 2532              	.LVL240:
 2533 00d0 1149     		ldr	r1, .L231+56
 2534 00d2 FFF7FEFF 		bl	vex_chprintf
 2535              	.LVL241:
 2536              		.loc 1 997 0
 2537 00d6 B4E7     		b	.L225
 2538              	.L219:
 2539              		.loc 1 1011 0
 2540 00d8 04B0     		add	sp, sp, #16
 2541 00da BDE8F081 		pop	{r4, r5, r6, r7, r8, pc}
 2542              	.L232:
 2543 00de 00BF     		.align	2
 2544              	.L231:
 2545 00e0 00000000 		.word	.LANCHOR0
 2546 00e4 50000000 		.word	.LC10
 2547 00e8 64000000 		.word	.LC11
 2548 00ec A0000000 		.word	.LC13
 2549 00f0 C0000000 		.word	.LC17
 2550 00f4 D0000000 		.word	.LC18
ARM GAS  /var/folders/pt/gxfsd_x53tx3h6kb8dkzftl80000gr/T//ccxqPL1I.s 			page 46


 2551 00f8 D8000000 		.word	.LC19
 2552 00fc E0000000 		.word	.LC20
 2553 0100 EC000000 		.word	.LC21
 2554 0104 F8000000 		.word	.LC22
 2555 0108 10000000 		.word	.LC3
 2556 010c 98000000 		.word	.LC12
 2557 0110 B8000000 		.word	.LC16
 2558 0114 A8000000 		.word	.LC14
 2559 0118 B0000000 		.word	.LC15
 2560              		.cfi_endproc
 2561              	.LFE90:
 2562              		.size	vexIMEDebug, .-vexIMEDebug
 2563 011c AFF30080 		.section	.bss.errors,"aw",%nobits
 2564              		.align	2
 2565              		.set	.LANCHOR3,. + 0
 2566              		.type	errors, %object
 2567              		.size	errors, 4
 2568              	errors:
 2569 0000 00000000 		.space	4
 2570              		.section	.bss.waVexImeTask,"aw",%nobits
 2571              		.align	3
 2572              		.set	.LANCHOR2,. + 0
 2573              		.type	waVexImeTask, %object
 2574              		.size	waVexImeTask, 640
 2575              	waVexImeTask:
 2576 0000 00000000 		.space	640
 2576      00000000 
 2576      00000000 
 2576      00000000 
 2576      00000000 
 2577              		.section	.rodata.str1.4,"aMS",%progbits,1
 2578              		.align	2
 2579              	.LC0:
 2580 0000 25303258 		.ascii	"%02X \000"
 2580      2000
 2581 0006 0000     		.space	2
 2582              	.LC1:
 2583 0008 256300   		.ascii	"%c\000"
 2584 000b 00       		.space	1
 2585              	.LC2:
 2586 000c 2E00     		.ascii	".\000"
 2587 000e 0000     		.space	2
 2588              	.LC3:
 2589 0010 0D0A00   		.ascii	"\015\012\000"
 2590 0013 00       		.space	1
 2591              	.LC4:
 2592 0014 3A2000   		.ascii	": \000"
 2593 0017 00       		.space	1
 2594              	.LC5:
 2595 0018 696D6500 		.ascii	"ime\000"
 2596              	.LC6:
 2597 001c 456E636F 		.ascii	"Encoder:%d\015\012\000"
 2597      6465723A 
 2597      25640D0A 
 2597      00
 2598 0029 000000   		.space	3
 2599              	.LC7:
ARM GAS  /var/folders/pt/gxfsd_x53tx3h6kb8dkzftl80000gr/T//ccxqPL1I.s 			page 47


 2600 002c 56657273 		.ascii	"Version:   \000"
 2600      696F6E3A 
 2600      20202000 
 2601              	.LC8:
 2602 0038 56656E64 		.ascii	"Vendor:    \000"
 2602      6F723A20 
 2602      20202000 
 2603              	.LC9:
 2604 0044 44657669 		.ascii	"Device ID: \000"
 2604      63652049 
 2604      443A2000 
 2605              	.LC10:
 2606 0050 25642049 		.ascii	"%d IME's found\015\012\000"
 2606      4D452773 
 2606      20666F75 
 2606      6E640D0A 
 2606      00
 2607 0061 000000   		.space	3
 2608              	.LC11:
 2609 0064 4572726F 		.ascii	"Errors Lock(%d) Ack(%d) Bus(%d) Arb(%d) Tim(%d)\015"
 2609      7273204C 
 2609      6F636B28 
 2609      25642920 
 2609      41636B28 
 2610 0094 0A00     		.ascii	"\012\000"
 2611 0096 0000     		.space	2
 2612              	.LC12:
 2613 0098 494D455F 		.ascii	"IME_%d \000"
 2613      25642000 
 2614              	.LC13:
 2615 00a0 32363920 		.ascii	"269  \000"
 2615      2000
 2616 00a6 0000     		.space	2
 2617              	.LC14:
 2618 00a8 33393354 		.ascii	"393T \000"
 2618      2000
 2619 00ae 0000     		.space	2
 2620              	.LC15:
 2621 00b0 33393353 		.ascii	"393S \000"
 2621      2000
 2622 00b6 0000     		.space	2
 2623              	.LC16:
 2624 00b8 2D2D2D2D 		.ascii	"---- \000"
 2624      2000
 2625 00be 0000     		.space	2
 2626              	.LC17:
 2627 00c0 28252D38 		.ascii	"(%-8s) M_%-2d \000"
 2627      7329204D 
 2627      5F252D32 
 2627      642000
 2628 00cf 00       		.space	1
 2629              	.LC18:
 2630 00d0 2538642F 		.ascii	"%8d/\000"
 2630      00
 2631 00d5 000000   		.space	3
 2632              	.LC19:
 2633 00d8 252D3564 		.ascii	"%-5d \000"
ARM GAS  /var/folders/pt/gxfsd_x53tx3h6kb8dkzftl80000gr/T//ccxqPL1I.s 			page 48


 2633      2000
 2634 00de 0000     		.space	2
 2635              	.LC20:
 2636 00e0 636F756E 		.ascii	"count %6d \000"
 2636      74202536 
 2636      642000
 2637 00eb 00       		.space	1
 2638              	.LC21:
 2639 00ec 76656C20 		.ascii	"vel   %5d \000"
 2639      20202535 
 2639      642000
 2640 00f7 00       		.space	1
 2641              	.LC22:
 2642 00f8 72706D20 		.ascii	"rpm   %3d \000"
 2642      20202533 
 2642      642000
 2643 0103 00       		.section	.rodata.imeI2cConfig,"a",%progbits
 2644              		.align	2
 2645              		.set	.LANCHOR1,. + 0
 2646              		.type	imeI2cConfig, %object
 2647              		.size	imeI2cConfig, 12
 2648              	imeI2cConfig:
 2649 0000 01       		.byte	1
 2650 0001 000000   		.space	3
 2651 0004 A0860100 		.word	100000
 2652 0008 02       		.byte	2
 2653 0009 000000   		.space	3
 2654              		.section	.bss.vexImes,"aw",%nobits
 2655              		.align	2
 2656              		.set	.LANCHOR0,. + 0
 2657              		.type	vexImes, %object
 2658              		.size	vexImes, 892
 2659              	vexImes:
 2660 0000 00000000 		.space	892
 2660      00000000 
 2660      00000000 
 2660      00000000 
 2660      00000000 
 2661              		.text
 2662              	.Letext0:
 2663              		.file 2 "/Users/programmer/ConVEX/yagarto-4.7.2/bin/../lib/gcc/arm-none-eabi/4.7.2/include/stddef.
 2664              		.file 3 "/Users/programmer/ConVEX/yagarto-4.7.2/bin/../lib/gcc/arm-none-eabi/4.7.2/../../../../arm
 2665              		.file 4 "convex/ChibiOS_2.6.2/os/ports/GCC/ARMCMx/chtypes.h"
 2666              		.file 5 "convex/ChibiOS_2.6.2/os/kernel/include/chlists.h"
 2667              		.file 6 "convex/ChibiOS_2.6.2/os/kernel/include/chthreads.h"
 2668              		.file 7 "convex/ChibiOS_2.6.2/os/ports/GCC/ARMCMx/chcore_v7m.h"
 2669              		.file 8 "convex/ChibiOS_2.6.2/os/kernel/include/chschd.h"
 2670              		.file 9 "convex/ChibiOS_2.6.2/os/kernel/include/chmtx.h"
 2671              		.file 10 "convex/ChibiOS_2.6.2/os/kernel/include/chmemcore.h"
 2672              		.file 11 "convex/ChibiOS_2.6.2/os/kernel/include/chheap.h"
 2673              		.file 12 "convex/ChibiOS_2.6.2/os/kernel/include/chstreams.h"
 2674              		.file 13 "convex/ChibiOS_2.6.2/os/hal/platforms/STM32F1xx/stm32f10x.h"
 2675              		.file 14 "convex/ChibiOS_2.6.2/os/hal/platforms/STM32F1xx/stm32_dma.h"
 2676              		.file 15 "convex/ChibiOS_2.6.2/os/hal/include/i2c.h"
 2677              		.file 16 "convex/ChibiOS_2.6.2/os/hal/platforms/STM32/I2Cv1/i2c_lld.h"
 2678              		.file 17 "convex/convex/cortex/fw/vexcompat.h"
 2679              		.file 18 "convex/convex/cortex/fw/vexdigital.h"
ARM GAS  /var/folders/pt/gxfsd_x53tx3h6kb8dkzftl80000gr/T//ccxqPL1I.s 			page 49


 2680              		.file 19 "convex/convex/cortex/fw/vexmotor.h"
 2681              		.file 20 "convex/convex/cortex/fw/vexime.h"
 2682              		.file 21 "convex/ChibiOS_2.6.2/os/ports/common/ARMCMx/CMSIS/include/core_cm3.h"
 2683              		.file 22 "convex/convex/cortex/fw/vexprintf.h"