ARM GAS  /var/folders/pt/gxfsd_x53tx3h6kb8dkzftl80000gr/T//ccWVg5fL.s 			page 1


   1              		.syntax unified
   2              		.cpu cortex-m3
   3              		.fpu softvfp
   4              		.eabi_attribute 20, 1
   5              		.eabi_attribute 21, 1
   6              		.eabi_attribute 23, 3
   7              		.eabi_attribute 24, 1
   8              		.eabi_attribute 25, 1
   9              		.eabi_attribute 26, 1
  10              		.eabi_attribute 30, 2
  11              		.eabi_attribute 34, 1
  12              		.eabi_attribute 18, 4
  13              		.thumb
  14              		.file	"vexrttl.c"
  15              		.text
  16              	.Ltext0:
  17              		.cfi_sections	.debug_frame
  18              		.section	.text.vexAudioPlayRtttl,"ax",%progbits
  19              		.align	2
  20              		.p2align 4,,15
  21              		.global	vexAudioPlayRtttl
  22              		.thumb
  23              		.thumb_func
  24              		.type	vexAudioPlayRtttl, %function
  25              	vexAudioPlayRtttl:
  26              	.LFB64:
  27              		.file 1 "convex/convex/cortex/fw/vexrttl.c"
  28              		.loc 1 113 0
  29              		.cfi_startproc
  30              		@ args = 0, pretend = 0, frame = 8
  31              		@ frame_needed = 0, uses_anonymous_args = 0
  32              	.LVL0:
  33 0000 2DE9F04F 		push	{r4, r5, r6, r7, r8, r9, sl, fp, lr}
  34              	.LCFI0:
  35              		.cfi_def_cfa_offset 36
  36              		.cfi_offset 4, -36
  37              		.cfi_offset 5, -32
  38              		.cfi_offset 6, -28
  39              		.cfi_offset 7, -24
  40              		.cfi_offset 8, -20
  41              		.cfi_offset 9, -16
  42              		.cfi_offset 10, -12
  43              		.cfi_offset 11, -8
  44              		.cfi_offset 14, -4
  45              		.loc 1 123 0
  46 0004 0378     		ldrb	r3, [r0, #0]	@ zero_extendqisi2
  47              		.loc 1 113 0
  48 0006 83B0     		sub	sp, sp, #12
  49              	.LCFI1:
  50              		.cfi_def_cfa_offset 48
  51              		.loc 1 123 0
  52 0008 3A2B     		cmp	r3, #58
  53 000a 18BF     		it	ne
  54 000c 002B     		cmpne	r3, #0
  55              		.loc 1 113 0
  56 000e 0F46     		mov	r7, r1
  57 0010 0192     		str	r2, [sp, #4]
ARM GAS  /var/folders/pt/gxfsd_x53tx3h6kb8dkzftl80000gr/T//ccWVg5fL.s 			page 2


  58              		.loc 1 123 0
  59 0012 00F0B381 		beq	.L52
  60              		.loc 1 112 0
  61 0016 984A     		ldr	r2, .L111
  62              	.LVL1:
  63 0018 411C     		adds	r1, r0, #1
  64              	.LVL2:
  65              	.L3:
  66              		.loc 1 125 0
  67 001a 02F8013C 		strb	r3, [r2, #-1]
  68              	.LVL3:
  69 001e 8946     		mov	r9, r1
  70              	.LVL4:
  71              		.loc 1 123 0
  72 0020 11F8013B 		ldrb	r3, [r1], #1	@ zero_extendqisi2
  73              	.LVL5:
  74              		.loc 1 112 0
  75 0024 1446     		mov	r4, r2
  76 0026 0132     		adds	r2, r2, #1
  77              	.LVL6:
  78              		.loc 1 123 0
  79 0028 3A2B     		cmp	r3, #58
  80 002a 18BF     		it	ne
  81 002c 002B     		cmpne	r3, #0
  82 002e F4D1     		bne	.L3
  83              	.LVL7:
  84              	.L2:
  85              		.loc 1 127 0
  86 0030 0023     		movs	r3, #0
  87 0032 2370     		strb	r3, [r4, #0]
  88              		.loc 1 129 0
  89 0034 99F80030 		ldrb	r3, [r9, #0]	@ zero_extendqisi2
  90 0038 002B     		cmp	r3, #0
  91 003a 00F01581 		beq	.L56
  92              		.loc 1 130 0
  93 003e 09F10109 		add	r9, r9, #1
  94              	.LVL8:
  95              		.loc 1 133 0
  96 0042 99F80040 		ldrb	r4, [r9, #0]	@ zero_extendqisi2
  97              		.loc 1 118 0
  98 0046 4FF03F08 		mov	r8, #63
  99              	.LVL9:
 100              		.loc 1 117 0
 101 004a 0626     		movs	r6, #6
 102              		.loc 1 116 0
 103 004c 0425     		movs	r5, #4
 104              	.LBB7:
 105              		.loc 1 151 0
 106 004e 4FF0200C 		mov	ip, #32
 107              	.LBE7:
 108              		.loc 1 133 0
 109 0052 002C     		cmp	r4, #0
 110 0054 49D0     		beq	.L9
 111              	.LVL10:
 112              	.L109:
 113              	.LBB8:
 114              		.loc 1 138 0 discriminator 1
ARM GAS  /var/folders/pt/gxfsd_x53tx3h6kb8dkzftl80000gr/T//ccWVg5fL.s 			page 3


 115 0056 202C     		cmp	r4, #32
 116 0058 0AD1     		bne	.L20
 117              		.loc 1 112 0
 118 005a 09F10103 		add	r3, r9, #1
 119              	.L7:
 120              		.loc 1 138 0 discriminator 2
 121 005e 1C78     		ldrb	r4, [r3, #0]	@ zero_extendqisi2
 122 0060 9946     		mov	r9, r3
 123              	.LVL11:
 124 0062 202C     		cmp	r4, #32
 125 0064 03F10103 		add	r3, r3, #1
 126              	.LVL12:
 127 0068 F9D0     		beq	.L7
 128              		.loc 1 139 0
 129 006a 002C     		cmp	r4, #0
 130 006c 00F0FC80 		beq	.L56
 131              	.L20:
 132              		.loc 1 140 0
 133 0070 3A2C     		cmp	r4, #58
 134 0072 3AD0     		beq	.L9
 135              	.LVL13:
 136              		.loc 1 143 0
 137 0074 99F80130 		ldrb	r3, [r9, #1]	@ zero_extendqisi2
 138 0078 3D2B     		cmp	r3, #61
 139 007a 40F0F580 		bne	.L56
 140              		.loc 1 147 0
 141 007e 99F80230 		ldrb	r3, [r9, #2]	@ zero_extendqisi2
 142              		.loc 1 145 0
 143 0082 09F10200 		add	r0, r9, #2
 144              	.LVL14:
 145              		.loc 1 147 0
 146 0086 A3F13002 		sub	r2, r3, #48
 147 008a D1B2     		uxtb	r1, r2
 148 008c 0929     		cmp	r1, #9
 149 008e 00F2EF80 		bhi	.L53
 150              		.loc 1 112 0
 151 0092 09F10300 		add	r0, r9, #3
 152              	.LVL15:
 153              		.loc 1 146 0
 154 0096 0021     		movs	r1, #0
 155              	.LVL16:
 156              	.L11:
 157              		.loc 1 147 0 discriminator 2
 158 0098 8146     		mov	r9, r0
 159 009a 10F8013B 		ldrb	r3, [r0], #1	@ zero_extendqisi2
 160 009e 01EB8101 		add	r1, r1, r1, lsl #2
 161 00a2 02EB4101 		add	r1, r2, r1, lsl #1
 162              	.LVL17:
 163 00a6 A3F13002 		sub	r2, r3, #48
 164 00aa 5FFA82FA 		uxtb	sl, r2
 165 00ae BAF1090F 		cmp	sl, #9
 166 00b2 F1D9     		bls	.L11
 167              	.LVL18:
 168              	.L10:
 169              		.loc 1 149 0
 170 00b4 642C     		cmp	r4, #100
 171 00b6 00F0D480 		beq	.L14
ARM GAS  /var/folders/pt/gxfsd_x53tx3h6kb8dkzftl80000gr/T//ccWVg5fL.s 			page 4


 172 00ba 6F2C     		cmp	r4, #111
 173 00bc 08BF     		it	eq
 174 00be 0E46     		moveq	r6, r1
 175 00c0 02D0     		beq	.L15
 176              		.loc 1 153 0
 177 00c2 622C     		cmp	r4, #98
 178 00c4 08BF     		it	eq
 179 00c6 8846     		moveq	r8, r1
 180              	.LVL19:
 181              	.L15:
 182              		.loc 1 156 0 discriminator 1
 183 00c8 202B     		cmp	r3, #32
 184 00ca 06D1     		bne	.L17
 185              		.loc 1 112 0
 186 00cc 09F10102 		add	r2, r9, #1
 187              	.LVL20:
 188              	.L18:
 189              		.loc 1 156 0 discriminator 2
 190 00d0 9146     		mov	r9, r2
 191              	.LVL21:
 192 00d2 12F8013B 		ldrb	r3, [r2], #1	@ zero_extendqisi2
 193              	.LVL22:
 194 00d6 202B     		cmp	r3, #32
 195 00d8 FAD0     		beq	.L18
 196              	.L17:
 197              		.loc 1 157 0
 198 00da 2C2B     		cmp	r3, #44
 199 00dc 08BF     		it	eq
 200 00de 09F10109 		addeq	r9, r9, #1
 201              	.LVL23:
 202              	.LBE8:
 203              		.loc 1 133 0
 204 00e2 99F80040 		ldrb	r4, [r9, #0]	@ zero_extendqisi2
 205              	.LVL24:
 206 00e6 002C     		cmp	r4, #0
 207 00e8 B5D1     		bne	.L109
 208              	.L9:
 209              		.loc 1 163 0
 210 00ea 99F80120 		ldrb	r2, [r9, #1]	@ zero_extendqisi2
 211              		.loc 1 159 0
 212 00ee 09F10104 		add	r4, r9, #1
 213              	.LVL25:
 214              		.loc 1 163 0
 215 00f2 002A     		cmp	r2, #0
 216 00f4 00F01E81 		beq	.L21
 217 00f8 2146     		mov	r1, r4
 218 00fa 1346     		mov	r3, r2
 219 00fc 0120     		movs	r0, #1
 220              	.LVL26:
 221              	.L23:
 222              		.loc 1 165 0
 223 00fe 2C2B     		cmp	r3, #44
 224              		.loc 1 163 0
 225 0100 11F8013F 		ldrb	r3, [r1, #1]!	@ zero_extendqisi2
 226              		.loc 1 166 0
 227 0104 08BF     		it	eq
 228 0106 0130     		addeq	r0, r0, #1
ARM GAS  /var/folders/pt/gxfsd_x53tx3h6kb8dkzftl80000gr/T//ccWVg5fL.s 			page 5


 229              	.LVL27:
 230              		.loc 1 163 0
 231 0108 002B     		cmp	r3, #0
 232 010a F8D1     		bne	.L23
 233              		.loc 1 169 0
 234 010c 0128     		cmp	r0, #1
 235 010e 07D0     		beq	.L24
 236              		.loc 1 170 0
 237 0110 0130     		adds	r0, r0, #1
 238              	.LVL28:
 239 0112 FFF7FEFF 		bl	vexAudioInitChipToneSong
 240              	.LVL29:
 241 0116 99F80120 		ldrb	r2, [r9, #1]	@ zero_extendqisi2
 242              		.loc 1 173 0
 243 011a 002A     		cmp	r2, #0
 244 011c 00F00A81 		beq	.L21
 245              	.L24:
 246              	.LBB9:
 247              	.LBB10:
 248              	.LBB11:
 249              		.loc 1 100 0
 250 0120 4AF6AB29 		movw	r9, #43691
 251 0124 DFF858A1 		ldr	sl, .L111+8
 252              	.LBE11:
 253              	.LBE10:
 254              		.loc 1 242 0
 255 0128 4FEAC808 		lsl	r8, r8, #3
 256              	.LVL30:
 257              	.LBB14:
 258              		.loc 1 191 0
 259 012c 4FF0200B 		mov	fp, #32
 260              	.LBE14:
 261              	.LBB15:
 262              	.LBB12:
 263              		.loc 1 100 0
 264 0130 C2F6AA29 		movt	r9, 10922
 265              	.L25:
 266              	.LBE12:
 267              	.LBE15:
 268              		.loc 1 182 0 discriminator 1
 269 0134 202A     		cmp	r2, #32
 270 0136 05D1     		bne	.L51
 271              		.loc 1 112 0
 272 0138 631C     		adds	r3, r4, #1
 273              	.L26:
 274              		.loc 1 182 0 discriminator 2
 275 013a 1C46     		mov	r4, r3
 276              	.LVL31:
 277 013c 13F8012B 		ldrb	r2, [r3], #1	@ zero_extendqisi2
 278              	.LVL32:
 279 0140 202A     		cmp	r2, #32
 280 0142 FAD0     		beq	.L26
 281              	.L51:
 282              		.loc 1 183 0
 283 0144 002A     		cmp	r2, #0
 284 0146 00F08F80 		beq	.L56
 285              		.loc 1 186 0
ARM GAS  /var/folders/pt/gxfsd_x53tx3h6kb8dkzftl80000gr/T//ccWVg5fL.s 			page 6


 286 014a 303A     		subs	r2, r2, #48
 287 014c 092A     		cmp	r2, #9
 288              	.LBB16:
 289              		.loc 1 189 0
 290 014e 2078     		ldrb	r0, [r4, #0]	@ zero_extendqisi2
 291              	.LBE16:
 292              		.loc 1 186 0
 293 0150 88BF     		it	hi
 294 0152 2946     		movhi	r1, r5
 295 0154 17D8     		bhi	.L28
 296              	.LVL33:
 297              	.LBB17:
 298              		.loc 1 189 0 discriminator 1
 299 0156 A0F13002 		sub	r2, r0, #48
 300 015a D3B2     		uxtb	r3, r2
 301 015c 092B     		cmp	r3, #9
 302 015e 00F21081 		bhi	.L55
 303              		.loc 1 112 0
 304 0162 611C     		adds	r1, r4, #1
 305              	.LBE17:
 306              	.LBE9:
 307 0164 0023     		movs	r3, #0
 308              	.LVL34:
 309              	.L30:
 310              	.LBB21:
 311              	.LBB18:
 312              		.loc 1 189 0 discriminator 2
 313 0166 0C46     		mov	r4, r1
 314 0168 11F8010B 		ldrb	r0, [r1], #1	@ zero_extendqisi2
 315 016c 03EB8303 		add	r3, r3, r3, lsl #2
 316 0170 02EB4303 		add	r3, r2, r3, lsl #1
 317              	.LVL35:
 318 0174 A0F13002 		sub	r2, r0, #48
 319 0178 5FFA82FC 		uxtb	ip, r2
 320 017c BCF1090F 		cmp	ip, #9
 321 0180 F1D9     		bls	.L30
 322              	.LVL36:
 323              	.L29:
 324              		.loc 1 191 0
 325 0182 9BFBF3F1 		sdiv	r1, fp, r3
 326              	.LVL37:
 327              	.L28:
 328              	.LBE18:
 329              		.loc 1 195 0
 330 0186 6828     		cmp	r0, #104
 331 0188 00F2F580 		bhi	.L31
 332 018c DFE810F0 		tbh	[pc, r0, lsl #1]
 333              	.L40:
 334 0190 6C00     		.2byte	(.L56-.L40)/2
 335 0192 F300     		.2byte	(.L31-.L40)/2
 336 0194 F300     		.2byte	(.L31-.L40)/2
 337 0196 F300     		.2byte	(.L31-.L40)/2
 338 0198 F300     		.2byte	(.L31-.L40)/2
 339 019a F300     		.2byte	(.L31-.L40)/2
 340 019c F300     		.2byte	(.L31-.L40)/2
 341 019e F300     		.2byte	(.L31-.L40)/2
 342 01a0 F300     		.2byte	(.L31-.L40)/2
ARM GAS  /var/folders/pt/gxfsd_x53tx3h6kb8dkzftl80000gr/T//ccWVg5fL.s 			page 7


 343 01a2 F300     		.2byte	(.L31-.L40)/2
 344 01a4 F300     		.2byte	(.L31-.L40)/2
 345 01a6 F300     		.2byte	(.L31-.L40)/2
 346 01a8 F300     		.2byte	(.L31-.L40)/2
 347 01aa F300     		.2byte	(.L31-.L40)/2
 348 01ac F300     		.2byte	(.L31-.L40)/2
 349 01ae F300     		.2byte	(.L31-.L40)/2
 350 01b0 F300     		.2byte	(.L31-.L40)/2
 351 01b2 F300     		.2byte	(.L31-.L40)/2
 352 01b4 F300     		.2byte	(.L31-.L40)/2
 353 01b6 F300     		.2byte	(.L31-.L40)/2
 354 01b8 F300     		.2byte	(.L31-.L40)/2
 355 01ba F300     		.2byte	(.L31-.L40)/2
 356 01bc F300     		.2byte	(.L31-.L40)/2
 357 01be F300     		.2byte	(.L31-.L40)/2
 358 01c0 F300     		.2byte	(.L31-.L40)/2
 359 01c2 F300     		.2byte	(.L31-.L40)/2
 360 01c4 F300     		.2byte	(.L31-.L40)/2
 361 01c6 F300     		.2byte	(.L31-.L40)/2
 362 01c8 F300     		.2byte	(.L31-.L40)/2
 363 01ca F300     		.2byte	(.L31-.L40)/2
 364 01cc F300     		.2byte	(.L31-.L40)/2
 365 01ce F300     		.2byte	(.L31-.L40)/2
 366 01d0 F300     		.2byte	(.L31-.L40)/2
 367 01d2 F300     		.2byte	(.L31-.L40)/2
 368 01d4 F300     		.2byte	(.L31-.L40)/2
 369 01d6 F300     		.2byte	(.L31-.L40)/2
 370 01d8 F300     		.2byte	(.L31-.L40)/2
 371 01da F300     		.2byte	(.L31-.L40)/2
 372 01dc F300     		.2byte	(.L31-.L40)/2
 373 01de F300     		.2byte	(.L31-.L40)/2
 374 01e0 F300     		.2byte	(.L31-.L40)/2
 375 01e2 F300     		.2byte	(.L31-.L40)/2
 376 01e4 F300     		.2byte	(.L31-.L40)/2
 377 01e6 F300     		.2byte	(.L31-.L40)/2
 378 01e8 F300     		.2byte	(.L31-.L40)/2
 379 01ea F300     		.2byte	(.L31-.L40)/2
 380 01ec F300     		.2byte	(.L31-.L40)/2
 381 01ee F300     		.2byte	(.L31-.L40)/2
 382 01f0 F300     		.2byte	(.L31-.L40)/2
 383 01f2 F300     		.2byte	(.L31-.L40)/2
 384 01f4 F300     		.2byte	(.L31-.L40)/2
 385 01f6 F300     		.2byte	(.L31-.L40)/2
 386 01f8 F300     		.2byte	(.L31-.L40)/2
 387 01fa F300     		.2byte	(.L31-.L40)/2
 388 01fc F300     		.2byte	(.L31-.L40)/2
 389 01fe F300     		.2byte	(.L31-.L40)/2
 390 0200 F300     		.2byte	(.L31-.L40)/2
 391 0202 F300     		.2byte	(.L31-.L40)/2
 392 0204 F300     		.2byte	(.L31-.L40)/2
 393 0206 F300     		.2byte	(.L31-.L40)/2
 394 0208 F300     		.2byte	(.L31-.L40)/2
 395 020a F300     		.2byte	(.L31-.L40)/2
 396 020c F300     		.2byte	(.L31-.L40)/2
 397 020e F300     		.2byte	(.L31-.L40)/2
 398 0210 F300     		.2byte	(.L31-.L40)/2
 399 0212 F100     		.2byte	(.L32-.L40)/2
ARM GAS  /var/folders/pt/gxfsd_x53tx3h6kb8dkzftl80000gr/T//ccWVg5fL.s 			page 8


 400 0214 7A00     		.2byte	(.L33-.L40)/2
 401 0216 EF00     		.2byte	(.L57-.L40)/2
 402 0218 ED00     		.2byte	(.L35-.L40)/2
 403 021a EB00     		.2byte	(.L36-.L40)/2
 404 021c E900     		.2byte	(.L37-.L40)/2
 405 021e E700     		.2byte	(.L38-.L40)/2
 406 0220 7A00     		.2byte	(.L33-.L40)/2
 407 0222 F300     		.2byte	(.L31-.L40)/2
 408 0224 F300     		.2byte	(.L31-.L40)/2
 409 0226 F300     		.2byte	(.L31-.L40)/2
 410 0228 F300     		.2byte	(.L31-.L40)/2
 411 022a F300     		.2byte	(.L31-.L40)/2
 412 022c F300     		.2byte	(.L31-.L40)/2
 413 022e F300     		.2byte	(.L31-.L40)/2
 414 0230 F300     		.2byte	(.L31-.L40)/2
 415 0232 F300     		.2byte	(.L31-.L40)/2
 416 0234 F300     		.2byte	(.L31-.L40)/2
 417 0236 F300     		.2byte	(.L31-.L40)/2
 418 0238 F300     		.2byte	(.L31-.L40)/2
 419 023a F300     		.2byte	(.L31-.L40)/2
 420 023c F300     		.2byte	(.L31-.L40)/2
 421 023e F300     		.2byte	(.L31-.L40)/2
 422 0240 F300     		.2byte	(.L31-.L40)/2
 423 0242 F300     		.2byte	(.L31-.L40)/2
 424 0244 F300     		.2byte	(.L31-.L40)/2
 425 0246 F300     		.2byte	(.L31-.L40)/2
 426 0248 F300     		.2byte	(.L31-.L40)/2
 427 024a F300     		.2byte	(.L31-.L40)/2
 428 024c F300     		.2byte	(.L31-.L40)/2
 429 024e F300     		.2byte	(.L31-.L40)/2
 430 0250 F300     		.2byte	(.L31-.L40)/2
 431 0252 F100     		.2byte	(.L32-.L40)/2
 432 0254 7A00     		.2byte	(.L33-.L40)/2
 433 0256 EF00     		.2byte	(.L57-.L40)/2
 434 0258 ED00     		.2byte	(.L35-.L40)/2
 435 025a EB00     		.2byte	(.L36-.L40)/2
 436 025c E900     		.2byte	(.L37-.L40)/2
 437 025e E700     		.2byte	(.L38-.L40)/2
 438 0260 7A00     		.2byte	(.L33-.L40)/2
 439              	.LVL38:
 440              	.L14:
 441              	.LBE21:
 442              	.LBB22:
 443              		.loc 1 151 0
 444 0262 9CFBF1F5 		sdiv	r5, ip, r1
 445 0266 2FE7     		b	.L15
 446              	.LVL39:
 447              	.L56:
 448              	.LBE22:
 449              	.LBB23:
 450              		.loc 1 197 0
 451 0268 0448     		ldr	r0, .L111+4
 452              	.L5:
 453              	.LBE23:
 454              		.loc 1 258 0
 455 026a 03B0     		add	sp, sp, #12
 456 026c BDE8F08F 		pop	{r4, r5, r6, r7, r8, r9, sl, fp, pc}
ARM GAS  /var/folders/pt/gxfsd_x53tx3h6kb8dkzftl80000gr/T//ccWVg5fL.s 			page 9


 457              	.LVL40:
 458              	.L53:
 459              	.LBB24:
 460              		.loc 1 145 0
 461 0270 8146     		mov	r9, r0
 462              		.loc 1 146 0
 463 0272 0021     		movs	r1, #0
 464 0274 1EE7     		b	.L10
 465              	.L112:
 466 0276 00BF     		.align	2
 467              	.L111:
 468 0278 01000000 		.word	.LANCHOR0+1
 469 027c 00000000 		.word	.LC0
 470 0280 00000000 		.word	.LANCHOR1
 471              	.LVL41:
 472              	.L33:
 473              	.LBE24:
 474              	.LBB25:
 475              		.loc 1 205 0
 476 0284 0B20     		movs	r0, #11
 477              	.LVL42:
 478              	.L34:
 479              		.loc 1 209 0
 480 0286 6278     		ldrb	r2, [r4, #1]	@ zero_extendqisi2
 481 0288 232A     		cmp	r2, #35
 482 028a 64D0     		beq	.L41
 483              		.loc 1 208 0
 484 028c 0134     		adds	r4, r4, #1
 485              	.LVL43:
 486              	.L42:
 487              		.loc 1 214 0
 488 028e 622A     		cmp	r2, #98
 489 0290 5BD0     		beq	.L110
 490              	.L43:
 491              		.loc 1 221 0
 492 0292 2E2A     		cmp	r2, #46
 493 0294 02BF     		ittt	eq
 494 0296 6278     		ldrbeq	r2, [r4, #1]	@ zero_extendqisi2
 495              		.loc 1 223 0
 496 0298 01EBD173 		addeq	r3, r1, r1, lsr #31
 497 029c 01EB6301 		addeq	r1, r1, r3, asr #1
 498              	.LVL44:
 499              		.loc 1 228 0
 500 02a0 A2F13003 		sub	r3, r2, #48
 501 02a4 5FFA83FE 		uxtb	lr, r3
 502              		.loc 1 224 0
 503 02a8 08BF     		it	eq
 504 02aa 0134     		addeq	r4, r4, #1
 505              	.LVL45:
 506              		.loc 1 228 0
 507 02ac BEF1090F 		cmp	lr, #9
 508 02b0 9BBF     		ittet	ls
 509 02b2 6278     		ldrbls	r2, [r4, #1]	@ zero_extendqisi2
 510 02b4 9E46     		movls	lr, r3
 511 02b6 B646     		movhi	lr, r6
 512              	.LVL46:
 513 02b8 0134     		addls	r4, r4, #1
ARM GAS  /var/folders/pt/gxfsd_x53tx3h6kb8dkzftl80000gr/T//ccWVg5fL.s 			page 10


 514              	.LVL47:
 515              		.loc 1 231 0
 516 02ba 2E2A     		cmp	r2, #46
 517 02bc 01BF     		itttt	eq
 518 02be 6278     		ldrbeq	r2, [r4, #1]	@ zero_extendqisi2
 519              		.loc 1 233 0
 520 02c0 01EBD173 		addeq	r3, r1, r1, lsr #31
 521 02c4 01EB6301 		addeq	r1, r1, r3, asr #1
 522              	.LVL48:
 523              		.loc 1 234 0
 524 02c8 0134     		addeq	r4, r4, #1
 525              	.LVL49:
 526              		.loc 1 238 0
 527 02ca 202A     		cmp	r2, #32
 528 02cc 05D1     		bne	.L47
 529              		.loc 1 112 0
 530 02ce 631C     		adds	r3, r4, #1
 531              	.LVL50:
 532              	.L48:
 533              		.loc 1 238 0 discriminator 2
 534 02d0 1C46     		mov	r4, r3
 535              	.LVL51:
 536 02d2 13F8012B 		ldrb	r2, [r3], #1	@ zero_extendqisi2
 537              	.LVL52:
 538 02d6 202A     		cmp	r2, #32
 539 02d8 FAD0     		beq	.L48
 540              	.L47:
 541              		.loc 1 239 0
 542 02da 2C2A     		cmp	r2, #44
 543              		.loc 1 242 0
 544 02dc 4EF66022 		movw	r2, #60000
 545 02e0 02FB01F2 		mul	r2, r2, r1
 546              		.loc 1 239 0
 547 02e4 08BF     		it	eq
 548 02e6 0134     		addeq	r4, r4, #1
 549              	.LVL53:
 550              		.loc 1 243 0
 551 02e8 431C     		adds	r3, r0, #1
 552              		.loc 1 242 0
 553 02ea 92FBF8F2 		sdiv	r2, r2, r8
 554              	.LVL54:
 555              		.loc 1 243 0
 556 02ee 30D0     		beq	.L60
 557              		.loc 1 246 0
 558 02f0 0EF1010E 		add	lr, lr, #1
 559              	.LVL55:
 560 02f4 0EEB4E0E 		add	lr, lr, lr, lsl #1
 561              	.LVL56:
 562 02f8 00EB8E00 		add	r0, r0, lr, lsl #2
 563              	.LVL57:
 564              	.LBB19:
 565              	.LBB13:
 566              		.loc 1 100 0
 567 02fc 89FB0013 		smull	r1, r3, r9, r0
 568              	.LVL58:
 569 0300 C117     		asrs	r1, r0, #31
 570 0302 5B10     		asrs	r3, r3, #1
ARM GAS  /var/folders/pt/gxfsd_x53tx3h6kb8dkzftl80000gr/T//ccWVg5fL.s 			page 11


 571 0304 C3EB010E 		rsb	lr, r3, r1
 572 0308 0EF1090E 		add	lr, lr, #9
 573 030c 4FF0010C 		mov	ip, #1
 574 0310 0CFA0EFE 		lsl	lr, ip, lr
 575 0314 5B1A     		subs	r3, r3, r1
 576 0316 03EB4303 		add	r3, r3, r3, lsl #1
 577 031a A0EB8300 		sub	r0, r0, r3, lsl #2
 578              	.LVL59:
 579 031e 5AF82000 		ldr	r0, [sl, r0, lsl #2]
 580 0322 90FBFEF0 		sdiv	r0, r0, lr
 581              	.L50:
 582              	.LVL60:
 583              	.LBE13:
 584              	.LBE19:
 585              		.loc 1 248 0
 586 0326 3946     		mov	r1, r7
 587 0328 FFF7FEFF 		bl	vexAudioSetNextChipTone
 588              	.LVL61:
 589              	.LBE25:
 590              		.loc 1 173 0
 591 032c 2278     		ldrb	r2, [r4, #0]	@ zero_extendqisi2
 592 032e 002A     		cmp	r2, #0
 593 0330 7FF400AF 		bne	.L25
 594              	.L21:
 595              		.loc 1 252 0
 596 0334 0020     		movs	r0, #0
 597 0336 0146     		mov	r1, r0
 598 0338 4FF4FA72 		mov	r2, #500
 599 033c FFF7FEFF 		bl	vexAudioSetNextChipTone
 600              	.LVL62:
 601              		.loc 1 255 0
 602 0340 0198     		ldr	r0, [sp, #4]
 603 0342 FFF7FEFF 		bl	vexAudioStartChipToneSong
 604              	.LVL63:
 605              		.loc 1 257 0
 606 0346 1048     		ldr	r0, .L113
 607 0348 8FE7     		b	.L5
 608              	.LVL64:
 609              	.L110:
 610 034a 6278     		ldrb	r2, [r4, #1]	@ zero_extendqisi2
 611              	.LBB26:
 612              		.loc 1 216 0
 613 034c 0138     		subs	r0, r0, #1
 614              	.LVL65:
 615              		.loc 1 217 0
 616 034e 0134     		adds	r4, r4, #1
 617              	.LVL66:
 618 0350 9FE7     		b	.L43
 619              	.LVL67:
 620              	.L60:
 621              		.loc 1 244 0
 622 0352 0020     		movs	r0, #0
 623              	.LVL68:
 624 0354 E7E7     		b	.L50
 625              	.LVL69:
 626              	.L41:
 627 0356 A278     		ldrb	r2, [r4, #2]	@ zero_extendqisi2
ARM GAS  /var/folders/pt/gxfsd_x53tx3h6kb8dkzftl80000gr/T//ccWVg5fL.s 			page 12


 628              		.loc 1 211 0
 629 0358 0130     		adds	r0, r0, #1
 630              	.LVL70:
 631              		.loc 1 212 0
 632 035a 0234     		adds	r4, r4, #2
 633              	.LVL71:
 634 035c 97E7     		b	.L42
 635              	.LVL72:
 636              	.L38:
 637              		.loc 1 202 0
 638 035e 0720     		movs	r0, #7
 639 0360 91E7     		b	.L34
 640              	.LVL73:
 641              	.L37:
 642              		.loc 1 201 0
 643 0362 0520     		movs	r0, #5
 644 0364 8FE7     		b	.L34
 645              	.LVL74:
 646              	.L36:
 647              		.loc 1 200 0
 648 0366 0420     		movs	r0, #4
 649 0368 8DE7     		b	.L34
 650              	.LVL75:
 651              	.L35:
 652              		.loc 1 199 0
 653 036a 0220     		movs	r0, #2
 654 036c 8BE7     		b	.L34
 655              	.LVL76:
 656              	.L57:
 657              		.loc 1 198 0
 658 036e 0020     		movs	r0, #0
 659 0370 89E7     		b	.L34
 660              	.L32:
 661              	.LVL77:
 662              		.loc 1 203 0
 663 0372 0920     		movs	r0, #9
 664 0374 87E7     		b	.L34
 665              	.LVL78:
 666              	.L31:
 667              		.loc 1 175 0
 668 0376 4FF0FF30 		mov	r0, #-1
 669 037a 84E7     		b	.L34
 670              	.LVL79:
 671              	.L52:
 672              	.LBE26:
 673              		.loc 1 122 0
 674 037c 024C     		ldr	r4, .L113
 675              		.loc 1 123 0
 676 037e 8146     		mov	r9, r0
 677 0380 56E6     		b	.L2
 678              	.LVL80:
 679              	.L55:
 680              	.LBB27:
 681              	.LBB20:
 682              		.loc 1 189 0
 683 0382 0023     		movs	r3, #0
 684 0384 FDE6     		b	.L29
ARM GAS  /var/folders/pt/gxfsd_x53tx3h6kb8dkzftl80000gr/T//ccWVg5fL.s 			page 13


 685              	.L114:
 686 0386 00BF     		.align	2
 687              	.L113:
 688 0388 00000000 		.word	.LANCHOR0
 689              	.LBE20:
 690              	.LBE27:
 691              		.cfi_endproc
 692              	.LFE64:
 693              		.size	vexAudioPlayRtttl, .-vexAudioPlayRtttl
 694 038c AFF30080 		.section	.rodata.notefreq,"a",%progbits
 695              		.align	2
 696              		.set	.LANCHOR1,. + 0
 697              		.type	notefreq, %object
 698              		.size	notefreq, 48
 699              	notefreq:
 700 0000 5A100000 		.word	4186
 701 0004 52110000 		.word	4434
 702 0008 5A120000 		.word	4698
 703 000c 72130000 		.word	4978
 704 0010 9A140000 		.word	5274
 705 0014 D3150000 		.word	5587
 706 0018 1F170000 		.word	5919
 707 001c 7F180000 		.word	6271
 708 0020 F4190000 		.word	6644
 709 0024 801B0000 		.word	7040
 710 0028 221D0000 		.word	7458
 711 002c DE1E0000 		.word	7902
 712              		.section	.rodata.str1.4,"aMS",%progbits,1
 713              		.align	2
 714              	.LC0:
 715 0000 00       		.ascii	"\000"
 716 0001 000000   		.section	.bss.name,"aw",%nobits
 717              		.align	2
 718              		.set	.LANCHOR0,. + 0
 719              		.type	name, %object
 720              		.size	name, 48
 721              	name:
 722 0000 00000000 		.space	48
 722      00000000 
 722      00000000 
 722      00000000 
 722      00000000 
 723              		.text
 724              	.Letext0:
 725              		.file 2 "convex/convex/cortex/fw/vexdigital.h"
 726              		.file 3 "convex/convex/cortex/fw/vexime.h"
 727              		.file 4 "/Users/programmer/ConVEX/yagarto-4.7.2/bin/../lib/gcc/arm-none-eabi/4.7.2/../../../../arm
 728              		.file 5 "convex/ChibiOS_2.6.2/os/ports/common/ARMCMx/CMSIS/include/core_cm3.h"
 729              		.file 6 "convex/convex/cortex/fw/vexaudio.h"