ARM GAS  /var/folders/pt/gxfsd_x53tx3h6kb8dkzftl80000gr/T//ccbLUV0d.s 			page 1


   1              		.syntax unified
   2              		.cpu cortex-m3
   3              		.fpu softvfp
   4              		.eabi_attribute 20, 1
   5              		.eabi_attribute 21, 1
   6              		.eabi_attribute 23, 3
   7              		.eabi_attribute 24, 1
   8              		.eabi_attribute 25, 1
   9              		.eabi_attribute 26, 1
  10              		.eabi_attribute 30, 2
  11              		.eabi_attribute 34, 1
  12              		.eabi_attribute 18, 4
  13              		.thumb
  14              		.file	"vexshell.c"
  15              		.text
  16              	.Ltext0:
  17              		.cfi_sections	.debug_frame
  18              		.section	.text.cmd_flags,"ax",%progbits
  19              		.align	2
  20              		.p2align 4,,15
  21              		.thumb
  22              		.thumb_func
  23              		.type	cmd_flags, %function
  24              	cmd_flags:
  25              	.LFB71:
  26              		.file 1 "convex/convex/cortex/fw/vexshell.c"
  27              		.loc 1 263 0
  28              		.cfi_startproc
  29              		@ args = 0, pretend = 0, frame = 0
  30              		@ frame_needed = 0, uses_anonymous_args = 0
  31              	.LVL0:
  32              		.loc 1 264 0
  33 0000 0129     		cmp	r1, #1
  34              		.loc 1 263 0
  35 0002 70B5     		push	{r4, r5, r6, lr}
  36              	.LCFI0:
  37              		.cfi_def_cfa_offset 16
  38              		.cfi_offset 4, -16
  39              		.cfi_offset 5, -12
  40              		.cfi_offset 6, -8
  41              		.cfi_offset 14, -4
  42              		.loc 1 263 0
  43 0004 0646     		mov	r6, r0
  44 0006 1446     		mov	r4, r2
  45              		.loc 1 264 0
  46 0008 47DD     		ble	.L12
  47              		.loc 1 271 0
  48 000a 1568     		ldr	r5, [r2, #0]
  49 000c 2949     		ldr	r1, .L16
  50              	.LVL1:
  51 000e 2846     		mov	r0, r5
  52              	.LVL2:
  53 0010 FFF7FEFF 		bl	strcasecmp
  54              	.LVL3:
  55 0014 70B9     		cbnz	r0, .L3
  56              		.loc 1 272 0
  57 0016 6568     		ldr	r5, [r4, #4]
ARM GAS  /var/folders/pt/gxfsd_x53tx3h6kb8dkzftl80000gr/T//ccbLUV0d.s 			page 2


  58 0018 2749     		ldr	r1, .L16+4
  59 001a 2846     		mov	r0, r5
  60 001c FFF7FEFF 		bl	strcasecmp
  61              	.LVL4:
  62 0020 0028     		cmp	r0, #0
  63 0022 31D0     		beq	.L13
  64              	.L4:
  65              		.loc 1 276 0
  66 0024 2846     		mov	r0, r5
  67 0026 2549     		ldr	r1, .L16+8
  68 0028 FFF7FEFF 		bl	strcasecmp
  69              	.LVL5:
  70 002c 0346     		mov	r3, r0
  71 002e 0028     		cmp	r0, #0
  72 0030 23D0     		beq	.L5
  73              	.L10:
  74 0032 2568     		ldr	r5, [r4, #0]
  75              	.L3:
  76              		.loc 1 281 0
  77 0034 2846     		mov	r0, r5
  78 0036 2249     		ldr	r1, .L16+12
  79 0038 FFF7FEFF 		bl	strcasecmp
  80              	.LVL6:
  81 003c 58B9     		cbnz	r0, .L1
  82              		.loc 1 282 0
  83 003e 6568     		ldr	r5, [r4, #4]
  84 0040 1D49     		ldr	r1, .L16+4
  85 0042 2846     		mov	r0, r5
  86 0044 FFF7FEFF 		bl	strcasecmp
  87              	.LVL7:
  88 0048 70B1     		cbz	r0, .L14
  89              	.L8:
  90              		.loc 1 286 0
  91 004a 2846     		mov	r0, r5
  92 004c 1B49     		ldr	r1, .L16+8
  93 004e FFF7FEFF 		bl	strcasecmp
  94              	.LVL8:
  95 0052 0346     		mov	r3, r0
  96 0054 00B1     		cbz	r0, .L15
  97              	.L1:
  98 0056 70BD     		pop	{r4, r5, r6, pc}
  99              	.L15:
 100              		.loc 1 287 0
 101 0058 1A4A     		ldr	r2, .L16+16
 102              		.loc 1 288 0
 103 005a 1B49     		ldr	r1, .L16+20
 104 005c 3046     		mov	r0, r6
 105              		.loc 1 287 0
 106 005e 1370     		strb	r3, [r2, #0]
 107              		.loc 1 291 0
 108 0060 BDE87040 		pop	{r4, r5, r6, lr}
 109              		.loc 1 288 0
 110 0064 FFF7FEBF 		b	vex_chprintf
 111              	.LVL9:
 112              	.L14:
 113              		.loc 1 283 0
 114 0068 164B     		ldr	r3, .L16+16
ARM GAS  /var/folders/pt/gxfsd_x53tx3h6kb8dkzftl80000gr/T//ccbLUV0d.s 			page 3


 115 006a 0122     		movs	r2, #1
 116              		.loc 1 284 0
 117 006c 3046     		mov	r0, r6
 118 006e 1749     		ldr	r1, .L16+24
 119              		.loc 1 283 0
 120 0070 1A70     		strb	r2, [r3, #0]
 121              		.loc 1 284 0
 122 0072 FFF7FEFF 		bl	vex_chprintf
 123              	.LVL10:
 124 0076 6568     		ldr	r5, [r4, #4]
 125 0078 E7E7     		b	.L8
 126              	.L5:
 127              		.loc 1 277 0
 128 007a 154A     		ldr	r2, .L16+28
 129              		.loc 1 278 0
 130 007c 3046     		mov	r0, r6
 131 007e 1549     		ldr	r1, .L16+32
 132              		.loc 1 277 0
 133 0080 1370     		strb	r3, [r2, #0]
 134              		.loc 1 278 0
 135 0082 FFF7FEFF 		bl	vex_chprintf
 136              	.LVL11:
 137 0086 D4E7     		b	.L10
 138              	.L13:
 139              		.loc 1 273 0
 140 0088 114B     		ldr	r3, .L16+28
 141 008a 0122     		movs	r2, #1
 142              		.loc 1 274 0
 143 008c 3046     		mov	r0, r6
 144 008e 1249     		ldr	r1, .L16+36
 145              		.loc 1 273 0
 146 0090 1A70     		strb	r2, [r3, #0]
 147              		.loc 1 274 0
 148 0092 FFF7FEFF 		bl	vex_chprintf
 149              	.LVL12:
 150 0096 6568     		ldr	r5, [r4, #4]
 151 0098 C4E7     		b	.L4
 152              	.LVL13:
 153              	.L12:
 154              		.loc 1 265 0
 155 009a 1049     		ldr	r1, .L16+40
 156              	.LVL14:
 157 009c FFF7FEFF 		bl	vex_chprintf
 158              	.LVL15:
 159              		.loc 1 266 0
 160 00a0 3046     		mov	r0, r6
 161 00a2 0F49     		ldr	r1, .L16+44
 162 00a4 FFF7FEFF 		bl	vex_chprintf
 163              	.LVL16:
 164              		.loc 1 267 0
 165 00a8 0E49     		ldr	r1, .L16+48
 166 00aa 3046     		mov	r0, r6
 167              		.loc 1 291 0
 168 00ac BDE87040 		pop	{r4, r5, r6, lr}
 169              		.loc 1 267 0
 170 00b0 FFF7FEBF 		b	vex_chprintf
 171              	.LVL17:
ARM GAS  /var/folders/pt/gxfsd_x53tx3h6kb8dkzftl80000gr/T//ccbLUV0d.s 			page 4


 172              	.L17:
 173              		.align	2
 174              	.L16:
 175 00b4 48000000 		.word	.LC3
 176 00b8 50000000 		.word	.LC4
 177 00bc 64000000 		.word	.LC6
 178 00c0 78000000 		.word	.LC8
 179 00c4 00000000 		.word	.LANCHOR1
 180 00c8 94000000 		.word	.LC10
 181 00cc 80000000 		.word	.LC9
 182 00d0 00000000 		.word	.LANCHOR0
 183 00d4 68000000 		.word	.LC7
 184 00d8 54000000 		.word	.LC5
 185 00dc 00000000 		.word	.LC0
 186 00e0 20000000 		.word	.LC1
 187 00e4 30000000 		.word	.LC2
 188              		.cfi_endproc
 189              	.LFE71:
 190              		.size	cmd_flags, .-cmd_flags
 191 00e8 AFF30080 		.section	.text.cmd_reboot,"ax",%progbits
 191      AFF30080 
 192              		.align	2
 193              		.p2align 4,,15
 194              		.thumb
 195              		.thumb_func
 196              		.type	cmd_reboot, %function
 197              	cmd_reboot:
 198              	.LFB70:
 199              		.loc 1 249 0
 200              		.cfi_startproc
 201              		@ args = 0, pretend = 0, frame = 0
 202              		@ frame_needed = 0, uses_anonymous_args = 0
 203              	.LVL18:
 204              		.loc 1 251 0
 205 0000 0029     		cmp	r1, #0
 206              		.loc 1 249 0
 207 0002 08B5     		push	{r3, lr}
 208              	.LCFI1:
 209              		.cfi_def_cfa_offset 8
 210              		.cfi_offset 3, -8
 211              		.cfi_offset 14, -4
 212              		.loc 1 251 0
 213 0004 04DD     		ble	.L19
 214              		.loc 1 252 0
 215 0006 0E49     		ldr	r1, .L21
 216              	.LVL19:
 217              		.loc 1 258 0
 218 0008 BDE80840 		pop	{r3, lr}
 219              		.loc 1 252 0
 220 000c FFF7FEBF 		b	vex_chprintf
 221              	.LVL20:
 222              	.L19:
 223              	.LBB14:
 224              	.LBB15:
 225              		.loc 1 255 0
 226 0010 0C49     		ldr	r1, .L21+4
 227              	.LVL21:
ARM GAS  /var/folders/pt/gxfsd_x53tx3h6kb8dkzftl80000gr/T//ccbLUV0d.s 			page 5


 228 0012 FFF7FEFF 		bl	vex_chprintf
 229              	.LVL22:
 230              		.loc 1 256 0
 231 0016 6420     		movs	r0, #100
 232 0018 FFF7FEFF 		bl	chThdSleep
 233              	.LVL23:
 234              	.LBB16:
 235              	.LBB17:
 236              	.LBB18:
 237              	.LBB19:
 238              		.file 2 "convex/ChibiOS_2.6.2/os/ports/common/ARMCMx/CMSIS/include/core_cmInstr.h"
 239              		.loc 2 343 0
 240              	@ 343 "convex/ChibiOS_2.6.2/os/ports/common/ARMCMx/CMSIS/include/core_cmInstr.h" 1
 241 001c BFF34F8F 		dsb
 242              	@ 0 "" 2
 243              		.thumb
 244              	.LBE19:
 245              	.LBE18:
 246              		.file 3 "convex/ChibiOS_2.6.2/os/ports/common/ARMCMx/CMSIS/include/core_cm3.h"
 247              		.loc 3 1483 0
 248 0020 4FF46D42 		mov	r2, #60672
 249 0024 CEF20002 		movt	r2, 57344
 250 0028 D168     		ldr	r1, [r2, #12]
 251 002a 0423     		movs	r3, #4
 252 002c 01F4E061 		and	r1, r1, #1792
 253 0030 C0F2FA53 		movt	r3, 1530
 254 0034 0B43     		orrs	r3, r3, r1
 255              		.loc 3 1482 0
 256 0036 D360     		str	r3, [r2, #12]
 257              	.LBB20:
 258              	.LBB21:
 259              		.loc 2 343 0
 260              	@ 343 "convex/ChibiOS_2.6.2/os/ports/common/ARMCMx/CMSIS/include/core_cmInstr.h" 1
 261 0038 BFF34F8F 		dsb
 262              	@ 0 "" 2
 263              		.thumb
 264              	.L20:
 265 003c FEE7     		b	.L20
 266              	.L22:
 267 003e 00BF     		.align	2
 268              	.L21:
 269 0040 A8000000 		.word	.LC11
 270 0044 B8000000 		.word	.LC12
 271              	.LBE21:
 272              	.LBE20:
 273              	.LBE17:
 274              	.LBE16:
 275              	.LBE15:
 276              	.LBE14:
 277              		.cfi_endproc
 278              	.LFE70:
 279              		.size	cmd_reboot, .-cmd_reboot
 280 0048 AFF30080 		.section	.text.cmd_threads,"ax",%progbits
 280      AFF30080 
 281              		.align	2
 282              		.p2align 4,,15
 283              		.thumb
ARM GAS  /var/folders/pt/gxfsd_x53tx3h6kb8dkzftl80000gr/T//ccbLUV0d.s 			page 6


 284              		.thumb_func
 285              		.type	cmd_threads, %function
 286              	cmd_threads:
 287              	.LFB69:
 288              		.loc 1 215 0
 289              		.cfi_startproc
 290              		@ args = 0, pretend = 0, frame = 0
 291              		@ frame_needed = 0, uses_anonymous_args = 0
 292              	.LVL24:
 293 0000 F0B5     		push	{r4, r5, r6, r7, lr}
 294              	.LCFI2:
 295              		.cfi_def_cfa_offset 20
 296              		.cfi_offset 4, -20
 297              		.cfi_offset 5, -16
 298              		.cfi_offset 6, -12
 299              		.cfi_offset 7, -8
 300              		.cfi_offset 14, -4
 301              		.loc 1 220 0
 302 0002 0029     		cmp	r1, #0
 303              		.loc 1 215 0
 304 0004 85B0     		sub	sp, sp, #20
 305              	.LCFI3:
 306              		.cfi_def_cfa_offset 40
 307              		.loc 1 215 0
 308 0006 0546     		mov	r5, r0
 309              		.loc 1 220 0
 310 0008 05DD     		ble	.L24
 311              		.loc 1 222 0
 312 000a 1B49     		ldr	r1, .L31
 313              	.LVL25:
 314              		.loc 1 244 0
 315 000c 05B0     		add	sp, sp, #20
 316 000e BDE8F040 		pop	{r4, r5, r6, r7, lr}
 317              		.loc 1 222 0
 318 0012 FFF7FEBF 		b	vex_chprintf
 319              	.LVL26:
 320              	.L24:
 321              	.LBB24:
 322              	.LBB25:
 323              		.loc 1 226 0
 324 0016 1949     		ldr	r1, .L31+4
 325              	.LVL27:
 326 0018 FFF7FEFF 		bl	vex_chprintf
 327              	.LVL28:
 328              		.loc 1 227 0
 329 001c FFF7FEFF 		bl	chRegFirstThread
 330              	.LVL29:
 331 0020 174F     		ldr	r7, .L31+8
 332 0022 0446     		mov	r4, r0
 333              	.LVL30:
 334 0024 1AE0     		b	.L27
 335              	.LVL31:
 336              	.L30:
 337              		.loc 1 232 0
 338 0026 FFF7FEFF 		bl	vex_chprintf
 339              	.LVL32:
 340              	.L26:
ARM GAS  /var/folders/pt/gxfsd_x53tx3h6kb8dkzftl80000gr/T//ccbLUV0d.s 			page 7


 341              		.loc 1 236 0
 342 002a A268     		ldr	r2, [r4, #8]
 343 002c E368     		ldr	r3, [r4, #12]
 344 002e 266A     		ldr	r6, [r4, #32]
 345 0030 0092     		str	r2, [sp, #0]
 346              		.loc 1 238 0
 347 0032 A27F     		ldrb	r2, [r4, #30]	@ zero_extendqisi2
 348              		.loc 1 236 0
 349 0034 1349     		ldr	r1, .L31+12
 350              		.loc 1 238 0
 351 0036 013A     		subs	r2, r2, #1
 352              		.loc 1 236 0
 353 0038 0192     		str	r2, [sp, #4]
 354 003a 207F     		ldrb	r0, [r4, #28]	@ zero_extendqisi2
 355 003c 2246     		mov	r2, r4
 356 003e 57F82000 		ldr	r0, [r7, r0, lsl #2]
 357 0042 0396     		str	r6, [sp, #12]
 358 0044 0290     		str	r0, [sp, #8]
 359 0046 2846     		mov	r0, r5
 360 0048 FFF7FEFF 		bl	vex_chprintf
 361              	.LVL33:
 362              		.loc 1 241 0
 363 004c 2046     		mov	r0, r4
 364 004e FFF7FEFF 		bl	chRegNextThread
 365              	.LVL34:
 366 0052 0446     		mov	r4, r0
 367              	.LVL35:
 368              		.loc 1 242 0
 369 0054 1420     		movs	r0, #20
 370              	.LVL36:
 371 0056 FFF7FEFF 		bl	chThdSleep
 372              	.LVL37:
 373              		.loc 1 243 0
 374 005a 54B1     		cbz	r4, .L29
 375              	.L27:
 376              		.loc 1 231 0
 377 005c A369     		ldr	r3, [r4, #24]
 378              		.loc 1 232 0
 379 005e 2846     		mov	r0, r5
 380 0060 0949     		ldr	r1, .L31+16
 381 0062 1A46     		mov	r2, r3
 382              		.loc 1 231 0
 383 0064 002B     		cmp	r3, #0
 384 0066 DED1     		bne	.L30
 385              	.LVL38:
 386              		.loc 1 234 0
 387 0068 0849     		ldr	r1, .L31+20
 388 006a 2846     		mov	r0, r5
 389              	.LVL39:
 390 006c FFF7FEFF 		bl	vex_chprintf
 391              	.LVL40:
 392 0070 DBE7     		b	.L26
 393              	.L29:
 394              	.LBE25:
 395              	.LBE24:
 396              		.loc 1 244 0
 397 0072 05B0     		add	sp, sp, #20
ARM GAS  /var/folders/pt/gxfsd_x53tx3h6kb8dkzftl80000gr/T//ccbLUV0d.s 			page 8


 398 0074 F0BD     		pop	{r4, r5, r6, r7, pc}
 399              	.L32:
 400 0076 00BF     		.align	2
 401              	.L31:
 402 0078 C8000000 		.word	.LC13
 403 007c DC000000 		.word	.LC14
 404 0080 00000000 		.word	.LANCHOR2
 405 0084 38010000 		.word	.LC17
 406 0088 1C010000 		.word	.LC15
 407 008c 24010000 		.word	.LC16
 408              		.cfi_endproc
 409              	.LFE69:
 410              		.size	cmd_threads, .-cmd_threads
 411              		.section	.text.cmd_mem,"ax",%progbits
 412              		.align	2
 413              		.p2align 4,,15
 414              		.thumb
 415              		.thumb_func
 416              		.type	cmd_mem, %function
 417              	cmd_mem:
 418              	.LFB68:
 419              		.loc 1 191 0
 420              		.cfi_startproc
 421              		@ args = 0, pretend = 0, frame = 8
 422              		@ frame_needed = 0, uses_anonymous_args = 0
 423              	.LVL41:
 424 0000 30B5     		push	{r4, r5, lr}
 425              	.LCFI4:
 426              		.cfi_def_cfa_offset 12
 427              		.cfi_offset 4, -12
 428              		.cfi_offset 5, -8
 429              		.cfi_offset 14, -4
 430              		.loc 1 196 0
 431 0002 0029     		cmp	r1, #0
 432              		.loc 1 191 0
 433 0004 83B0     		sub	sp, sp, #12
 434              	.LCFI5:
 435              		.cfi_def_cfa_offset 24
 436              		.loc 1 191 0
 437 0006 0446     		mov	r4, r0
 438              		.loc 1 196 0
 439 0008 04DD     		ble	.L34
 440              		.loc 1 198 0
 441 000a 1349     		ldr	r1, .L36
 442              	.LVL42:
 443 000c FFF7FEFF 		bl	vex_chprintf
 444              	.LVL43:
 445              	.L33:
 446              		.loc 1 209 0
 447 0010 03B0     		add	sp, sp, #12
 448 0012 30BD     		pop	{r4, r5, pc}
 449              	.LVL44:
 450              	.L34:
 451              	.LBB28:
 452              	.LBB29:
 453              		.loc 1 202 0
 454 0014 01A9     		add	r1, sp, #4
ARM GAS  /var/folders/pt/gxfsd_x53tx3h6kb8dkzftl80000gr/T//ccbLUV0d.s 			page 9


 455              	.LVL45:
 456 0016 0020     		movs	r0, #0
 457              	.LVL46:
 458 0018 FFF7FEFF 		bl	chHeapStatus
 459              	.LVL47:
 460 001c 0546     		mov	r5, r0
 461              	.LVL48:
 462              		.loc 1 203 0
 463 001e FFF7FEFF 		bl	chCoreStatus
 464              	.LVL49:
 465 0022 0E49     		ldr	r1, .L36+4
 466 0024 0246     		mov	r2, r0
 467 0026 2046     		mov	r0, r4
 468 0028 FFF7FEFF 		bl	vex_chprintf
 469              	.LVL50:
 470              		.loc 1 204 0
 471 002c 2A46     		mov	r2, r5
 472 002e 2046     		mov	r0, r4
 473 0030 0B49     		ldr	r1, .L36+8
 474 0032 FFF7FEFF 		bl	vex_chprintf
 475              	.LVL51:
 476              		.loc 1 205 0
 477 0036 019A     		ldr	r2, [sp, #4]
 478 0038 2046     		mov	r0, r4
 479 003a 0A49     		ldr	r1, .L36+12
 480 003c FFF7FEFF 		bl	vex_chprintf
 481              	.LVL52:
 482              		.loc 1 207 0
 483 0040 094B     		ldr	r3, .L36+16
 484 0042 0A4A     		ldr	r2, .L36+20
 485              		.loc 1 208 0
 486 0044 2046     		mov	r0, r4
 487              		.loc 1 207 0
 488 0046 D218     		adds	r2, r2, r3
 489 0048 094B     		ldr	r3, .L36+24
 490              		.loc 1 208 0
 491 004a 0A49     		ldr	r1, .L36+28
 492              		.loc 1 207 0
 493 004c D21A     		subs	r2, r2, r3
 494              	.LVL53:
 495              		.loc 1 208 0
 496 004e 1346     		mov	r3, r2
 497 0050 FFF7FEFF 		bl	vex_chprintf
 498              	.LVL54:
 499 0054 DCE7     		b	.L33
 500              	.L37:
 501 0056 00BF     		.align	2
 502              	.L36:
 503 0058 58010000 		.word	.LC18
 504 005c 68010000 		.word	.LC19
 505 0060 88010000 		.word	.LC20
 506 0064 A0010000 		.word	.LC21
 507 0068 000000F8 		.word	_textdata-134217728
 508 006c 00000000 		.word	_edata
 509 0070 00000000 		.word	_data
 510 0074 C0010000 		.word	.LC22
 511              	.LBE29:
ARM GAS  /var/folders/pt/gxfsd_x53tx3h6kb8dkzftl80000gr/T//ccbLUV0d.s 			page 10


 512              	.LBE28:
 513              		.cfi_endproc
 514              	.LFE68:
 515              		.size	cmd_mem, .-cmd_mem
 516 0078 AFF30080 		.section	.text.cmd_systime,"ax",%progbits
 516      AFF30080 
 517              		.align	2
 518              		.p2align 4,,15
 519              		.thumb
 520              		.thumb_func
 521              		.type	cmd_systime, %function
 522              	cmd_systime:
 523              	.LFB67:
 524              		.loc 1 172 0
 525              		.cfi_startproc
 526              		@ args = 0, pretend = 0, frame = 0
 527              		@ frame_needed = 0, uses_anonymous_args = 0
 528              		@ link register save eliminated.
 529              	.LVL55:
 530              		.loc 1 174 0
 531 0000 0029     		cmp	r1, #0
 532 0002 03DD     		ble	.L39
 533              	.LVL56:
 534              	.LBB34:
 535              	.LBB35:
 536              		.loc 1 113 0
 537 0004 0449     		ldr	r1, .L40
 538              	.LVL57:
 539 0006 054A     		ldr	r2, .L40+4
 540              	.LVL58:
 541              	.LBE35:
 542              	.LBE34:
 543              		.loc 1 179 0
 544              	.LBB37:
 545              	.LBB36:
 546              		.loc 1 113 0
 547 0008 FFF7FEBF 		b	vex_chprintf
 548              	.LVL59:
 549              	.L39:
 550              	.LBE36:
 551              	.LBE37:
 552              	.LBB38:
 553              	.LBB39:
 554              		.loc 1 178 0
 555 000c 044B     		ldr	r3, .L40+8
 556 000e 0549     		ldr	r1, .L40+12
 557              	.LVL60:
 558 0010 DA68     		ldr	r2, [r3, #12]
 559              	.LVL61:
 560              	.LBE39:
 561              	.LBE38:
 562              		.loc 1 179 0
 563              	.LBB41:
 564              	.LBB40:
 565              		.loc 1 178 0
 566 0012 FFF7FEBF 		b	vex_chprintf
 567              	.LVL62:
ARM GAS  /var/folders/pt/gxfsd_x53tx3h6kb8dkzftl80000gr/T//ccbLUV0d.s 			page 11


 568              	.L41:
 569 0016 00BF     		.align	2
 570              	.L40:
 571 0018 E8010000 		.word	.LC23
 572 001c F4010000 		.word	.LC24
 573 0020 00000000 		.word	vtlist
 574 0024 FC010000 		.word	.LC25
 575              	.LBE40:
 576              	.LBE41:
 577              		.cfi_endproc
 578              	.LFE67:
 579              		.size	cmd_systime, .-cmd_systime
 580 0028 AFF30080 		.section	.text.cmd_info,"ax",%progbits
 580      AFF30080 
 581              		.align	2
 582              		.p2align 4,,15
 583              		.thumb
 584              		.thumb_func
 585              		.type	cmd_info, %function
 586              	cmd_info:
 587              	.LFB66:
 588              		.loc 1 134 0
 589              		.cfi_startproc
 590              		@ args = 0, pretend = 0, frame = 0
 591              		@ frame_needed = 0, uses_anonymous_args = 0
 592              	.LVL63:
 593 0000 10B5     		push	{r4, lr}
 594              	.LCFI6:
 595              		.cfi_def_cfa_offset 8
 596              		.cfi_offset 4, -8
 597              		.cfi_offset 14, -4
 598              		.loc 1 136 0
 599 0002 0029     		cmp	r1, #0
 600              		.loc 1 134 0
 601 0004 82B0     		sub	sp, sp, #8
 602              	.LCFI7:
 603              		.cfi_def_cfa_offset 16
 604              		.loc 1 134 0
 605 0006 0446     		mov	r4, r0
 606              		.loc 1 136 0
 607 0008 06DD     		ble	.L43
 608              	.LVL64:
 609              	.LBB46:
 610              	.LBB47:
 611              		.loc 1 113 0
 612 000a 1C49     		ldr	r1, .L44
 613              	.LVL65:
 614 000c 1C4A     		ldr	r2, .L44+4
 615              	.LVL66:
 616              	.LBE47:
 617              	.LBE46:
 618              		.loc 1 166 0
 619 000e 02B0     		add	sp, sp, #8
 620 0010 BDE81040 		pop	{r4, lr}
 621              	.LBB49:
 622              	.LBB48:
 623              		.loc 1 113 0
ARM GAS  /var/folders/pt/gxfsd_x53tx3h6kb8dkzftl80000gr/T//ccbLUV0d.s 			page 12


 624 0014 FFF7FEBF 		b	vex_chprintf
 625              	.LVL67:
 626              	.L43:
 627              	.LBE48:
 628              	.LBE49:
 629              	.LBB50:
 630              	.LBB51:
 631              		.loc 1 141 0
 632 0018 1A49     		ldr	r1, .L44+8
 633              	.LVL68:
 634 001a 1B4A     		ldr	r2, .L44+12
 635              	.LVL69:
 636 001c FFF7FEFF 		bl	vex_chprintf
 637              	.LVL70:
 638              		.loc 1 143 0
 639 0020 2046     		mov	r0, r4
 640 0022 1A49     		ldr	r1, .L44+16
 641 0024 1A4A     		ldr	r2, .L44+20
 642 0026 FFF7FEFF 		bl	vex_chprintf
 643              	.LVL71:
 644              		.loc 1 145 0
 645 002a 2046     		mov	r0, r4
 646 002c 1949     		ldr	r1, .L44+24
 647 002e 1A4A     		ldr	r2, .L44+28
 648 0030 FFF7FEFF 		bl	vex_chprintf
 649              	.LVL72:
 650              		.loc 1 147 0
 651 0034 2046     		mov	r0, r4
 652 0036 1949     		ldr	r1, .L44+32
 653 0038 194A     		ldr	r2, .L44+36
 654 003a FFF7FEFF 		bl	vex_chprintf
 655              	.LVL73:
 656              		.loc 1 150 0
 657 003e 2046     		mov	r0, r4
 658 0040 1849     		ldr	r1, .L44+40
 659 0042 194A     		ldr	r2, .L44+44
 660 0044 FFF7FEFF 		bl	vex_chprintf
 661              	.LVL74:
 662              		.loc 1 153 0
 663 0048 2046     		mov	r0, r4
 664 004a 1849     		ldr	r1, .L44+48
 665 004c 184A     		ldr	r2, .L44+52
 666 004e FFF7FEFF 		bl	vex_chprintf
 667              	.LVL75:
 668              		.loc 1 156 0
 669 0052 2046     		mov	r0, r4
 670 0054 1749     		ldr	r1, .L44+56
 671 0056 184A     		ldr	r2, .L44+60
 672 0058 FFF7FEFF 		bl	vex_chprintf
 673              	.LVL76:
 674              		.loc 1 159 0
 675 005c 2046     		mov	r0, r4
 676 005e 1749     		ldr	r1, .L44+64
 677 0060 174A     		ldr	r2, .L44+68
 678 0062 FFF7FEFF 		bl	vex_chprintf
 679              	.LVL77:
 680              		.loc 1 163 0
ARM GAS  /var/folders/pt/gxfsd_x53tx3h6kb8dkzftl80000gr/T//ccbLUV0d.s 			page 13


 681 0066 174B     		ldr	r3, .L44+72
 682 0068 2046     		mov	r0, r4
 683 006a 0093     		str	r3, [sp, #0]
 684 006c 1649     		ldr	r1, .L44+76
 685 006e 174A     		ldr	r2, .L44+80
 686 0070 174B     		ldr	r3, .L44+84
 687 0072 FFF7FEFF 		bl	vex_chprintf
 688              	.LVL78:
 689              	.LBE51:
 690              	.LBE50:
 691              		.loc 1 166 0
 692 0076 02B0     		add	sp, sp, #8
 693 0078 10BD     		pop	{r4, pc}
 694              	.L45:
 695 007a 00BF     		.align	2
 696              	.L44:
 697 007c E8010000 		.word	.LC23
 698 0080 04020000 		.word	.LC26
 699 0084 0C020000 		.word	.LC27
 700 0088 20020000 		.word	.LC28
 701 008c 28020000 		.word	.LC29
 702 0090 3C020000 		.word	.LC30
 703 0094 48020000 		.word	.LC31
 704 0098 5C020000 		.word	.LC32
 705 009c 64020000 		.word	.LC33
 706 00a0 78020000 		.word	.LC34
 707 00a4 84020000 		.word	.LC35
 708 00a8 98020000 		.word	.LC36
 709 00ac B0020000 		.word	.LC37
 710 00b0 C4020000 		.word	.LC38
 711 00b4 EC020000 		.word	.LC39
 712 00b8 00030000 		.word	.LC40
 713 00bc 0C030000 		.word	.LC41
 714 00c0 20030000 		.word	.LC42
 715 00c4 50030000 		.word	.LC46
 716 00c8 28030000 		.word	.LC43
 717 00cc 40030000 		.word	.LC44
 718 00d0 4C030000 		.word	.LC45
 719              		.cfi_endproc
 720              	.LFE66:
 721              		.size	cmd_info, .-cmd_info
 722 00d4 AFF30080 		.section	.text._strtok.constprop.5,"ax",%progbits
 722      AFF30080 
 722      AFF30080 
 723              		.align	2
 724              		.p2align 4,,15
 725              		.thumb
 726              		.thumb_func
 727              		.type	_strtok.constprop.5, %function
 728              	_strtok.constprop.5:
 729              	.LFB83:
 730              		.loc 1 90 0
 731              		.cfi_startproc
 732              		@ args = 0, pretend = 0, frame = 0
 733              		@ frame_needed = 0, uses_anonymous_args = 0
 734              	.LVL79:
 735 0000 38B5     		push	{r3, r4, r5, lr}
ARM GAS  /var/folders/pt/gxfsd_x53tx3h6kb8dkzftl80000gr/T//ccbLUV0d.s 			page 14


 736              	.LCFI8:
 737              		.cfi_def_cfa_offset 16
 738              		.cfi_offset 3, -16
 739              		.cfi_offset 4, -12
 740              		.cfi_offset 5, -8
 741              		.cfi_offset 14, -4
 742              		.loc 1 93 0
 743 0002 0446     		mov	r4, r0
 744              		.loc 1 90 0
 745 0004 0D46     		mov	r5, r1
 746              		.loc 1 93 0
 747 0006 98B1     		cbz	r0, .L47
 748              		.loc 1 94 0
 749 0008 2860     		str	r0, [r5, #0]
 750              	.LVL80:
 751              	.L48:
 752              		.loc 1 100 0
 753 000a 0C49     		ldr	r1, .L58
 754              	.LVL81:
 755 000c 2046     		mov	r0, r4
 756              	.LVL82:
 757 000e FFF7FEFF 		bl	strspn
 758              	.LVL83:
 759 0012 2418     		adds	r4, r4, r0
 760              	.LVL84:
 761              		.loc 1 101 0
 762 0014 2046     		mov	r0, r4
 763 0016 2021     		movs	r1, #32
 764 0018 FFF7FEFF 		bl	strchr
 765              	.LVL85:
 766 001c 2860     		str	r0, [r5, #0]
 767              		.loc 1 102 0
 768 001e 18B1     		cbz	r0, .L50
 769              		.loc 1 103 0
 770 0020 0023     		movs	r3, #0
 771 0022 00F8013B 		strb	r3, [r0], #1
 772 0026 2860     		str	r0, [r5, #0]
 773              	.L50:
 774              		.loc 1 105 0
 775 0028 2378     		ldrb	r3, [r4, #0]	@ zero_extendqisi2
 776 002a 23B1     		cbz	r3, .L51
 777              		.loc 1 106 0
 778 002c 2046     		mov	r0, r4
 779 002e 38BD     		pop	{r3, r4, r5, pc}
 780              	.LVL86:
 781              	.L47:
 782              		.loc 1 95 0
 783 0030 0C68     		ldr	r4, [r1, #0]
 784              	.LVL87:
 785              		.loc 1 97 0
 786 0032 002C     		cmp	r4, #0
 787 0034 E9D1     		bne	.L48
 788              	.LVL88:
 789              	.L51:
 790              		.loc 1 98 0
 791 0036 0024     		movs	r4, #0
 792              	.LVL89:
ARM GAS  /var/folders/pt/gxfsd_x53tx3h6kb8dkzftl80000gr/T//ccbLUV0d.s 			page 15


 793              		.loc 1 106 0
 794 0038 2046     		mov	r0, r4
 795 003a 38BD     		pop	{r3, r4, r5, pc}
 796              	.L59:
 797              		.align	2
 798              	.L58:
 799 003c 00000000 		.word	.LANCHOR3
 800              		.cfi_endproc
 801              	.LFE83:
 802              		.size	_strtok.constprop.5, .-_strtok.constprop.5
 803              		.section	.text.shellInit,"ax",%progbits
 804              		.align	2
 805              		.p2align 4,,15
 806              		.global	shellInit
 807              		.thumb
 808              		.thumb_func
 809              		.type	shellInit, %function
 810              	shellInit:
 811              	.LFB74:
 812              		.loc 1 430 0
 813              		.cfi_startproc
 814              		@ args = 0, pretend = 0, frame = 0
 815              		@ frame_needed = 0, uses_anonymous_args = 0
 816              		@ link register save eliminated.
 817              		.loc 1 431 0
 818 0000 40F20003 		movw	r3, #:lower16:.LANCHOR4
 819 0004 C0F20003 		movt	r3, #:upper16:.LANCHOR4
 820 0008 1B60     		str	r3, [r3, #0]
 821 000a 7047     		bx	lr
 822              		.cfi_endproc
 823              	.LFE74:
 824              		.size	shellInit, .-shellInit
 825 000c AFF30080 		.section	.text.shellCreate,"ax",%progbits
 826              		.align	2
 827              		.p2align 4,,15
 828              		.global	shellCreate
 829              		.thumb
 830              		.thumb_func
 831              		.type	shellCreate, %function
 832              	shellCreate:
 833              	.LFB75:
 834              		.loc 1 446 0
 835              		.cfi_startproc
 836              		@ args = 0, pretend = 0, frame = 0
 837              		@ frame_needed = 0, uses_anonymous_args = 0
 838              	.LVL90:
 839 0000 00B5     		push	{lr}
 840              	.LCFI9:
 841              		.cfi_def_cfa_offset 4
 842              		.cfi_offset 14, -4
 843              		.loc 1 447 0
 844 0002 40F20003 		movw	r3, #:lower16:shell_thread
 845              		.loc 1 446 0
 846 0006 83B0     		sub	sp, sp, #12
 847              	.LCFI10:
 848              		.cfi_def_cfa_offset 16
 849              		.loc 1 447 0
ARM GAS  /var/folders/pt/gxfsd_x53tx3h6kb8dkzftl80000gr/T//ccbLUV0d.s 			page 16


 850 0008 0090     		str	r0, [sp, #0]
 851 000a C0F20003 		movt	r3, #:upper16:shell_thread
 852 000e 0020     		movs	r0, #0
 853              	.LVL91:
 854 0010 FFF7FEFF 		bl	chThdCreateFromHeap
 855              	.LVL92:
 856              		.loc 1 448 0
 857 0014 03B0     		add	sp, sp, #12
 858 0016 00BD     		pop	{pc}
 859              		.cfi_endproc
 860              	.LFE75:
 861              		.size	shellCreate, .-shellCreate
 862 0018 AFF30080 		.section	.text.shellCreateStatic,"ax",%progbits
 862      AFF30080 
 863              		.align	2
 864              		.p2align 4,,15
 865              		.global	shellCreateStatic
 866              		.thumb
 867              		.thumb_func
 868              		.type	shellCreateStatic, %function
 869              	shellCreateStatic:
 870              	.LFB76:
 871              		.loc 1 462 0
 872              		.cfi_startproc
 873              		@ args = 0, pretend = 0, frame = 0
 874              		@ frame_needed = 0, uses_anonymous_args = 0
 875              	.LVL93:
 876 0000 00B5     		push	{lr}
 877              	.LCFI11:
 878              		.cfi_def_cfa_offset 4
 879              		.cfi_offset 14, -4
 880 0002 83B0     		sub	sp, sp, #12
 881              	.LCFI12:
 882              		.cfi_def_cfa_offset 16
 883              		.loc 1 463 0
 884 0004 0090     		str	r0, [sp, #0]
 885 0006 0846     		mov	r0, r1
 886              	.LVL94:
 887 0008 1146     		mov	r1, r2
 888              	.LVL95:
 889 000a 1A46     		mov	r2, r3
 890              	.LVL96:
 891 000c 40F20003 		movw	r3, #:lower16:shell_thread
 892              	.LVL97:
 893 0010 C0F20003 		movt	r3, #:upper16:shell_thread
 894 0014 FFF7FEFF 		bl	chThdCreateStatic
 895              	.LVL98:
 896              		.loc 1 464 0
 897 0018 03B0     		add	sp, sp, #12
 898 001a 00BD     		pop	{pc}
 899              		.cfi_endproc
 900              	.LFE76:
 901              		.size	shellCreateStatic, .-shellCreateStatic
 902              		.section	.text.shellGetLine,"ax",%progbits
 903              		.align	2
 904              		.p2align 4,,15
 905              		.global	shellGetLine
ARM GAS  /var/folders/pt/gxfsd_x53tx3h6kb8dkzftl80000gr/T//ccbLUV0d.s 			page 17


 906              		.thumb
 907              		.thumb_func
 908              		.type	shellGetLine, %function
 909              	shellGetLine:
 910              	.LFB77:
 911              		.loc 1 476 0
 912              		.cfi_startproc
 913              		@ args = 0, pretend = 0, frame = 16
 914              		@ frame_needed = 0, uses_anonymous_args = 0
 915              	.LVL99:
 916 0000 2DE9F04F 		push	{r4, r5, r6, r7, r8, r9, sl, fp, lr}
 917              	.LCFI13:
 918              		.cfi_def_cfa_offset 36
 919              		.cfi_offset 4, -36
 920              		.cfi_offset 5, -32
 921              		.cfi_offset 6, -28
 922              		.cfi_offset 7, -24
 923              		.cfi_offset 8, -20
 924              		.cfi_offset 9, -16
 925              		.cfi_offset 10, -12
 926              		.cfi_offset 11, -8
 927              		.cfi_offset 14, -4
 928              		.loc 1 483 0
 929 0004 DFF8E081 		ldr	r8, .L138+32
 930              		.loc 1 476 0
 931 0008 85B0     		sub	sp, sp, #20
 932              	.LCFI14:
 933              		.cfi_def_cfa_offset 56
 934              		.loc 1 483 0
 935 000a D8F80C30 		ldr	r3, [r8, #12]
 936              	.LBB52:
 937              		.loc 1 607 0
 938 000e DFF8C491 		ldr	r9, .L138+12
 939              	.LBE52:
 940              		.loc 1 476 0
 941 0012 0F46     		mov	r7, r1
 942              	.LVL100:
 943              		.loc 1 483 0
 944 0014 0193     		str	r3, [sp, #4]
 945              	.LVL101:
 946              		.loc 1 476 0
 947 0016 8346     		mov	fp, r0
 948 0018 9246     		mov	sl, r2
 949              		.loc 1 483 0
 950 001a 0E46     		mov	r6, r1
 951 001c 0C46     		mov	r4, r1
 952              	.LVL102:
 953              	.L131:
 954              		.loc 1 486 0
 955 001e 0025     		movs	r5, #0
 956              	.LVL103:
 957              	.L127:
 958              	.LBB53:
 959              		.loc 1 492 0
 960 0020 DBF80030 		ldr	r3, [fp, #0]
 961 0024 5846     		mov	r0, fp
 962 0026 5B68     		ldr	r3, [r3, #4]
ARM GAS  /var/folders/pt/gxfsd_x53tx3h6kb8dkzftl80000gr/T//ccbLUV0d.s 			page 18


 963 0028 0DF10F01 		add	r1, sp, #15
 964 002c 0122     		movs	r2, #1
 965 002e 9847     		blx	r3
 966              	.LVL104:
 967 0030 0028     		cmp	r0, #0
 968 0032 00F0B780 		beq	.L95
 969              		.loc 1 501 0
 970 0036 2BB2     		sxth	r3, r5
 971 0038 012B     		cmp	r3, #1
 972 003a 32D0     		beq	.L133
 973              		.loc 1 513 0
 974 003c 022B     		cmp	r3, #2
 975              		.loc 1 515 0
 976 003e 9DF80F30 		ldrb	r3, [sp, #15]	@ zero_extendqisi2
 977              	.LVL105:
 978              		.loc 1 513 0
 979 0042 35D0     		beq	.L69
 980              	.LVL106:
 981              	.L68:
 982              		.loc 1 537 0
 983 0044 1B2B     		cmp	r3, #27
 984 0046 00F0A380 		beq	.L101
 985 004a 50D8     		bhi	.L80
 986 004c 082B     		cmp	r3, #8
 987 004e 00F08580 		beq	.L75
 988 0052 0D2B     		cmp	r3, #13
 989 0054 5DD0     		beq	.L76
 990 0056 042B     		cmp	r3, #4
 991 0058 53D0     		beq	.L134
 992              	.L73:
 993              		.loc 1 603 0
 994 005a 1F2B     		cmp	r3, #31
 995 005c E0D9     		bls	.L127
 996              		.loc 1 604 0
 997 005e 0AF1FF32 		add	r2, sl, #-1
 998 0062 BA18     		adds	r2, r7, r2
 999 0064 9442     		cmp	r4, r2
 1000 0066 DBD2     		bcs	.L127
 1001              		.loc 1 607 0
 1002 0068 99F80020 		ldrb	r2, [r9, #0]	@ zero_extendqisi2
 1003              		.loc 1 605 0
 1004 006c 04F8013B 		strb	r3, [r4], #1
 1005              	.LVL107:
 1006              		.loc 1 607 0
 1007 0070 002A     		cmp	r2, #0
 1008 0072 D5D0     		beq	.L127
 1009              		.loc 1 608 0
 1010 0074 40F20002 		movw	r2, #:lower16:.LANCHOR1
 1011 0078 C0F20002 		movt	r2, #:upper16:.LANCHOR1
 1012 007c 1378     		ldrb	r3, [r2, #0]	@ zero_extendqisi2
 1013 007e 002B     		cmp	r3, #0
 1014 0080 40F09280 		bne	.L89
 1015              	.L92:
 1016              		.loc 1 609 0 discriminator 1
 1017 0084 A642     		cmp	r6, r4
 1018 0086 08D0     		beq	.L91
 1019              	.L93:
ARM GAS  /var/folders/pt/gxfsd_x53tx3h6kb8dkzftl80000gr/T//ccbLUV0d.s 			page 19


 1020              		.loc 1 610 0
 1021 0088 16F8012B 		ldrb	r2, [r6], #1	@ zero_extendqisi2
 1022              	.LVL108:
 1023 008c 5846     		mov	r0, fp
 1024 008e 4E49     		ldr	r1, .L138
 1025 0090 FFF7FEFF 		bl	vex_chprintf
 1026              	.LVL109:
 1027              		.loc 1 609 0
 1028 0094 B442     		cmp	r4, r6
 1029 0096 F7D1     		bne	.L93
 1030 0098 2646     		mov	r6, r4
 1031              	.LVL110:
 1032              	.L91:
 1033              		.loc 1 613 0
 1034 009a D8F80C30 		ldr	r3, [r8, #12]
 1035 009e 0193     		str	r3, [sp, #4]
 1036              	.LVL111:
 1037 00a0 BEE7     		b	.L127
 1038              	.LVL112:
 1039              	.L133:
 1040              		.loc 1 503 0
 1041 00a2 9DF80F30 		ldrb	r3, [sp, #15]	@ zero_extendqisi2
 1042              		.loc 1 509 0
 1043 00a6 0025     		movs	r5, #0
 1044              	.LVL113:
 1045              		.loc 1 503 0
 1046 00a8 5B2B     		cmp	r3, #91
 1047 00aa CBD1     		bne	.L68
 1048              		.loc 1 505 0
 1049 00ac 0225     		movs	r5, #2
 1050 00ae B7E7     		b	.L127
 1051              	.LVL114:
 1052              	.L69:
 1053              		.loc 1 515 0
 1054 00b0 412B     		cmp	r3, #65
 1055 00b2 B4D1     		bne	.L131
 1056              		.loc 1 518 0
 1057 00b4 99F80030 		ldrb	r3, [r9, #0]	@ zero_extendqisi2
 1058              	.LVL115:
 1059 00b8 002B     		cmp	r3, #0
 1060 00ba 6DD1     		bne	.L135
 1061              	.L71:
 1062              	.LVL116:
 1063              		.loc 1 523 0 discriminator 1
 1064 00bc 0AF1FF36 		add	r6, sl, #-1
 1065              	.LVL117:
 1066 00c0 BE19     		adds	r6, r7, r6
 1067 00c2 B442     		cmp	r4, r6
 1068 00c4 78D2     		bcs	.L98
 1069              		.loc 1 523 0 is_stmt 0
 1070 00c6 40F20002 		movw	r2, #:lower16:.LANCHOR5
 1071 00ca C0F20002 		movt	r2, #:upper16:.LANCHOR5
 1072 00ce 1578     		ldrb	r5, [r2, #0]	@ zero_extendqisi2
 1073              	.LVL118:
 1074 00d0 002D     		cmp	r5, #0
 1075 00d2 74D0     		beq	.L99
 1076 00d4 3D4A     		ldr	r2, .L138+4
ARM GAS  /var/folders/pt/gxfsd_x53tx3h6kb8dkzftl80000gr/T//ccbLUV0d.s 			page 20


 1077 00d6 2346     		mov	r3, r4
 1078 00d8 03E0     		b	.L72
 1079              	.LVL119:
 1080              	.L137:
 1081              		.loc 1 523 0 discriminator 2
 1082 00da 12F8015F 		ldrb	r5, [r2, #1]!	@ zero_extendqisi2
 1083 00de 002D     		cmp	r5, #0
 1084 00e0 58D0     		beq	.L136
 1085              	.L72:
 1086              		.loc 1 524 0 is_stmt 1
 1087 00e2 03F8015B 		strb	r5, [r3], #1
 1088              	.LVL120:
 1089              		.loc 1 523 0
 1090 00e6 B342     		cmp	r3, r6
 1091              		.loc 1 524 0
 1092 00e8 1C46     		mov	r4, r3
 1093              	.LVL121:
 1094              		.loc 1 523 0
 1095 00ea F6D1     		bne	.L137
 1096 00ec 97E7     		b	.L131
 1097              	.LVL122:
 1098              	.L80:
 1099              		.loc 1 537 0
 1100 00ee 7F2B     		cmp	r3, #127
 1101 00f0 34D0     		beq	.L75
 1102 00f2 C92B     		cmp	r3, #201
 1103 00f4 2DD0     		beq	.L79
 1104 00f6 212B     		cmp	r3, #33
 1105 00f8 AFD1     		bne	.L73
 1106              		.loc 1 599 0
 1107 00fa 6420     		movs	r0, #100
 1108 00fc FFF7FEFF 		bl	chThdSleep
 1109              	.LVL123:
 1110              		.loc 1 600 0
 1111 0100 8EE7     		b	.L127
 1112              	.L134:
 1113              		.loc 1 541 0
 1114 0102 5846     		mov	r0, fp
 1115 0104 3249     		ldr	r1, .L138+8
 1116 0106 FFF7FEFF 		bl	vex_chprintf
 1117              	.LVL124:
 1118              		.loc 1 542 0
 1119 010a 0120     		movs	r0, #1
 1120              	.LVL125:
 1121              	.L129:
 1122              	.LBE53:
 1123              		.loc 1 620 0
 1124 010c 05B0     		add	sp, sp, #20
 1125 010e BDE8F08F 		pop	{r4, r5, r6, r7, r8, r9, sl, fp, pc}
 1126              	.LVL126:
 1127              	.L76:
 1128              	.LBB54:
 1129              		.loc 1 568 0
 1130 0112 304B     		ldr	r3, .L138+12
 1131              		.loc 1 566 0
 1132 0114 0022     		movs	r2, #0
 1133              		.loc 1 568 0
ARM GAS  /var/folders/pt/gxfsd_x53tx3h6kb8dkzftl80000gr/T//ccbLUV0d.s 			page 21


 1134 0116 1B78     		ldrb	r3, [r3, #0]	@ zero_extendqisi2
 1135              		.loc 1 566 0
 1136 0118 2270     		strb	r2, [r4, #0]
 1137              		.loc 1 568 0
 1138 011a A3B1     		cbz	r3, .L85
 1139              		.loc 1 570 0
 1140 011c B442     		cmp	r4, r6
 1141 011e 04D0     		beq	.L86
 1142              		.loc 1 571 0
 1143 0120 5846     		mov	r0, fp
 1144 0122 2D49     		ldr	r1, .L138+16
 1145 0124 3246     		mov	r2, r6
 1146 0126 FFF7FEFF 		bl	vex_chprintf
 1147              	.LVL127:
 1148              	.L86:
 1149              		.loc 1 574 0 discriminator 1
 1150 012a 3A78     		ldrb	r2, [r7, #0]	@ zero_extendqisi2
 1151 012c 002A     		cmp	r2, #0
 1152 012e 48D0     		beq	.L102
 1153              		.loc 1 475 0
 1154 0130 2A4B     		ldr	r3, .L138+20
 1155              	.LVL128:
 1156              	.L88:
 1157              		.loc 1 575 0 discriminator 2
 1158 0132 03F8012C 		strb	r2, [r3, #-1]
 1159              	.LVL129:
 1160              		.loc 1 574 0 discriminator 2
 1161 0136 17F8012F 		ldrb	r2, [r7, #1]!	@ zero_extendqisi2
 1162              		.loc 1 475 0 discriminator 2
 1163 013a 1946     		mov	r1, r3
 1164 013c 0133     		adds	r3, r3, #1
 1165              	.LVL130:
 1166              		.loc 1 574 0 discriminator 2
 1167 013e 002A     		cmp	r2, #0
 1168 0140 F7D1     		bne	.L88
 1169              	.LVL131:
 1170              	.L87:
 1171              		.loc 1 576 0
 1172 0142 0023     		movs	r3, #0
 1173 0144 0B70     		strb	r3, [r1, #0]
 1174              	.L85:
 1175              		.loc 1 580 0
 1176 0146 5846     		mov	r0, fp
 1177 0148 2549     		ldr	r1, .L138+24
 1178 014a FFF7FEFF 		bl	vex_chprintf
 1179              	.LVL132:
 1180              		.loc 1 581 0
 1181 014e 0020     		movs	r0, #0
 1182 0150 DCE7     		b	.L129
 1183              	.LVL133:
 1184              	.L79:
 1185              		.loc 1 592 0
 1186 0152 4FF4FA70 		mov	r0, #500
 1187 0156 FFF7FEFF 		bl	chThdSleep
 1188              	.LVL134:
 1189              		.loc 1 593 0
 1190 015a 61E7     		b	.L127
ARM GAS  /var/folders/pt/gxfsd_x53tx3h6kb8dkzftl80000gr/T//ccbLUV0d.s 			page 22


 1191              	.L75:
 1192              		.loc 1 548 0
 1193 015c BC42     		cmp	r4, r7
 1194 015e 3FF45FAF 		beq	.L127
 1195              		.loc 1 550 0
 1196 0162 99F80030 		ldrb	r3, [r9, #0]	@ zero_extendqisi2
 1197 0166 43B9     		cbnz	r3, .L132
 1198              		.loc 1 559 0
 1199 0168 013C     		subs	r4, r4, #1
 1200              	.LVL135:
 1201              		.loc 1 561 0
 1202 016a 2646     		mov	r6, r4
 1203 016c 58E7     		b	.L127
 1204              	.LVL136:
 1205              	.L115:
 1206              		.loc 1 553 0
 1207 016e 16F8012B 		ldrb	r2, [r6], #1	@ zero_extendqisi2
 1208              	.LVL137:
 1209 0172 5846     		mov	r0, fp
 1210 0174 1449     		ldr	r1, .L138
 1211 0176 FFF7FEFF 		bl	vex_chprintf
 1212              	.LVL138:
 1213              	.L132:
 1214              		.loc 1 552 0
 1215 017a B442     		cmp	r4, r6
 1216 017c F7D1     		bne	.L115
 1217              		.loc 1 555 0
 1218 017e 0822     		movs	r2, #8
 1219 0180 5846     		mov	r0, fp
 1220 0182 1849     		ldr	r1, .L138+28
 1221 0184 1346     		mov	r3, r2
 1222              		.loc 1 559 0
 1223 0186 013C     		subs	r4, r4, #1
 1224              	.LVL139:
 1225              		.loc 1 555 0
 1226 0188 FFF7FEFF 		bl	vex_chprintf
 1227              	.LVL140:
 1228              		.loc 1 561 0
 1229 018c 2646     		mov	r6, r4
 1230 018e 47E7     		b	.L127
 1231              	.LVL141:
 1232              	.L101:
 1233              		.loc 1 586 0
 1234 0190 0125     		movs	r5, #1
 1235 0192 45E7     		b	.L127
 1236              	.LVL142:
 1237              	.L136:
 1238              		.loc 1 524 0
 1239 0194 1E46     		mov	r6, r3
 1240 0196 43E7     		b	.L127
 1241              	.LVL143:
 1242              	.L135:
 1243              		.loc 1 519 0
 1244 0198 5846     		mov	r0, fp
 1245 019a 0F49     		ldr	r1, .L138+16
 1246 019c 0B4A     		ldr	r2, .L138+4
 1247 019e FFF7FEFF 		bl	vex_chprintf
ARM GAS  /var/folders/pt/gxfsd_x53tx3h6kb8dkzftl80000gr/T//ccbLUV0d.s 			page 23


 1248              	.LVL144:
 1249 01a2 8BE7     		b	.L71
 1250              	.LVL145:
 1251              	.L95:
 1252              		.loc 1 493 0
 1253 01a4 0120     		movs	r0, #1
 1254 01a6 B1E7     		b	.L129
 1255              	.LVL146:
 1256              	.L89:
 1257              		.loc 1 608 0 discriminator 1
 1258 01a8 D8F80C30 		ldr	r3, [r8, #12]
 1259 01ac 019A     		ldr	r2, [sp, #4]
 1260 01ae 9B1A     		subs	r3, r3, r2
 1261 01b0 322B     		cmp	r3, #50
 1262 01b2 3FF667AF 		bhi	.L92
 1263 01b6 70E7     		b	.L91
 1264              	.LVL147:
 1265              	.L98:
 1266              		.loc 1 523 0
 1267 01b8 2646     		mov	r6, r4
 1268              		.loc 1 532 0
 1269 01ba 0025     		movs	r5, #0
 1270              	.LVL148:
 1271 01bc 30E7     		b	.L127
 1272              	.L99:
 1273              		.loc 1 523 0
 1274 01be 2646     		mov	r6, r4
 1275 01c0 2EE7     		b	.L127
 1276              	.LVL149:
 1277              	.L102:
 1278              		.loc 1 574 0
 1279 01c2 0249     		ldr	r1, .L138+4
 1280 01c4 BDE7     		b	.L87
 1281              	.L139:
 1282 01c6 00BF     		.align	2
 1283              	.L138:
 1284 01c8 6C030000 		.word	.LC51
 1285 01cc 00000000 		.word	.LANCHOR5
 1286 01d0 60030000 		.word	.LC49
 1287 01d4 00000000 		.word	.LANCHOR0
 1288 01d8 5C030000 		.word	.LC48
 1289 01dc 01000000 		.word	.LANCHOR5+1
 1290 01e0 70030000 		.word	.LC52
 1291 01e4 64030000 		.word	.LC50
 1292 01e8 00000000 		.word	vtlist
 1293              	.LBE54:
 1294              		.cfi_endproc
 1295              	.LFE77:
 1296              		.size	shellGetLine, .-shellGetLine
 1297 01ec AFF30080 		.section	.text.shell_thread,"ax",%progbits
 1298              		.align	2
 1299              		.p2align 4,,15
 1300              		.thumb
 1301              		.thumb_func
 1302              		.type	shell_thread, %function
 1303              	shell_thread:
 1304              	.LFB73:
ARM GAS  /var/folders/pt/gxfsd_x53tx3h6kb8dkzftl80000gr/T//ccbLUV0d.s 			page 24


 1305              		.loc 1 337 0
 1306              		.cfi_startproc
 1307              		@ args = 0, pretend = 0, frame = 88
 1308              		@ frame_needed = 0, uses_anonymous_args = 0
 1309              	.LVL150:
 1310 0000 2DE9F043 		push	{r4, r5, r6, r7, r8, r9, lr}
 1311              	.LCFI15:
 1312              		.cfi_def_cfa_offset 28
 1313              		.cfi_offset 4, -28
 1314              		.cfi_offset 5, -24
 1315              		.cfi_offset 6, -20
 1316              		.cfi_offset 7, -16
 1317              		.cfi_offset 8, -12
 1318              		.cfi_offset 9, -8
 1319              		.cfi_offset 14, -4
 1320              		.loc 1 345 0
 1321 0004 664B     		ldr	r3, .L193
 1322              		.loc 1 340 0
 1323 0006 0668     		ldr	r6, [r0, #0]
 1324              	.LVL151:
 1325              		.loc 1 345 0
 1326 0008 9B69     		ldr	r3, [r3, #24]
 1327 000a 664A     		ldr	r2, .L193+4
 1328              		.loc 1 337 0
 1329 000c 99B0     		sub	sp, sp, #100
 1330              	.LCFI16:
 1331              		.cfi_def_cfa_offset 128
 1332              		.loc 1 341 0
 1333 000e D0F80480 		ldr	r8, [r0, #4]
 1334              	.LVL152:
 1335              		.loc 1 346 0
 1336 0012 6549     		ldr	r1, .L193+8
 1337              		.loc 1 345 0
 1338 0014 9A61     		str	r2, [r3, #24]
 1339              		.loc 1 346 0
 1340 0016 3046     		mov	r0, r6
 1341              	.LVL153:
 1342 0018 FFF7FEFF 		bl	vex_chprintf
 1343              	.LVL154:
 1344              		.loc 1 347 0
 1345 001c 6349     		ldr	r1, .L193+12
 1346 001e 3046     		mov	r0, r6
 1347 0020 FFF7FEFF 		bl	vex_chprintf
 1348              	.LVL155:
 1349              		.loc 1 348 0
 1350 0024 6249     		ldr	r1, .L193+16
 1351 0026 634A     		ldr	r2, .L193+20
 1352 0028 634B     		ldr	r3, .L193+24
 1353 002a 3046     		mov	r0, r6
 1354 002c FFF7FEFF 		bl	vex_chprintf
 1355              	.LVL156:
 1356              		.loc 1 351 0
 1357 0030 624B     		ldr	r3, .L193+28
 1358 0032 3046     		mov	r0, r6
 1359 0034 0093     		str	r3, [sp, #0]
 1360 0036 6249     		ldr	r1, .L193+32
 1361 0038 624A     		ldr	r2, .L193+36
ARM GAS  /var/folders/pt/gxfsd_x53tx3h6kb8dkzftl80000gr/T//ccbLUV0d.s 			page 25


 1362 003a 634B     		ldr	r3, .L193+40
 1363 003c FFF7FEFF 		bl	vex_chprintf
 1364              	.LVL157:
 1365              	.LBB68:
 1366              	.LBB69:
 1367              		.loc 1 121 0
 1368 0040 DFF8A491 		ldr	r9, .L193+72
 1369              	.L186:
 1370              	.LBE69:
 1371              	.LBE68:
 1372              		.loc 1 357 0
 1373 0044 6149     		ldr	r1, .L193+44
 1374 0046 3046     		mov	r0, r6
 1375 0048 FFF7FEFF 		bl	vex_chprintf
 1376              	.LVL158:
 1377              		.loc 1 358 0
 1378 004c 3046     		mov	r0, r6
 1379 004e 08A9     		add	r1, sp, #32
 1380 0050 4022     		movs	r2, #64
 1381 0052 FFF7FEFF 		bl	shellGetLine
 1382              	.LVL159:
 1383 0056 0446     		mov	r4, r0
 1384 0058 0028     		cmp	r0, #0
 1385 005a 2FD1     		bne	.L189
 1386              		.loc 1 364 0
 1387 005c 02A9     		add	r1, sp, #8
 1388 005e 08A8     		add	r0, sp, #32
 1389 0060 FFF7FEFF 		bl	_strtok.constprop.5
 1390              	.LVL160:
 1391              		.loc 1 369 0
 1392 0064 02A9     		add	r1, sp, #8
 1393              		.loc 1 364 0
 1394 0066 0746     		mov	r7, r0
 1395              	.LVL161:
 1396              		.loc 1 369 0
 1397 0068 0020     		movs	r0, #0
 1398              	.LVL162:
 1399              		.loc 1 336 0
 1400 006a 02AD     		add	r5, sp, #8
 1401              		.loc 1 369 0
 1402 006c FFF7FEFF 		bl	_strtok.constprop.5
 1403              	.LVL163:
 1404 0070 50B1     		cbz	r0, .L190
 1405              	.L147:
 1406              		.loc 1 371 0
 1407 0072 042C     		cmp	r4, #4
 1408 0074 1BD0     		beq	.L191
 1409              		.loc 1 377 0
 1410 0076 45F8040F 		str	r0, [r5, #4]!
 1411              		.loc 1 369 0
 1412 007a 02A9     		add	r1, sp, #8
 1413 007c 0020     		movs	r0, #0
 1414              	.LVL164:
 1415              		.loc 1 377 0
 1416 007e 0134     		adds	r4, r4, #1
 1417              	.LVL165:
 1418              		.loc 1 369 0
ARM GAS  /var/folders/pt/gxfsd_x53tx3h6kb8dkzftl80000gr/T//ccbLUV0d.s 			page 26


 1419 0080 FFF7FEFF 		bl	_strtok.constprop.5
 1420              	.LVL166:
 1421 0084 0028     		cmp	r0, #0
 1422 0086 F4D1     		bne	.L147
 1423              	.L190:
 1424              		.loc 1 379 0
 1425 0088 18AA     		add	r2, sp, #96
 1426 008a 02EB8403 		add	r3, r2, r4, lsl #2
 1427 008e 43F8540C 		str	r0, [r3, #-84]
 1428              		.loc 1 381 0
 1429 0092 002F     		cmp	r7, #0
 1430 0094 D6D0     		beq	.L186
 1431              		.loc 1 383 0
 1432 0096 3846     		mov	r0, r7
 1433              	.LVL167:
 1434 0098 4D49     		ldr	r1, .L193+48
 1435 009a FFF7FEFF 		bl	strcasecmp
 1436              	.LVL168:
 1437 009e F8B9     		cbnz	r0, .L148
 1438              		.loc 1 385 0
 1439 00a0 84B1     		cbz	r4, .L143
 1440              	.LVL169:
 1441              	.LBB71:
 1442              	.LBB72:
 1443              		.loc 1 113 0
 1444 00a2 3046     		mov	r0, r6
 1445 00a4 4B49     		ldr	r1, .L193+52
 1446 00a6 4A4A     		ldr	r2, .L193+48
 1447 00a8 FFF7FEFF 		bl	vex_chprintf
 1448              	.LVL170:
 1449              	.LBE72:
 1450              	.LBE71:
 1451              		.loc 1 388 0
 1452 00ac CAE7     		b	.L186
 1453              	.LVL171:
 1454              	.L191:
 1455              		.loc 1 373 0
 1456 00ae 3046     		mov	r0, r6
 1457              	.LVL172:
 1458 00b0 4949     		ldr	r1, .L193+56
 1459 00b2 FFF7FEFF 		bl	vex_chprintf
 1460              	.LVL173:
 1461              		.loc 1 379 0
 1462 00b6 0023     		movs	r3, #0
 1463 00b8 0793     		str	r3, [sp, #28]
 1464 00ba C3E7     		b	.L186
 1465              	.LVL174:
 1466              	.L189:
 1467              		.loc 1 360 0
 1468 00bc 3046     		mov	r0, r6
 1469 00be 4749     		ldr	r1, .L193+60
 1470 00c0 FFF7FEFF 		bl	vex_chprintf
 1471              	.LVL175:
 1472              	.L143:
 1473              	.LBB73:
 1474              		.loc 1 418 0
 1475 00c4 2023     		movs	r3, #32
ARM GAS  /var/folders/pt/gxfsd_x53tx3h6kb8dkzftl80000gr/T//ccbLUV0d.s 			page 27


 1476              	.LVL176:
 1477              	@ 418 "convex/convex/cortex/fw/vexshell.c" 1
 1478 00c6 83F31188 		msr     BASEPRI, r3
 1479              	@ 0 "" 2
 1480              	.LVL177:
 1481              		.thumb
 1482              	.LBE73:
 1483              		.loc 1 419 0
 1484 00ca 0021     		movs	r1, #0
 1485 00cc 4448     		ldr	r0, .L193+64
 1486 00ce FFF7FEFF 		bl	chEvtBroadcastFlagsI
 1487              	.LVL178:
 1488              		.loc 1 420 0
 1489 00d2 0020     		movs	r0, #0
 1490 00d4 FFF7FEFF 		bl	chThdExitS
 1491              	.LVL179:
 1492              		.loc 1 423 0
 1493 00d8 0020     		movs	r0, #0
 1494 00da 19B0     		add	sp, sp, #100
 1495 00dc BDE8F083 		pop	{r4, r5, r6, r7, r8, r9, pc}
 1496              	.LVL180:
 1497              	.L148:
 1498              		.loc 1 393 0
 1499 00e0 3846     		mov	r0, r7
 1500 00e2 4049     		ldr	r1, .L193+68
 1501 00e4 FFF7FEFF 		bl	strcasecmp
 1502              	.LVL181:
 1503 00e8 30B9     		cbnz	r0, .L192
 1504              	.LBB74:
 1505              	.LBB75:
 1506              		.loc 1 113 0
 1507 00ea 3046     		mov	r0, r6
 1508              	.LBE75:
 1509              	.LBE74:
 1510              		.loc 1 395 0
 1511 00ec CCB1     		cbz	r4, .L153
 1512              	.LVL182:
 1513              	.LBB77:
 1514              	.LBB76:
 1515              		.loc 1 113 0
 1516 00ee 3949     		ldr	r1, .L193+52
 1517 00f0 3C4A     		ldr	r2, .L193+68
 1518 00f2 FFF7FEFF 		bl	vex_chprintf
 1519              	.LVL183:
 1520              	.LBE76:
 1521              	.LBE77:
 1522              		.loc 1 398 0
 1523 00f6 A5E7     		b	.L186
 1524              	.LVL184:
 1525              	.L192:
 1526              	.LBB78:
 1527              	.LBB79:
 1528              		.loc 1 313 0
 1529 00f8 D9F80000 		ldr	r0, [r9, #0]
 1530 00fc 0028     		cmp	r0, #0
 1531 00fe 33D0     		beq	.L152
 1532 0100 394D     		ldr	r5, .L193+72
ARM GAS  /var/folders/pt/gxfsd_x53tx3h6kb8dkzftl80000gr/T//ccbLUV0d.s 			page 28


 1533 0102 03E0     		b	.L161
 1534              	.LVL185:
 1535              	.L160:
 1536 0104 55F8080F 		ldr	r0, [r5, #8]!
 1537              	.LVL186:
 1538 0108 0028     		cmp	r0, #0
 1539 010a 2DD0     		beq	.L152
 1540              	.LVL187:
 1541              	.L161:
 1542              		.loc 1 314 0
 1543 010c 3946     		mov	r1, r7
 1544 010e FFF7FEFF 		bl	strcasecmp
 1545              	.LVL188:
 1546 0112 0028     		cmp	r0, #0
 1547 0114 F6D1     		bne	.L160
 1548              	.LVL189:
 1549              	.L188:
 1550              	.LBE79:
 1551              	.LBE78:
 1552              	.LBB80:
 1553              	.LBB81:
 1554              		.loc 1 315 0
 1555 0116 6B68     		ldr	r3, [r5, #4]
 1556 0118 3046     		mov	r0, r6
 1557 011a 2146     		mov	r1, r4
 1558 011c 03AA     		add	r2, sp, #12
 1559 011e 9847     		blx	r3
 1560              	.LVL190:
 1561 0120 90E7     		b	.L186
 1562              	.LVL191:
 1563              	.L153:
 1564              	.LBE81:
 1565              	.LBE80:
 1566              		.loc 1 401 0
 1567 0122 3249     		ldr	r1, .L193+76
 1568 0124 FFF7FEFF 		bl	vex_chprintf
 1569              	.LVL192:
 1570              	.LBB83:
 1571              	.LBB70:
 1572              		.loc 1 121 0
 1573 0128 D9F80020 		ldr	r2, [r9, #0]
 1574 012c 2E4C     		ldr	r4, .L193+72
 1575              	.LVL193:
 1576 012e 3AB1     		cbz	r2, .L158
 1577              	.LVL194:
 1578              	.L157:
 1579              		.loc 1 123 0
 1580 0130 3046     		mov	r0, r6
 1581 0132 2F49     		ldr	r1, .L193+80
 1582 0134 FFF7FEFF 		bl	vex_chprintf
 1583              	.LVL195:
 1584              		.loc 1 121 0
 1585 0138 54F8082F 		ldr	r2, [r4, #8]!
 1586 013c 002A     		cmp	r2, #0
 1587 013e F7D1     		bne	.L157
 1588              	.L158:
 1589              	.LBE70:
ARM GAS  /var/folders/pt/gxfsd_x53tx3h6kb8dkzftl80000gr/T//ccbLUV0d.s 			page 29


 1590              	.LBE83:
 1591              		.loc 1 403 0
 1592 0140 B8F1000F 		cmp	r8, #0
 1593 0144 0BD0     		beq	.L156
 1594              	.LVL196:
 1595              	.LBB84:
 1596              	.LBB85:
 1597              		.loc 1 121 0
 1598 0146 D8F80020 		ldr	r2, [r8, #0]
 1599 014a 42B1     		cbz	r2, .L156
 1600 014c 4446     		mov	r4, r8
 1601              	.LVL197:
 1602              	.L159:
 1603              		.loc 1 123 0
 1604 014e 3046     		mov	r0, r6
 1605 0150 2749     		ldr	r1, .L193+80
 1606 0152 FFF7FEFF 		bl	vex_chprintf
 1607              	.LVL198:
 1608              		.loc 1 121 0
 1609 0156 54F8082F 		ldr	r2, [r4, #8]!
 1610 015a 002A     		cmp	r2, #0
 1611 015c F7D1     		bne	.L159
 1612              	.L156:
 1613              	.LBE85:
 1614              	.LBE84:
 1615              		.loc 1 405 0
 1616 015e 3046     		mov	r0, r6
 1617 0160 2449     		ldr	r1, .L193+84
 1618 0162 FFF7FEFF 		bl	vex_chprintf
 1619              	.LVL199:
 1620 0166 6DE7     		b	.L186
 1621              	.LVL200:
 1622              	.L152:
 1623              		.loc 1 408 0
 1624 0168 B8F1000F 		cmp	r8, #0
 1625 016c 0DD0     		beq	.L164
 1626              	.LVL201:
 1627              	.LBB86:
 1628              	.LBB82:
 1629              		.loc 1 313 0
 1630 016e D8F80000 		ldr	r0, [r8, #0]
 1631 0172 50B1     		cbz	r0, .L164
 1632 0174 4546     		mov	r5, r8
 1633 0176 02E0     		b	.L163
 1634              	.LVL202:
 1635              	.L162:
 1636 0178 55F8080F 		ldr	r0, [r5, #8]!
 1637              	.LVL203:
 1638 017c 28B1     		cbz	r0, .L164
 1639              	.LVL204:
 1640              	.L163:
 1641              		.loc 1 314 0
 1642 017e 3946     		mov	r1, r7
 1643 0180 FFF7FEFF 		bl	strcasecmp
 1644              	.LVL205:
 1645 0184 0028     		cmp	r0, #0
 1646 0186 F7D1     		bne	.L162
ARM GAS  /var/folders/pt/gxfsd_x53tx3h6kb8dkzftl80000gr/T//ccbLUV0d.s 			page 30


 1647 0188 C5E7     		b	.L188
 1648              	.LVL206:
 1649              	.L164:
 1650              	.LBE82:
 1651              	.LBE86:
 1652              		.loc 1 410 0
 1653 018a 3046     		mov	r0, r6
 1654 018c 1A49     		ldr	r1, .L193+88
 1655 018e 3A46     		mov	r2, r7
 1656 0190 FFF7FEFF 		bl	vex_chprintf
 1657              	.LVL207:
 1658              		.loc 1 411 0
 1659 0194 3046     		mov	r0, r6
 1660 0196 1949     		ldr	r1, .L193+92
 1661 0198 FFF7FEFF 		bl	vex_chprintf
 1662              	.LVL208:
 1663 019c 52E7     		b	.L186
 1664              	.L194:
 1665 019e 00BF     		.align	2
 1666              	.L193:
 1667 01a0 00000000 		.word	rlist
 1668 01a4 74030000 		.word	.LC53
 1669 01a8 7C030000 		.word	.LC54
 1670 01ac 84030000 		.word	.LC55
 1671 01b0 A0030000 		.word	.LC56
 1672 01b4 20020000 		.word	.LC28
 1673 01b8 20030000 		.word	.LC42
 1674 01bc 50030000 		.word	.LC46
 1675 01c0 B8030000 		.word	.LC57
 1676 01c4 40030000 		.word	.LC44
 1677 01c8 4C030000 		.word	.LC45
 1678 01cc CC030000 		.word	.LC58
 1679 01d0 F8030000 		.word	.LC61
 1680 01d4 E8010000 		.word	.LC23
 1681 01d8 E0030000 		.word	.LC60
 1682 01dc D4030000 		.word	.LC59
 1683 01e0 00000000 		.word	.LANCHOR4
 1684 01e4 00040000 		.word	.LC62
 1685 01e8 00000000 		.word	.LANCHOR6
 1686 01ec 08040000 		.word	.LC63
 1687 01f0 20040000 		.word	.LC64
 1688 01f4 70030000 		.word	.LC52
 1689 01f8 5C030000 		.word	.LC48
 1690 01fc 24040000 		.word	.LC65
 1691              		.cfi_endproc
 1692              	.LFE73:
 1693              		.size	shell_thread, .-shell_thread
 1694              		.global	shell_terminated
 1695              		.section	.rodata
 1696              		.align	2
 1697              		.set	.LANCHOR3,. + 0
 1698              	.LC47:
 1699 0000 20003900 		.ascii	" \0009\000"
 1700              		.section	.rodata.states.7678,"a",%progbits
 1701              		.align	2
 1702              		.set	.LANCHOR2,. + 0
 1703              		.type	states.7678, %object
ARM GAS  /var/folders/pt/gxfsd_x53tx3h6kb8dkzftl80000gr/T//ccbLUV0d.s 			page 31


 1704              		.size	states.7678, 60
 1705              	states.7678:
 1706 0000 48040000 		.word	.LC70
 1707 0004 50040000 		.word	.LC71
 1708 0008 58040000 		.word	.LC72
 1709 000c 64040000 		.word	.LC73
 1710 0010 6C040000 		.word	.LC74
 1711 0014 74040000 		.word	.LC75
 1712 0018 7C040000 		.word	.LC76
 1713 001c 88040000 		.word	.LC77
 1714 0020 90040000 		.word	.LC78
 1715 0024 98040000 		.word	.LC79
 1716 0028 A4040000 		.word	.LC80
 1717 002c AC040000 		.word	.LC81
 1718 0030 B4040000 		.word	.LC82
 1719 0034 BC040000 		.word	.LC83
 1720 0038 C4040000 		.word	.LC84
 1721              		.section	.data.shell_echo,"aw",%progbits
 1722              		.set	.LANCHOR0,. + 0
 1723              		.type	shell_echo, %object
 1724              		.size	shell_echo, 1
 1725              	shell_echo:
 1726 0000 01       		.byte	1
 1727              		.section	.rodata.str1.4,"aMS",%progbits,1
 1728              		.align	2
 1729              	.LC0:
 1730 0000 55736167 		.ascii	"Usage:flags [flag] [on|off]\015\012\000"
 1730      653A666C 
 1730      61677320 
 1730      5B666C61 
 1730      675D205B 
 1731 001e 0000     		.space	2
 1732              	.LC1:
 1733 0020 20202020 		.ascii	"      example\015\012\000"
 1733      20206578 
 1733      616D706C 
 1733      650D0A00 
 1734              	.LC2:
 1735 0030 20202020 		.ascii	"      flags echo on\015\012\000"
 1735      2020666C 
 1735      61677320 
 1735      6563686F 
 1735      206F6E0D 
 1736 0046 0000     		.space	2
 1737              	.LC3:
 1738 0048 6563686F 		.ascii	"echo\000"
 1738      00
 1739 004d 000000   		.space	3
 1740              	.LC4:
 1741 0050 6F6E00   		.ascii	"on\000"
 1742 0053 00       		.space	1
 1743              	.LC5:
 1744 0054 6563686F 		.ascii	"echo is on\015\012\000"
 1744      20697320 
 1744      6F6E0D0A 
 1744      00
 1745 0061 000000   		.space	3
ARM GAS  /var/folders/pt/gxfsd_x53tx3h6kb8dkzftl80000gr/T//ccbLUV0d.s 			page 32


 1746              	.LC6:
 1747 0064 6F666600 		.ascii	"off\000"
 1748              	.LC7:
 1749 0068 6563686F 		.ascii	"echo is off\015\012\000"
 1749      20697320 
 1749      6F66660D 
 1749      0A00
 1750 0076 0000     		.space	2
 1751              	.LC8:
 1752 0078 62756672 		.ascii	"bufr\000"
 1752      00
 1753 007d 000000   		.space	3
 1754              	.LC9:
 1755 0080 62756666 		.ascii	"buffering is on\015\012\000"
 1755      6572696E 
 1755      67206973 
 1755      206F6E0D 
 1755      0A00
 1756 0092 0000     		.space	2
 1757              	.LC10:
 1758 0094 62756666 		.ascii	"buffering is off\015\012\000"
 1758      6572696E 
 1758      67206973 
 1758      206F6666 
 1758      0D0A00
 1759 00a7 00       		.space	1
 1760              	.LC11:
 1761 00a8 55736167 		.ascii	"Usage: reboot\015\012\000"
 1761      653A2072 
 1761      65626F6F 
 1761      740D0A00 
 1762              	.LC12:
 1763 00b8 7265626F 		.ascii	"rebooting...\015\012\000"
 1763      6F74696E 
 1763      672E2E2E 
 1763      0D0A00
 1764 00c7 00       		.space	1
 1765              	.LC13:
 1766 00c8 55736167 		.ascii	"Usage: threads\015\012\000"
 1766      653A2074 
 1766      68726561 
 1766      64730D0A 
 1766      00
 1767 00d9 000000   		.space	3
 1768              	.LC14:
 1769 00dc 20202020 		.ascii	"            name addr     stack    prio refs     st"
 1769      20202020 
 1769      20202020 
 1769      6E616D65 
 1769      20616464 
 1770 010f 61746520 		.ascii	"ate time\015\012\000"
 1770      74696D65 
 1770      0D0A00
 1771 011a 0000     		.space	2
 1772              	.LC15:
 1773 011c 25313673 		.ascii	"%16s \000"
 1773      2000
ARM GAS  /var/folders/pt/gxfsd_x53tx3h6kb8dkzftl80000gr/T//ccbLUV0d.s 			page 33


 1774 0122 0000     		.space	2
 1775              	.LC16:
 1776 0124 20202020 		.ascii	"                 \000"
 1776      20202020 
 1776      20202020 
 1776      20202020 
 1776      2000
 1777 0136 0000     		.space	2
 1778              	.LC17:
 1779 0138 252E386C 		.ascii	"%.8lx %.8lx %4lu %4lu %9s %lu\015\012\000"
 1779      7820252E 
 1779      386C7820 
 1779      25346C75 
 1779      2025346C 
 1780              	.LC18:
 1781 0158 55736167 		.ascii	"Usage: mem\015\012\000"
 1781      653A206D 
 1781      656D0D0A 
 1781      00
 1782 0165 000000   		.space	3
 1783              	.LC19:
 1784 0168 636F7265 		.ascii	"core free memory : %u bytes\015\012\000"
 1784      20667265 
 1784      65206D65 
 1784      6D6F7279 
 1784      203A2025 
 1785 0186 0000     		.space	2
 1786              	.LC20:
 1787 0188 68656170 		.ascii	"heap fragments   : %u\015\012\000"
 1787      20667261 
 1787      676D656E 
 1787      74732020 
 1787      203A2025 
 1788              	.LC21:
 1789 01a0 68656170 		.ascii	"heap free total  : %u bytes\015\012\000"
 1789      20667265 
 1789      6520746F 
 1789      74616C20 
 1789      203A2025 
 1790 01be 0000     		.space	2
 1791              	.LC22:
 1792 01c0 666C6173 		.ascii	"flash used       : %lu (0x%05X) bytes\015\012\000"
 1792      68207573 
 1792      65642020 
 1792      20202020 
 1792      203A2025 
 1793              	.LC23:
 1794 01e8 55736167 		.ascii	"Usage: %s\015\012\000"
 1794      653A2025 
 1794      730D0A00 
 1795              	.LC24:
 1796 01f4 73797374 		.ascii	"systime\000"
 1796      696D6500 
 1797              	.LC25:
 1798 01fc 256C750D 		.ascii	"%lu\015\012\000"
 1798      0A00
 1799 0202 0000     		.space	2
ARM GAS  /var/folders/pt/gxfsd_x53tx3h6kb8dkzftl80000gr/T//ccbLUV0d.s 			page 34


 1800              	.LC26:
 1801 0204 696E666F 		.ascii	"info\000"
 1801      00
 1802 0209 000000   		.space	3
 1803              	.LC27:
 1804 020c 4B65726E 		.ascii	"Kernel:       %s\015\012\000"
 1804      656C3A20 
 1804      20202020 
 1804      20202573 
 1804      0D0A00
 1805 021f 00       		.space	1
 1806              	.LC28:
 1807 0220 322E362E 		.ascii	"2.6.2\000"
 1807      3200
 1808 0226 0000     		.space	2
 1809              	.LC29:
 1810 0228 436F6D70 		.ascii	"Compiler:     %s\015\012\000"
 1810      696C6572 
 1810      3A202020 
 1810      20202573 
 1810      0D0A00
 1811 023b 00       		.space	1
 1812              	.LC30:
 1813 023c 47434320 		.ascii	"GCC 4.7.2\000"
 1813      342E372E 
 1813      3200
 1814 0246 0000     		.space	2
 1815              	.LC31:
 1816 0248 41726368 		.ascii	"Architecture: %s\015\012\000"
 1816      69746563 
 1816      74757265 
 1816      3A202573 
 1816      0D0A00
 1817 025b 00       		.space	1
 1818              	.LC32:
 1819 025c 41524D76 		.ascii	"ARMv7-M\000"
 1819      372D4D00 
 1820              	.LC33:
 1821 0264 436F7265 		.ascii	"Core Variant: %s\015\012\000"
 1821      20566172 
 1821      69616E74 
 1821      3A202573 
 1821      0D0A00
 1822 0277 00       		.space	1
 1823              	.LC34:
 1824 0278 436F7274 		.ascii	"Cortex-M3\000"
 1824      65782D4D 
 1824      3300
 1825 0282 0000     		.space	2
 1826              	.LC35:
 1827 0284 506F7274 		.ascii	"Port Info:    %s\015\012\000"
 1827      20496E66 
 1827      6F3A2020 
 1827      20202573 
 1827      0D0A00
 1828 0297 00       		.space	1
 1829              	.LC36:
ARM GAS  /var/folders/pt/gxfsd_x53tx3h6kb8dkzftl80000gr/T//ccbLUV0d.s 			page 35


 1830 0298 41647661 		.ascii	"Advanced kernel mode\000"
 1830      6E636564 
 1830      206B6572 
 1830      6E656C20 
 1830      6D6F6465 
 1831 02ad 000000   		.space	3
 1832              	.LC37:
 1833 02b0 506C6174 		.ascii	"Platform:     %s\015\012\000"
 1833      666F726D 
 1833      3A202020 
 1833      20202573 
 1833      0D0A00
 1834 02c3 00       		.space	1
 1835              	.LC38:
 1836 02c4 53544D33 		.ascii	"STM32F10x Performance Line High Density\000"
 1836      32463130 
 1836      78205065 
 1836      72666F72 
 1836      6D616E63 
 1837              	.LC39:
 1838 02ec 426F6172 		.ascii	"Board:        %s\015\012\000"
 1838      643A2020 
 1838      20202020 
 1838      20202573 
 1838      0D0A00
 1839 02ff 00       		.space	1
 1840              	.LC40:
 1841 0300 56455820 		.ascii	"VEX CORTEX\000"
 1841      434F5254 
 1841      455800
 1842 030b 00       		.space	1
 1843              	.LC41:
 1844 030c 436F6E56 		.ascii	"ConVEX:       %s\015\012\000"
 1844      45583A20 
 1844      20202020 
 1844      20202573 
 1844      0D0A00
 1845 031f 00       		.space	1
 1846              	.LC42:
 1847 0320 312E302E 		.ascii	"1.0.4\000"
 1847      3400
 1848 0326 0000     		.space	2
 1849              	.LC43:
 1850 0328 4275696C 		.ascii	"Build time:   %s%s%s\015\012\000"
 1850      64207469 
 1850      6D653A20 
 1850      20202573 
 1850      25732573 
 1851 033f 00       		.space	1
 1852              	.LC44:
 1853 0340 41756720 		.ascii	"Aug  4 2015\000"
 1853      20342032 
 1853      30313500 
 1854              	.LC45:
 1855 034c 202D2000 		.ascii	" - \000"
 1856              	.LC46:
 1857 0350 31313A34 		.ascii	"11:40:34\000"
ARM GAS  /var/folders/pt/gxfsd_x53tx3h6kb8dkzftl80000gr/T//ccbLUV0d.s 			page 36


 1857      303A3334 
 1857      00
 1858 0359 000000   		.space	3
 1859              	.LC48:
 1860 035c 257300   		.ascii	"%s\000"
 1861 035f 00       		.space	1
 1862              	.LC49:
 1863 0360 5E4400   		.ascii	"^D\000"
 1864 0363 00       		.space	1
 1865              	.LC50:
 1866 0364 25632025 		.ascii	"%c %c\000"
 1866      6300
 1867 036a 0000     		.space	2
 1868              	.LC51:
 1869 036c 256300   		.ascii	"%c\000"
 1870 036f 00       		.space	1
 1871              	.LC52:
 1872 0370 0D0A00   		.ascii	"\015\012\000"
 1873 0373 00       		.space	1
 1874              	.LC53:
 1875 0374 7368656C 		.ascii	"shell\000"
 1875      6C00
 1876 037a 0000     		.space	2
 1877              	.LC54:
 1878 037c 1B5B324A 		.ascii	"\033[2J\000"
 1878      00
 1879 0381 000000   		.space	3
 1880              	.LC55:
 1881 0384 0D0A5645 		.ascii	"\015\012VEX-Cortex Shell V1.00\015\012\000"
 1881      582D436F 
 1881      72746578 
 1881      20536865 
 1881      6C6C2056 
 1882 039f 00       		.space	1
 1883              	.LC56:
 1884 03a0 4B65726E 		.ascii	"Kernel:%s  ConVEX:%s  \000"
 1884      656C3A25 
 1884      73202043 
 1884      6F6E5645 
 1884      583A2573 
 1885 03b7 00       		.space	1
 1886              	.LC57:
 1887 03b8 4275696C 		.ascii	"Build time:%s%s%s\015\012\000"
 1887      64207469 
 1887      6D653A25 
 1887      73257325 
 1887      730D0A00 
 1888              	.LC58:
 1889 03cc 63683E20 		.ascii	"ch> \000"
 1889      00
 1890 03d1 000000   		.space	3
 1891              	.LC59:
 1892 03d4 0D0A6C6F 		.ascii	"\015\012logout\000"
 1892      676F7574 
 1892      00
 1893 03dd 000000   		.space	3
 1894              	.LC60:
ARM GAS  /var/folders/pt/gxfsd_x53tx3h6kb8dkzftl80000gr/T//ccbLUV0d.s 			page 37


 1895 03e0 746F6F20 		.ascii	"too many arguments\015\012\000"
 1895      6D616E79 
 1895      20617267 
 1895      756D656E 
 1895      74730D0A 
 1896 03f5 000000   		.space	3
 1897              	.LC61:
 1898 03f8 65786974 		.ascii	"exit\000"
 1898      00
 1899 03fd 000000   		.space	3
 1900              	.LC62:
 1901 0400 68656C70 		.ascii	"help\000"
 1901      00
 1902 0405 000000   		.space	3
 1903              	.LC63:
 1904 0408 436F6D6D 		.ascii	"Commands: help exit \000"
 1904      616E6473 
 1904      3A206865 
 1904      6C702065 
 1904      78697420 
 1905 041d 000000   		.space	3
 1906              	.LC64:
 1907 0420 25732000 		.ascii	"%s \000"
 1908              	.LC65:
 1909 0424 203F0D0A 		.ascii	" ?\015\012\000"
 1909      00
 1910 0429 000000   		.space	3
 1911              	.LC66:
 1912 042c 6D656D00 		.ascii	"mem\000"
 1913              	.LC67:
 1914 0430 74687265 		.ascii	"threads\000"
 1914      61647300 
 1915              	.LC68:
 1916 0438 7265626F 		.ascii	"reboot\000"
 1916      6F7400
 1917 043f 00       		.space	1
 1918              	.LC69:
 1919 0440 666C6167 		.ascii	"flags\000"
 1919      7300
 1920 0446 0000     		.space	2
 1921              	.LC70:
 1922 0448 52454144 		.ascii	"READY\000"
 1922      5900
 1923 044e 0000     		.space	2
 1924              	.LC71:
 1925 0450 43555252 		.ascii	"CURRENT\000"
 1925      454E5400 
 1926              	.LC72:
 1927 0458 53555350 		.ascii	"SUSPENDED\000"
 1927      454E4445 
 1927      4400
 1928 0462 0000     		.space	2
 1929              	.LC73:
 1930 0464 57545345 		.ascii	"WTSEM\000"
 1930      4D00
 1931 046a 0000     		.space	2
 1932              	.LC74:
ARM GAS  /var/folders/pt/gxfsd_x53tx3h6kb8dkzftl80000gr/T//ccbLUV0d.s 			page 38


 1933 046c 57544D54 		.ascii	"WTMTX\000"
 1933      5800
 1934 0472 0000     		.space	2
 1935              	.LC75:
 1936 0474 5754434F 		.ascii	"WTCOND\000"
 1936      4E4400
 1937 047b 00       		.space	1
 1938              	.LC76:
 1939 047c 534C4545 		.ascii	"SLEEPING\000"
 1939      50494E47 
 1939      00
 1940 0485 000000   		.space	3
 1941              	.LC77:
 1942 0488 57544558 		.ascii	"WTEXIT\000"
 1942      495400
 1943 048f 00       		.space	1
 1944              	.LC78:
 1945 0490 57544F52 		.ascii	"WTOREVT\000"
 1945      45565400 
 1946              	.LC79:
 1947 0498 5754414E 		.ascii	"WTANDEVT\000"
 1947      44455654 
 1947      00
 1948 04a1 000000   		.space	3
 1949              	.LC80:
 1950 04a4 534E444D 		.ascii	"SNDMSGQ\000"
 1950      53475100 
 1951              	.LC81:
 1952 04ac 534E444D 		.ascii	"SNDMSG\000"
 1952      534700
 1953 04b3 00       		.space	1
 1954              	.LC82:
 1955 04b4 57544D53 		.ascii	"WTMSG\000"
 1955      4700
 1956 04ba 0000     		.space	2
 1957              	.LC83:
 1958 04bc 57545155 		.ascii	"WTQUEUE\000"
 1958      45554500 
 1959              	.LC84:
 1960 04c4 46494E41 		.ascii	"FINAL\000"
 1960      4C00
 1961 04ca 0000     		.section	.data.shell_bufr,"aw",%progbits
 1962              		.set	.LANCHOR1,. + 0
 1963              		.type	shell_bufr, %object
 1964              		.size	shell_bufr, 1
 1965              	shell_bufr:
 1966 0000 01       		.byte	1
 1967              		.section	.bss.shell_terminated,"aw",%nobits
 1968              		.align	2
 1969              		.set	.LANCHOR4,. + 0
 1970              		.type	shell_terminated, %object
 1971              		.size	shell_terminated, 4
 1972              	shell_terminated:
 1973 0000 00000000 		.space	4
 1974              		.section	.data.local_commands,"aw",%progbits
 1975              		.align	2
 1976              		.set	.LANCHOR6,. + 0
ARM GAS  /var/folders/pt/gxfsd_x53tx3h6kb8dkzftl80000gr/T//ccbLUV0d.s 			page 39


 1977              		.type	local_commands, %object
 1978              		.size	local_commands, 56
 1979              	local_commands:
 1980 0000 04020000 		.word	.LC26
 1981 0004 00000000 		.word	cmd_info
 1982 0008 F4010000 		.word	.LC24
 1983 000c 00000000 		.word	cmd_systime
 1984 0010 2C040000 		.word	.LC66
 1985 0014 00000000 		.word	cmd_mem
 1986 0018 30040000 		.word	.LC67
 1987 001c 00000000 		.word	cmd_threads
 1988 0020 38040000 		.word	.LC68
 1989 0024 00000000 		.word	cmd_reboot
 1990 0028 40040000 		.word	.LC69
 1991 002c 00000000 		.word	cmd_flags
 1992 0030 00000000 		.word	0
 1993 0034 00000000 		.word	0
 1994              		.section	.bss.history.7741,"aw",%nobits
 1995              		.align	2
 1996              		.set	.LANCHOR5,. + 0
 1997              		.type	history.7741, %object
 1998              		.size	history.7741, 64
 1999              	history.7741:
 2000 0000 00000000 		.space	64
 2000      00000000 
 2000      00000000 
 2000      00000000 
 2000      00000000 
 2001              		.text
 2002              	.Letext0:
 2003              		.file 4 "/Users/programmer/ConVEX/yagarto-4.7.2/bin/../lib/gcc/arm-none-eabi/4.7.2/include/stddef.
 2004              		.file 5 "/Users/programmer/ConVEX/yagarto-4.7.2/bin/../lib/gcc/arm-none-eabi/4.7.2/../../../../arm
 2005              		.file 6 "convex/ChibiOS_2.6.2/os/ports/GCC/ARMCMx/chtypes.h"
 2006              		.file 7 "convex/ChibiOS_2.6.2/os/kernel/include/chlists.h"
 2007              		.file 8 "convex/ChibiOS_2.6.2/os/kernel/include/chthreads.h"
 2008              		.file 9 "convex/ChibiOS_2.6.2/os/ports/GCC/ARMCMx/chcore_v7m.h"
 2009              		.file 10 "convex/ChibiOS_2.6.2/os/kernel/include/chvt.h"
 2010              		.file 11 "convex/ChibiOS_2.6.2/os/kernel/include/chschd.h"
 2011              		.file 12 "convex/ChibiOS_2.6.2/os/kernel/include/chmtx.h"
 2012              		.file 13 "convex/ChibiOS_2.6.2/os/kernel/include/chevents.h"
 2013              		.file 14 "convex/ChibiOS_2.6.2/os/kernel/include/chmemcore.h"
 2014              		.file 15 "convex/ChibiOS_2.6.2/os/kernel/include/chheap.h"
 2015              		.file 16 "convex/ChibiOS_2.6.2/os/kernel/include/chstreams.h"
 2016              		.file 17 "convex/convex/cortex/fw/vexcompat.h"
 2017              		.file 18 "convex/convex/cortex/fw/vexdigital.h"
 2018              		.file 19 "convex/convex/cortex/fw/vexime.h"
 2019              		.file 20 "convex/convex/cortex/fw/vexshell.h"
 2020              		.file 21 "/Users/programmer/ConVEX/yagarto-4.7.2/bin/../lib/gcc/arm-none-eabi/4.7.2/../../../../ar
 2021              		.file 22 "convex/convex/cortex/fw/vexprintf.h"
 2022              		.file 23 "convex/ChibiOS_2.6.2/os/kernel/include/chregistry.h"
 2023              		.file 24 "convex/ChibiOS_2.6.2/os/kernel/include/chdynamic.h"
 2024              		.file 25 "<built-in>"