ARM GAS  /var/folders/pt/gxfsd_x53tx3h6kb8dkzftl80000gr/T//cc2GQLXW.s 			page 1


   1              		.syntax unified
   2              		.cpu cortex-m3
   3              		.fpu softvfp
   4              		.eabi_attribute 20, 1
   5              		.eabi_attribute 21, 1
   6              		.eabi_attribute 23, 3
   7              		.eabi_attribute 24, 1
   8              		.eabi_attribute 25, 1
   9              		.eabi_attribute 26, 1
  10              		.eabi_attribute 30, 2
  11              		.eabi_attribute 34, 1
  12              		.eabi_attribute 18, 4
  13              		.thumb
  14              		.file	"vexspi.c"
  15              		.text
  16              	.Ltext0:
  17              		.cfi_sections	.debug_frame
  18              		.section	.text.chprintf,"ax",%progbits
  19              		.align	2
  20              		.p2align 4,,15
  21              		.thumb
  22              		.thumb_func
  23              		.type	chprintf, %function
  24              	chprintf:
  25              	.LFB63:
  26              		.file 1 "convex/ChibiOS_2.6.2/os/various/chprintf.h"
  27              		.loc 1 69 0
  28              		.cfi_startproc
  29              		@ args = 4, pretend = 12, frame = 8
  30              		@ frame_needed = 0, uses_anonymous_args = 1
  31              	.LVL0:
  32 0000 0EB4     		push	{r1, r2, r3}
  33              	.LCFI0:
  34              		.cfi_def_cfa_offset 12
  35              		.cfi_offset 1, -12
  36              		.cfi_offset 2, -8
  37              		.cfi_offset 3, -4
  38 0002 00B5     		push	{lr}
  39              	.LCFI1:
  40              		.cfi_def_cfa_offset 16
  41              		.cfi_offset 14, -16
  42 0004 82B0     		sub	sp, sp, #8
  43              	.LCFI2:
  44              		.cfi_def_cfa_offset 24
  45              		.loc 1 69 0
  46 0006 03AB     		add	r3, sp, #12
  47 0008 53F8041B 		ldr	r1, [r3], #4
  48              		.loc 1 73 0
  49 000c 1A46     		mov	r2, r3
  50              		.loc 1 72 0
  51 000e 0193     		str	r3, [sp, #4]
  52              		.loc 1 73 0
  53 0010 FFF7FEFF 		bl	chvprintf
  54              	.LVL1:
  55              		.loc 1 75 0
  56 0014 02B0     		add	sp, sp, #8
  57 0016 5DF804EB 		pop	{lr}
ARM GAS  /var/folders/pt/gxfsd_x53tx3h6kb8dkzftl80000gr/T//cc2GQLXW.s 			page 2


  58 001a 03B0     		add	sp, sp, #12
  59 001c 7047     		bx	lr
  60              		.cfi_endproc
  61              	.LFE63:
  62              		.size	chprintf, .-chprintf
  63 001e 00BF     		.section	.text._vspi_gpt_cb,"ax",%progbits
  64              		.align	2
  65              		.p2align 4,,15
  66              		.thumb
  67              		.thumb_func
  68              		.type	_vspi_gpt_cb, %function
  69              	_vspi_gpt_cb:
  70              	.LFB64:
  71              		.file 2 "convex/convex/cortex/fw/vexspi.c"
  72              		.loc 2 102 0
  73              		.cfi_startproc
  74              		@ args = 0, pretend = 0, frame = 0
  75              		@ frame_needed = 0, uses_anonymous_args = 0
  76              	.LVL2:
  77 0000 10B5     		push	{r4, lr}
  78              	.LCFI3:
  79              		.cfi_def_cfa_offset 8
  80              		.cfi_offset 4, -8
  81              		.cfi_offset 14, -4
  82              	.LBB2:
  83              		.loc 2 105 0
  84 0002 2023     		movs	r3, #32
  85              	.LVL3:
  86              	@ 105 "convex/convex/cortex/fw/vexspi.c" 1
  87 0004 83F31188 		msr     BASEPRI, r3
  88              	@ 0 "" 2
  89              	.LVL4:
  90              		.thumb
  91              	.LBE2:
  92              		.loc 2 108 0
  93 0008 054C     		ldr	r4, .L8
  94 000a 2068     		ldr	r0, [r4, #0]
  95              	.LVL5:
  96 000c 18B1     		cbz	r0, .L3
  97              		.loc 2 109 0
  98 000e FFF7FEFF 		bl	chSchReadyI
  99              	.LVL6:
 100              		.loc 2 110 0
 101 0012 0023     		movs	r3, #0
 102 0014 2360     		str	r3, [r4, #0]
 103              	.LVL7:
 104              	.L3:
 105              	.LBB3:
 106              		.loc 2 113 0
 107 0016 0023     		movs	r3, #0
 108              	.LVL8:
 109              	@ 113 "convex/convex/cortex/fw/vexspi.c" 1
 110 0018 83F31188 		msr     BASEPRI, r3
 111              	@ 0 "" 2
 112              	.LVL9:
 113              		.thumb
 114 001c 10BD     		pop	{r4, pc}
ARM GAS  /var/folders/pt/gxfsd_x53tx3h6kb8dkzftl80000gr/T//cc2GQLXW.s 			page 3


 115              	.L9:
 116 001e 00BF     		.align	2
 117              	.L8:
 118 0020 00000000 		.word	.LANCHOR0
 119              	.LBE3:
 120              		.cfi_endproc
 121              	.LFE64:
 122              		.size	_vspi_gpt_cb, .-_vspi_gpt_cb
 123 0024 AFF30080 		.section	.text.vexSpiInit,"ax",%progbits
 123      AFF30080 
 123      AFF30080 
 124              		.align	2
 125              		.p2align 4,,15
 126              		.global	vexSpiInit
 127              		.thumb
 128              		.thumb_func
 129              		.type	vexSpiInit, %function
 130              	vexSpiInit:
 131              	.LFB65:
 132              		.loc 2 135 0
 133              		.cfi_startproc
 134              		@ args = 0, pretend = 0, frame = 0
 135              		@ frame_needed = 0, uses_anonymous_args = 0
 136              	.LVL10:
 137 0000 0B48     		ldr	r0, .L13
 138 0002 0C49     		ldr	r1, .L13+4
 139 0004 08B5     		push	{r3, lr}
 140              	.LCFI4:
 141              		.cfi_def_cfa_offset 8
 142              		.cfi_offset 3, -8
 143              		.cfi_offset 14, -4
 144              		.loc 2 135 0
 145 0006 0023     		movs	r3, #0
 146              	.LVL11:
 147              	.L11:
 148              		.loc 2 140 0 discriminator 2
 149 0008 CA5C     		ldrb	r2, [r1, r3]	@ zero_extendqisi2
 150 000a C254     		strb	r2, [r0, r3]
 151 000c 0133     		adds	r3, r3, #1
 152              		.loc 2 139 0 discriminator 2
 153 000e 202B     		cmp	r3, #32
 154 0010 FAD1     		bne	.L11
 155              		.loc 2 142 0
 156 0012 074B     		ldr	r3, .L13
 157 0014 0022     		movs	r2, #0
 158              		.loc 2 145 0
 159 0016 0848     		ldr	r0, .L13+8
 160 0018 0849     		ldr	r1, .L13+12
 161              		.loc 2 142 0
 162 001a A3F86020 		strh	r2, [r3, #96]	@ movhi
 163              		.loc 2 145 0
 164 001e FFF7FEFF 		bl	spiStart
 165              	.LVL12:
 166              		.loc 2 148 0
 167 0022 0748     		ldr	r0, .L13+16
 168 0024 0749     		ldr	r1, .L13+20
 169              		.loc 2 149 0
ARM GAS  /var/folders/pt/gxfsd_x53tx3h6kb8dkzftl80000gr/T//cc2GQLXW.s 			page 4


 170 0026 BDE80840 		pop	{r3, lr}
 171              		.loc 2 148 0
 172 002a FFF7FEBF 		b	gptStart
 173              	.LVL13:
 174              	.L14:
 175 002e 00BF     		.align	2
 176              	.L13:
 177 0030 00000000 		.word	.LANCHOR1
 178 0034 00000000 		.word	.LANCHOR2
 179 0038 00000000 		.word	SPID1
 180 003c 00000000 		.word	.LANCHOR3
 181 0040 00000000 		.word	GPTD2
 182 0044 00000000 		.word	.LANCHOR4
 183              		.cfi_endproc
 184              	.LFE65:
 185              		.size	vexSpiInit, .-vexSpiInit
 186 0048 AFF30080 		.section	.text.vexSpiTeamnameSet,"ax",%progbits
 186      AFF30080 
 187              		.align	2
 188              		.p2align 4,,15
 189              		.global	vexSpiTeamnameSet
 190              		.thumb
 191              		.thumb_func
 192              		.type	vexSpiTeamnameSet, %function
 193              	vexSpiTeamnameSet:
 194              	.LFB66:
 195              		.loc 2 158 0
 196              		.cfi_startproc
 197              		@ args = 0, pretend = 0, frame = 0
 198              		@ frame_needed = 0, uses_anonymous_args = 0
 199              		@ link register save eliminated.
 200              	.LVL14:
 201 0000 0449     		ldr	r1, .L20
 202              		.loc 2 158 0
 203 0002 0023     		movs	r3, #0
 204              	.LVL15:
 205              	.L18:
 206              		.loc 2 163 0
 207 0004 0278     		ldrb	r2, [r0, #0]	@ zero_extendqisi2
 208              		.loc 2 164 0
 209 0006 CA54     		strb	r2, [r1, r3]
 210              		.loc 2 163 0
 211 0008 02B1     		cbz	r2, .L17
 212              		.loc 2 164 0
 213 000a 0130     		adds	r0, r0, #1
 214              	.LVL16:
 215              	.L17:
 216 000c 0133     		adds	r3, r3, #1
 217              		.loc 2 161 0
 218 000e 082B     		cmp	r3, #8
 219 0010 F8D1     		bne	.L18
 220              		.loc 2 168 0
 221 0012 7047     		bx	lr
 222              	.L21:
 223              		.align	2
 224              	.L20:
 225 0014 00000000 		.word	.LANCHOR5
ARM GAS  /var/folders/pt/gxfsd_x53tx3h6kb8dkzftl80000gr/T//cc2GQLXW.s 			page 5


 226              		.cfi_endproc
 227              	.LFE66:
 228              		.size	vexSpiTeamnameSet, .-vexSpiTeamnameSet
 229 0018 AFF30080 		.section	.text.vexSpiModeStandalone,"ax",%progbits
 229      AFF30080 
 230              		.align	2
 231              		.p2align 4,,15
 232              		.global	vexSpiModeStandalone
 233              		.thumb
 234              		.thumb_func
 235              		.type	vexSpiModeStandalone, %function
 236              	vexSpiModeStandalone:
 237              	.LFB67:
 238              		.loc 2 176 0
 239              		.cfi_startproc
 240              		@ args = 0, pretend = 0, frame = 0
 241              		@ frame_needed = 0, uses_anonymous_args = 0
 242              		@ link register save eliminated.
 243              		.loc 2 179 0
 244 0000 40F20003 		movw	r3, #:lower16:.LANCHOR1
 245 0004 C0F20003 		movt	r3, #:upper16:.LANCHOR1
 246 0008 0122     		movs	r2, #1
 247 000a DA70     		strb	r2, [r3, #3]
 248 000c 7047     		bx	lr
 249              		.cfi_endproc
 250              	.LFE67:
 251              		.size	vexSpiModeStandalone, .-vexSpiModeStandalone
 252 000e 00BF     		.section	.text.vexSpiGetOnlineStatus,"ax",%progbits
 253              		.align	2
 254              		.p2align 4,,15
 255              		.global	vexSpiGetOnlineStatus
 256              		.thumb
 257              		.thumb_func
 258              		.type	vexSpiGetOnlineStatus, %function
 259              	vexSpiGetOnlineStatus:
 260              	.LFB68:
 261              		.loc 2 190 0
 262              		.cfi_startproc
 263              		@ args = 0, pretend = 0, frame = 0
 264              		@ frame_needed = 0, uses_anonymous_args = 0
 265              		@ link register save eliminated.
 266              		.loc 2 191 0
 267 0000 40F20003 		movw	r3, #:lower16:.LANCHOR1
 268 0004 C0F20003 		movt	r3, #:upper16:.LANCHOR1
 269              		.loc 2 192 0
 270 0008 B3F96000 		ldrsh	r0, [r3, #96]
 271 000c 7047     		bx	lr
 272              		.cfi_endproc
 273              	.LFE68:
 274              		.size	vexSpiGetOnlineStatus, .-vexSpiGetOnlineStatus
 275 000e 00BF     		.section	.text.vexSpiGetJoystickDataPtr,"ax",%progbits
 276              		.align	2
 277              		.p2align 4,,15
 278              		.global	vexSpiGetJoystickDataPtr
 279              		.thumb
 280              		.thumb_func
 281              		.type	vexSpiGetJoystickDataPtr, %function
ARM GAS  /var/folders/pt/gxfsd_x53tx3h6kb8dkzftl80000gr/T//cc2GQLXW.s 			page 6


 282              	vexSpiGetJoystickDataPtr:
 283              	.LFB69:
 284              		.loc 2 202 0
 285              		.cfi_startproc
 286              		@ args = 0, pretend = 0, frame = 0
 287              		@ frame_needed = 0, uses_anonymous_args = 0
 288              		@ link register save eliminated.
 289              	.LVL17:
 290              		.loc 2 204 0
 291 0000 034B     		ldr	r3, .L27
 292 0002 03F10C02 		add	r2, r3, #12
 293              		.loc 2 207 0
 294 0006 0128     		cmp	r0, #1
 295 0008 D4BF     		ite	le
 296 000a 1846     		movle	r0, r3
 297 000c 1046     		movgt	r0, r2
 298              	.LVL18:
 299 000e 7047     		bx	lr
 300              	.L28:
 301              		.align	2
 302              	.L27:
 303 0010 26000000 		.word	.LANCHOR1+38
 304              		.cfi_endproc
 305              	.LFE69:
 306              		.size	vexSpiGetJoystickDataPtr, .-vexSpiGetJoystickDataPtr
 307 0014 AFF30080 		.section	.text.vexSpiGetControl,"ax",%progbits
 307      AFF30080 
 307      AFF30080 
 308              		.align	2
 309              		.p2align 4,,15
 310              		.global	vexSpiGetControl
 311              		.thumb
 312              		.thumb_func
 313              		.type	vexSpiGetControl, %function
 314              	vexSpiGetControl:
 315              	.LFB70:
 316              		.loc 2 216 0
 317              		.cfi_startproc
 318              		@ args = 0, pretend = 0, frame = 0
 319              		@ frame_needed = 0, uses_anonymous_args = 0
 320              		@ link register save eliminated.
 321              		.loc 2 217 0
 322 0000 40F20003 		movw	r3, #:lower16:.LANCHOR1
 323 0004 C0F20003 		movt	r3, #:upper16:.LANCHOR1
 324              		.loc 2 218 0
 325 0008 93F82300 		ldrb	r0, [r3, #35]	@ zero_extendqisi2
 326 000c 7047     		bx	lr
 327              		.cfi_endproc
 328              	.LFE70:
 329              		.size	vexSpiGetControl, .-vexSpiGetControl
 330 000e 00BF     		.section	.text.vexSpiGetMainBattery,"ax",%progbits
 331              		.align	2
 332              		.p2align 4,,15
 333              		.global	vexSpiGetMainBattery
 334              		.thumb
 335              		.thumb_func
 336              		.type	vexSpiGetMainBattery, %function
ARM GAS  /var/folders/pt/gxfsd_x53tx3h6kb8dkzftl80000gr/T//cc2GQLXW.s 			page 7


 337              	vexSpiGetMainBattery:
 338              	.LFB71:
 339              		.loc 2 233 0
 340              		.cfi_startproc
 341              		@ args = 0, pretend = 0, frame = 0
 342              		@ frame_needed = 0, uses_anonymous_args = 0
 343              		@ link register save eliminated.
 344              		.loc 2 235 0
 345 0000 40F20003 		movw	r3, #:lower16:.LANCHOR1
 346 0004 C0F20003 		movt	r3, #:upper16:.LANCHOR1
 347 0008 93F82430 		ldrb	r3, [r3, #36]	@ zero_extendqisi2
 348 000c C3EB0312 		rsb	r2, r3, r3, lsl #4
 349 0010 C3EB8200 		rsb	r0, r3, r2, lsl #2
 350              		.loc 2 236 0
 351 0014 80B2     		uxth	r0, r0
 352 0016 7047     		bx	lr
 353              		.cfi_endproc
 354              	.LFE71:
 355              		.size	vexSpiGetMainBattery, .-vexSpiGetMainBattery
 356 0018 AFF30080 		.section	.text.vexSpiGetBackupBattery,"ax",%progbits
 356      AFF30080 
 357              		.align	2
 358              		.p2align 4,,15
 359              		.global	vexSpiGetBackupBattery
 360              		.thumb
 361              		.thumb_func
 362              		.type	vexSpiGetBackupBattery, %function
 363              	vexSpiGetBackupBattery:
 364              	.LFB72:
 365              		.loc 2 246 0
 366              		.cfi_startproc
 367              		@ args = 0, pretend = 0, frame = 0
 368              		@ frame_needed = 0, uses_anonymous_args = 0
 369              		@ link register save eliminated.
 370              		.loc 2 248 0
 371 0000 40F20003 		movw	r3, #:lower16:.LANCHOR1
 372 0004 C0F20003 		movt	r3, #:upper16:.LANCHOR1
 373 0008 93F82530 		ldrb	r3, [r3, #37]	@ zero_extendqisi2
 374 000c C3EB0312 		rsb	r2, r3, r3, lsl #4
 375 0010 C3EB8200 		rsb	r0, r3, r2, lsl #2
 376              		.loc 2 249 0
 377 0014 80B2     		uxth	r0, r0
 378 0016 7047     		bx	lr
 379              		.cfi_endproc
 380              	.LFE72:
 381              		.size	vexSpiGetBackupBattery, .-vexSpiGetBackupBattery
 382 0018 AFF30080 		.section	.text.vexSpiSetMotor,"ax",%progbits
 382      AFF30080 
 383              		.align	2
 384              		.p2align 4,,15
 385              		.global	vexSpiSetMotor
 386              		.thumb
 387              		.thumb_func
 388              		.type	vexSpiSetMotor, %function
 389              	vexSpiSetMotor:
 390              	.LFB73:
 391              		.loc 2 265 0
ARM GAS  /var/folders/pt/gxfsd_x53tx3h6kb8dkzftl80000gr/T//cc2GQLXW.s 			page 8


 392              		.cfi_startproc
 393              		@ args = 0, pretend = 0, frame = 0
 394              		@ frame_needed = 0, uses_anonymous_args = 0
 395              		@ link register save eliminated.
 396              	.LVL19:
 397              		.loc 2 270 0
 398 0000 83B2     		uxth	r3, r0
 399 0002 072B     		cmp	r3, #7
 400 0004 07D8     		bhi	.L32
 401              		.loc 2 275 0
 402 0006 7F29     		cmp	r1, #127
 403 0008 06DD     		ble	.L39
 404              		.loc 2 276 0
 405 000a FF21     		movs	r1, #255
 406              	.LVL20:
 407              	.L34:
 408              		.loc 2 284 0
 409 000c 02B1     		cbz	r2, .L38
 410              		.loc 2 287 0
 411 000e C943     		mvns	r1, r1
 412              	.LVL21:
 413              	.L38:
 414 0010 054B     		ldr	r3, .L41
 415 0012 1818     		adds	r0, r3, r0
 416              	.LVL22:
 417 0014 8171     		strb	r1, [r0, #6]
 418              	.L32:
 419 0016 7047     		bx	lr
 420              	.LVL23:
 421              	.L39:
 422              		.loc 2 278 0
 423 0018 11F17F0F 		cmn	r1, #127
 424 001c 01DA     		bge	.L40
 425              		.loc 2 279 0
 426 001e 0021     		movs	r1, #0
 427              	.LVL24:
 428 0020 F4E7     		b	.L34
 429              	.LVL25:
 430              	.L40:
 431              		.loc 2 281 0
 432 0022 7F31     		adds	r1, r1, #127
 433              	.LVL26:
 434 0024 C9B2     		uxtb	r1, r1
 435              	.LVL27:
 436 0026 F1E7     		b	.L34
 437              	.L42:
 438              		.align	2
 439              	.L41:
 440 0028 00000000 		.word	.LANCHOR1
 441              		.cfi_endproc
 442              	.LFE73:
 443              		.size	vexSpiSetMotor, .-vexSpiSetMotor
 444 002c AFF30080 		.section	.text.vexSpiTickDelay,"ax",%progbits
 445              		.align	2
 446              		.p2align 4,,15
 447              		.global	vexSpiTickDelay
 448              		.thumb
ARM GAS  /var/folders/pt/gxfsd_x53tx3h6kb8dkzftl80000gr/T//cc2GQLXW.s 			page 9


 449              		.thumb_func
 450              		.type	vexSpiTickDelay, %function
 451              	vexSpiTickDelay:
 452              	.LFB74:
 453              		.loc 2 299 0
 454              		.cfi_startproc
 455              		@ args = 0, pretend = 0, frame = 0
 456              		@ frame_needed = 0, uses_anonymous_args = 0
 457              	.LVL28:
 458 0000 08B5     		push	{r3, lr}
 459              	.LCFI5:
 460              		.cfi_def_cfa_offset 8
 461              		.cfi_offset 3, -8
 462              		.cfi_offset 14, -4
 463              		.loc 2 299 0
 464 0002 0146     		mov	r1, r0
 465              	.LBB4:
 466              		.loc 2 303 0
 467 0004 2023     		movs	r3, #32
 468              	.LVL29:
 469              	@ 303 "convex/convex/cortex/fw/vexspi.c" 1
 470 0006 83F31188 		msr     BASEPRI, r3
 471              	@ 0 "" 2
 472              	.LVL30:
 473              		.thumb
 474              	.LBE4:
 475              		.loc 2 304 0
 476 000a 40F20003 		movw	r3, #:lower16:rlist
 477              	.LVL31:
 478 000e C0F20003 		movt	r3, #:upper16:rlist
 479 0012 9A69     		ldr	r2, [r3, #24]
 480              		.loc 2 305 0
 481 0014 40F20000 		movw	r0, #:lower16:GPTD2
 482              	.LVL32:
 483              		.loc 2 304 0
 484 0018 40F20003 		movw	r3, #:lower16:.LANCHOR0
 485 001c C0F20003 		movt	r3, #:upper16:.LANCHOR0
 486              		.loc 2 305 0
 487 0020 C0F20000 		movt	r0, #:upper16:GPTD2
 488              		.loc 2 304 0
 489 0024 1A60     		str	r2, [r3, #0]
 490              		.loc 2 305 0
 491 0026 FFF7FEFF 		bl	gptStartOneShotI
 492              	.LVL33:
 493              		.loc 2 306 0
 494 002a 0220     		movs	r0, #2
 495 002c FFF7FEFF 		bl	chSchGoSleepS
 496              	.LVL34:
 497              	.LBB5:
 498              		.loc 2 307 0
 499 0030 0023     		movs	r3, #0
 500              	.LVL35:
 501              	@ 307 "convex/convex/cortex/fw/vexspi.c" 1
 502 0032 83F31188 		msr     BASEPRI, r3
 503              	@ 0 "" 2
 504              	.LVL36:
 505              		.thumb
ARM GAS  /var/folders/pt/gxfsd_x53tx3h6kb8dkzftl80000gr/T//cc2GQLXW.s 			page 10


 506 0036 08BD     		pop	{r3, pc}
 507              	.LBE5:
 508              		.cfi_endproc
 509              	.LFE74:
 510              		.size	vexSpiTickDelay, .-vexSpiTickDelay
 511 0038 AFF30080 		.section	.text.vexSpiSend,"ax",%progbits
 511      AFF30080 
 512              		.align	2
 513              		.p2align 4,,15
 514              		.global	vexSpiSend
 515              		.thumb
 516              		.thumb_func
 517              		.type	vexSpiSend, %function
 518              	vexSpiSend:
 519              	.LFB75:
 520              		.loc 2 323 0
 521              		.cfi_startproc
 522              		@ args = 0, pretend = 0, frame = 0
 523              		@ frame_needed = 0, uses_anonymous_args = 0
 524              	.LVL37:
 525 0000 2DE9F041 		push	{r4, r5, r6, r7, r8, lr}
 526              	.LCFI6:
 527              		.cfi_def_cfa_offset 24
 528              		.cfi_offset 4, -24
 529              		.cfi_offset 5, -20
 530              		.cfi_offset 6, -16
 531              		.cfi_offset 7, -12
 532              		.cfi_offset 8, -8
 533              		.cfi_offset 14, -4
 534              		.loc 2 330 0
 535 0004 434E     		ldr	r6, .L80
 536 0006 B378     		ldrb	r3, [r6, #2]	@ zero_extendqisi2
 537 0008 032B     		cmp	r3, #3
 538 000a 3DD0     		beq	.L45
 539              	.L50:
 540              		.loc 2 347 0
 541 000c 4FF40068 		mov	r8, #2048
 542 0010 C4F20108 		movt	r8, 16385
 543 0014 4FF40067 		mov	r7, #2048
 544 0018 C8F81070 		str	r7, [r8, #16]
 545              	.LVL38:
 546 001c 3E4D     		ldr	r5, .L80+4
 547              		.loc 2 349 0
 548 001e 0024     		movs	r4, #0
 549 0020 0AE0     		b	.L46
 550              	.LVL39:
 551              	.L74:
 552              		.loc 2 356 0 discriminator 1
 553 0022 0F2C     		cmp	r4, #15
 554 0024 1BD0     		beq	.L51
 555              		.loc 2 349 0
 556 0026 0134     		adds	r4, r4, #1
 557              		.loc 2 359 0
 558 0028 4920     		movs	r0, #73
 559              		.loc 2 349 0
 560 002a A4B2     		uxth	r4, r4
 561              		.loc 2 359 0
ARM GAS  /var/folders/pt/gxfsd_x53tx3h6kb8dkzftl80000gr/T//cc2GQLXW.s 			page 11


 562 002c FFF7FEFF 		bl	vexSpiTickDelay
 563              	.LVL40:
 564              		.loc 2 349 0
 565 0030 102C     		cmp	r4, #16
 566              		.loc 2 362 0
 567 0032 C8F81470 		str	r7, [r8, #20]
 568              		.loc 2 349 0
 569 0036 18D0     		beq	.L73
 570              	.LVL41:
 571              	.L46:
 572              		.loc 2 351 0
 573 0038 3848     		ldr	r0, .L80+8
 574 003a FFF7FEFF 		bl	spi_lld_select
 575              	.LVL42:
 576              		.loc 2 352 0
 577 003e 35F8021F 		ldrh	r1, [r5, #2]!
 578 0042 3648     		ldr	r0, .L80+8
 579 0044 FFF7FEFF 		bl	spi_lld_polled_exchange
 580              	.LVL43:
 581 0048 A5F84000 		strh	r0, [r5, #64]	@ movhi
 582              		.loc 2 354 0
 583 004c 3348     		ldr	r0, .L80+8
 584 004e FFF7FEFF 		bl	spi_lld_unselect
 585              	.LVL44:
 586              		.loc 2 356 0
 587 0052 04F00303 		and	r3, r4, #3
 588 0056 032B     		cmp	r3, #3
 589              		.loc 2 365 0
 590 0058 4FF00800 		mov	r0, #8
 591              		.loc 2 356 0
 592 005c E1D0     		beq	.L74
 593              	.L51:
 594              		.loc 2 349 0
 595 005e 0134     		adds	r4, r4, #1
 596 0060 A4B2     		uxth	r4, r4
 597              		.loc 2 365 0
 598 0062 FFF7FEFF 		bl	vexSpiTickDelay
 599              	.LVL45:
 600              		.loc 2 349 0
 601 0066 102C     		cmp	r4, #16
 602 0068 E6D1     		bne	.L46
 603              	.LVL46:
 604              	.L73:
 605              		.loc 2 369 0
 606 006a F37F     		ldrb	r3, [r6, #31]	@ zero_extendqisi2
 607              		.loc 2 372 0
 608 006c B6F84020 		ldrh	r2, [r6, #64]
 609              		.loc 2 369 0
 610 0070 0133     		adds	r3, r3, #1
 611 0072 F377     		strb	r3, [r6, #31]
 612              		.loc 2 372 0
 613 0074 4CF61713 		movw	r3, #51479
 614 0078 9A42     		cmp	r2, r3
 615              		.loc 2 369 0
 616 007a 2649     		ldr	r1, .L80
 617              		.loc 2 372 0
 618 007c 16D0     		beq	.L75
ARM GAS  /var/folders/pt/gxfsd_x53tx3h6kb8dkzftl80000gr/T//cc2GQLXW.s 			page 12


 619              		.loc 2 404 0
 620 007e 4B6E     		ldr	r3, [r1, #100]
 621 0080 0133     		adds	r3, r3, #1
 622 0082 4B66     		str	r3, [r1, #100]
 623              	.L44:
 624 0084 BDE8F081 		pop	{r4, r5, r6, r7, r8, pc}
 625              	.L45:
 626              	.LVL47:
 627              	.LBB6:
 628              		.loc 2 334 0
 629 0088 5523     		movs	r3, #85
 630 008a 7371     		strb	r3, [r6, #5]
 631              	.LVL48:
 632              	.LBE6:
 633              		.loc 2 332 0
 634 008c 2449     		ldr	r1, .L80+12
 635 008e 3346     		mov	r3, r6
 636              	.LBB7:
 637              		.loc 2 322 0
 638 0090 06F10800 		add	r0, r6, #8
 639              		.loc 2 342 0
 640 0094 2024     		movs	r4, #32
 641 0096 04E0     		b	.L49
 642              	.LVL49:
 643              	.L76:
 644              		.loc 2 340 0
 645 0098 9A71     		strb	r2, [r3, #6]
 646 009a 0131     		adds	r1, r1, #1
 647              	.LVL50:
 648              	.L48:
 649 009c 0133     		adds	r3, r3, #1
 650              		.loc 2 337 0
 651 009e 8342     		cmp	r3, r0
 652 00a0 B4D0     		beq	.L50
 653              	.LVL51:
 654              	.L49:
 655              		.loc 2 339 0
 656 00a2 0A78     		ldrb	r2, [r1, #0]	@ zero_extendqisi2
 657 00a4 002A     		cmp	r2, #0
 658 00a6 F7D1     		bne	.L76
 659              		.loc 2 342 0
 660 00a8 9C71     		strb	r4, [r3, #6]
 661 00aa F7E7     		b	.L48
 662              	.L75:
 663 00ac 01F13F03 		add	r3, r1, #63
 664              	.LBE7:
 665              		.loc 2 322 0
 666 00b0 5F31     		adds	r1, r1, #95
 667              	.L54:
 668              		.loc 2 376 0 discriminator 2
 669 00b2 13F8012F 		ldrb	r2, [r3, #1]!	@ zero_extendqisi2
 670              		.loc 2 375 0 discriminator 2
 671 00b6 8B42     		cmp	r3, r1
 672              		.loc 2 376 0 discriminator 2
 673 00b8 03F8202C 		strb	r2, [r3, #-32]
 674              		.loc 2 375 0 discriminator 2
 675 00bc F9D1     		bne	.L54
ARM GAS  /var/folders/pt/gxfsd_x53tx3h6kb8dkzftl80000gr/T//cc2GQLXW.s 			page 13


 676              		.loc 2 379 0
 677 00be 96F82210 		ldrb	r1, [r6, #34]	@ zero_extendqisi2
 678 00c2 144B     		ldr	r3, .L80
 679 00c4 01F00F02 		and	r2, r1, #15
 680 00c8 082A     		cmp	r2, #8
 681 00ca 11D0     		beq	.L77
 682              		.loc 2 383 0
 683 00cc 9878     		ldrb	r0, [r3, #2]	@ zero_extendqisi2
 684 00ce 00F00E00 		and	r0, r0, #14
 685 00d2 0228     		cmp	r0, #2
 686 00d4 D6D1     		bne	.L44
 687              		.loc 2 386 0
 688 00d6 022A     		cmp	r2, #2
 689 00d8 18D0     		beq	.L78
 690              		.loc 2 389 0
 691 00da 032A     		cmp	r2, #3
 692 00dc 11D0     		beq	.L79
 693              	.L58:
 694              		.loc 2 396 0
 695 00de 11F00C0F 		tst	r1, #12
 696 00e2 CFD0     		beq	.L44
 697              		.loc 2 398 0
 698 00e4 0823     		movs	r3, #8
 699 00e6 B370     		strb	r3, [r6, #2]
 700              		.loc 2 399 0
 701 00e8 0023     		movs	r3, #0
 702 00ea 7371     		strb	r3, [r6, #5]
 703 00ec BDE8F081 		pop	{r4, r5, r6, r7, r8, pc}
 704              	.L77:
 705              		.loc 2 383 0
 706 00f0 9A78     		ldrb	r2, [r3, #2]	@ zero_extendqisi2
 707              		.loc 2 380 0
 708 00f2 0120     		movs	r0, #1
 709              		.loc 2 383 0
 710 00f4 02F00E02 		and	r2, r2, #14
 711 00f8 022A     		cmp	r2, #2
 712              		.loc 2 380 0
 713 00fa A3F86000 		strh	r0, [r3, #96]	@ movhi
 714              		.loc 2 383 0
 715 00fe C1D1     		bne	.L44
 716 0100 EDE7     		b	.L58
 717              	.L79:
 718              		.loc 2 391 0
 719 0102 0822     		movs	r2, #8
 720 0104 9A70     		strb	r2, [r3, #2]
 721              		.loc 2 392 0
 722 0106 0022     		movs	r2, #0
 723 0108 5A71     		strb	r2, [r3, #5]
 724 010a E8E7     		b	.L58
 725              	.L78:
 726              		.loc 2 387 0
 727 010c 0322     		movs	r2, #3
 728 010e 9A70     		strb	r2, [r3, #2]
 729 0110 E5E7     		b	.L58
 730              	.L81:
 731 0112 00BF     		.align	2
 732              	.L80:
ARM GAS  /var/folders/pt/gxfsd_x53tx3h6kb8dkzftl80000gr/T//cc2GQLXW.s 			page 14


 733 0114 00000000 		.word	.LANCHOR1
 734 0118 FEFFFFFF 		.word	.LANCHOR1-2
 735 011c 00000000 		.word	SPID1
 736 0120 00000000 		.word	.LANCHOR5
 737              		.cfi_endproc
 738              	.LFE75:
 739              		.size	vexSpiSend, .-vexSpiSend
 740 0124 AFF30080 		.section	.text.vexSpiDebug,"ax",%progbits
 740      AFF30080 
 740      AFF30080 
 741              		.align	2
 742              		.p2align 4,,15
 743              		.global	vexSpiDebug
 744              		.thumb
 745              		.thumb_func
 746              		.type	vexSpiDebug, %function
 747              	vexSpiDebug:
 748              	.LFB76:
 749              		.loc 2 416 0
 750              		.cfi_startproc
 751              		@ args = 0, pretend = 0, frame = 0
 752              		@ frame_needed = 0, uses_anonymous_args = 0
 753              	.LVL52:
 754              		.loc 2 424 0
 755 0000 0129     		cmp	r1, #1
 756              		.loc 2 416 0
 757 0002 2DE9F041 		push	{r4, r5, r6, r7, r8, lr}
 758              	.LCFI7:
 759              		.cfi_def_cfa_offset 24
 760              		.cfi_offset 4, -24
 761              		.cfi_offset 5, -20
 762              		.cfi_offset 6, -16
 763              		.cfi_offset 7, -12
 764              		.cfi_offset 8, -8
 765              		.cfi_offset 14, -4
 766              		.loc 2 416 0
 767 0006 0446     		mov	r4, r0
 768 0008 1546     		mov	r5, r2
 769              		.loc 2 424 0
 770 000a 40F39780 		ble	.L96
 771              		.loc 2 426 0
 772 000e 1068     		ldr	r0, [r2, #0]
 773              	.LVL53:
 774 0010 FFF7FEFF 		bl	atoi
 775              	.LVL54:
 776 0014 86B2     		uxth	r6, r0
 777              	.LVL55:
 778              		.loc 2 427 0
 779 0016 6868     		ldr	r0, [r5, #4]
 780              	.LVL56:
 781 0018 FFF7FEFF 		bl	atoi
 782              	.LVL57:
 783              		.loc 2 429 0
 784 001c 484F     		ldr	r7, .L97
 785              		.loc 2 428 0
 786 001e 33B2     		sxth	r3, r6
 787 0020 012B     		cmp	r3, #1
ARM GAS  /var/folders/pt/gxfsd_x53tx3h6kb8dkzftl80000gr/T//cc2GQLXW.s 			page 15


 788              		.loc 2 429 0
 789 0022 C8BF     		it	gt
 790 0024 F854     		strbgt	r0, [r7, r3]
 791              	.LVL58:
 792              	.L84:
 793 0026 474D     		ldr	r5, .L97+4
 794              	.LVL59:
 795              		.loc 2 415 0 discriminator 1
 796 0028 05F11806 		add	r6, r5, #24
 797              	.LVL60:
 798              	.L86:
 799              		.loc 2 433 0 discriminator 2
 800 002c 15F8012F 		ldrb	r2, [r5, #1]!	@ zero_extendqisi2
 801 0030 2046     		mov	r0, r4
 802 0032 4549     		ldr	r1, .L97+8
 803 0034 FFF7FEFF 		bl	chprintf
 804              	.LVL61:
 805              		.loc 2 432 0 discriminator 2
 806 0038 B542     		cmp	r5, r6
 807 003a F7D1     		bne	.L86
 808              		.loc 2 434 0
 809 003c 2046     		mov	r0, r4
 810 003e 4349     		ldr	r1, .L97+12
 811 0040 FFF7FEFF 		bl	chprintf
 812              	.LVL62:
 813 0044 424D     		ldr	r5, .L97+16
 814              		.loc 2 415 0
 815 0046 05F10806 		add	r6, r5, #8
 816              	.LVL63:
 817              	.L87:
 818              		.loc 2 436 0 discriminator 2
 819 004a 15F8012F 		ldrb	r2, [r5, #1]!	@ zero_extendqisi2
 820 004e 2046     		mov	r0, r4
 821 0050 3D49     		ldr	r1, .L97+8
 822 0052 FFF7FEFF 		bl	chprintf
 823              	.LVL64:
 824              		.loc 2 435 0 discriminator 2
 825 0056 B542     		cmp	r5, r6
 826 0058 F7D1     		bne	.L87
 827              		.loc 2 437 0
 828 005a 2046     		mov	r0, r4
 829 005c 3B49     		ldr	r1, .L97+12
 830 005e FFF7FEFF 		bl	chprintf
 831              	.LVL65:
 832 0062 3C4D     		ldr	r5, .L97+20
 833              		.loc 2 415 0
 834 0064 05F11806 		add	r6, r5, #24
 835              	.LVL66:
 836              	.L88:
 837              		.loc 2 440 0 discriminator 2
 838 0068 15F8012F 		ldrb	r2, [r5, #1]!	@ zero_extendqisi2
 839 006c 2046     		mov	r0, r4
 840 006e 3649     		ldr	r1, .L97+8
 841 0070 FFF7FEFF 		bl	chprintf
 842              	.LVL67:
 843              		.loc 2 439 0 discriminator 2
 844 0074 B542     		cmp	r5, r6
ARM GAS  /var/folders/pt/gxfsd_x53tx3h6kb8dkzftl80000gr/T//cc2GQLXW.s 			page 16


 845 0076 F7D1     		bne	.L88
 846              		.loc 2 441 0
 847 0078 2046     		mov	r0, r4
 848 007a 3449     		ldr	r1, .L97+12
 849 007c FFF7FEFF 		bl	chprintf
 850              	.LVL68:
 851 0080 354D     		ldr	r5, .L97+24
 852              		.loc 2 415 0
 853 0082 05F10806 		add	r6, r5, #8
 854              	.LVL69:
 855              	.L89:
 856              		.loc 2 443 0 discriminator 2
 857 0086 15F8012F 		ldrb	r2, [r5, #1]!	@ zero_extendqisi2
 858 008a 2046     		mov	r0, r4
 859 008c 2E49     		ldr	r1, .L97+8
 860 008e FFF7FEFF 		bl	chprintf
 861              	.LVL70:
 862              		.loc 2 442 0 discriminator 2
 863 0092 B542     		cmp	r5, r6
 864 0094 F7D1     		bne	.L89
 865              		.loc 2 444 0
 866 0096 2046     		mov	r0, r4
 867 0098 2C49     		ldr	r1, .L97+12
 868 009a FFF7FEFF 		bl	chprintf
 869              	.LVL71:
 870              		.loc 2 446 0
 871 009e 7A6E     		ldr	r2, [r7, #100]
 872 00a0 2046     		mov	r0, r4
 873 00a2 2E49     		ldr	r1, .L97+28
 874 00a4 FFF7FEFF 		bl	chprintf
 875              	.LVL72:
 876              		.loc 2 448 0
 877 00a8 2046     		mov	r0, r4
 878 00aa 2D49     		ldr	r1, .L97+32
 879 00ac FFF7FEFF 		bl	chprintf
 880              	.LVL73:
 881              		.loc 2 449 0
 882 00b0 2046     		mov	r0, r4
 883 00b2 97F82620 		ldrb	r2, [r7, #38]	@ zero_extendqisi2
 884 00b6 2B49     		ldr	r1, .L97+36
 885 00b8 FFF7FEFF 		bl	chprintf
 886              	.LVL74:
 887              		.loc 2 450 0
 888 00bc 2046     		mov	r0, r4
 889 00be 97F82720 		ldrb	r2, [r7, #39]	@ zero_extendqisi2
 890 00c2 2949     		ldr	r1, .L97+40
 891 00c4 FFF7FEFF 		bl	chprintf
 892              	.LVL75:
 893              		.loc 2 451 0
 894 00c8 2046     		mov	r0, r4
 895 00ca 97F82820 		ldrb	r2, [r7, #40]	@ zero_extendqisi2
 896 00ce 2749     		ldr	r1, .L97+44
 897 00d0 FFF7FEFF 		bl	chprintf
 898              	.LVL76:
 899              		.loc 2 452 0
 900 00d4 2046     		mov	r0, r4
 901 00d6 97F82920 		ldrb	r2, [r7, #41]	@ zero_extendqisi2
ARM GAS  /var/folders/pt/gxfsd_x53tx3h6kb8dkzftl80000gr/T//cc2GQLXW.s 			page 17


 902 00da 2549     		ldr	r1, .L97+48
 903 00dc FFF7FEFF 		bl	chprintf
 904              	.LVL77:
 905              		.loc 2 453 0
 906 00e0 97F82E30 		ldrb	r3, [r7, #46]	@ zero_extendqisi2
 907 00e4 97F82D20 		ldrb	r2, [r7, #45]	@ zero_extendqisi2
 908 00e8 2046     		mov	r0, r4
 909 00ea 2249     		ldr	r1, .L97+52
 910 00ec FFF7FEFF 		bl	chprintf
 911              	.LVL78:
 912              		.loc 2 454 0
 913 00f0 2046     		mov	r0, r4
 914 00f2 2149     		ldr	r1, .L97+56
 915 00f4 FFF7FEFF 		bl	chprintf
 916              	.LVL79:
 917              		.loc 2 455 0
 918 00f8 2046     		mov	r0, r4
 919 00fa 97F83220 		ldrb	r2, [r7, #50]	@ zero_extendqisi2
 920 00fe 1949     		ldr	r1, .L97+36
 921 0100 FFF7FEFF 		bl	chprintf
 922              	.LVL80:
 923              		.loc 2 456 0
 924 0104 2046     		mov	r0, r4
 925 0106 97F83320 		ldrb	r2, [r7, #51]	@ zero_extendqisi2
 926 010a 1749     		ldr	r1, .L97+40
 927 010c FFF7FEFF 		bl	chprintf
 928              	.LVL81:
 929              		.loc 2 457 0
 930 0110 2046     		mov	r0, r4
 931 0112 97F83420 		ldrb	r2, [r7, #52]	@ zero_extendqisi2
 932 0116 1549     		ldr	r1, .L97+44
 933 0118 FFF7FEFF 		bl	chprintf
 934              	.LVL82:
 935              		.loc 2 458 0
 936 011c 2046     		mov	r0, r4
 937 011e 97F83520 		ldrb	r2, [r7, #53]	@ zero_extendqisi2
 938 0122 1349     		ldr	r1, .L97+48
 939 0124 FFF7FEFF 		bl	chprintf
 940              	.LVL83:
 941              		.loc 2 459 0
 942 0128 1249     		ldr	r1, .L97+52
 943 012a 97F83920 		ldrb	r2, [r7, #57]	@ zero_extendqisi2
 944 012e 97F83A30 		ldrb	r3, [r7, #58]	@ zero_extendqisi2
 945 0132 2046     		mov	r0, r4
 946              		.loc 2 461 0
 947 0134 BDE8F041 		pop	{r4, r5, r6, r7, r8, lr}
 948              		.loc 2 459 0
 949 0138 FFF7FEBF 		b	chprintf
 950              	.LVL84:
 951              	.L96:
 952 013c 004F     		ldr	r7, .L97
 953 013e 72E7     		b	.L84
 954              	.L98:
 955              		.align	2
 956              	.L97:
 957 0140 00000000 		.word	.LANCHOR1
 958 0144 FFFFFFFF 		.word	.LANCHOR1-1
ARM GAS  /var/folders/pt/gxfsd_x53tx3h6kb8dkzftl80000gr/T//cc2GQLXW.s 			page 18


 959 0148 00000000 		.word	.LC0
 960 014c 08000000 		.word	.LC1
 961 0150 17000000 		.word	.LANCHOR1+23
 962 0154 1F000000 		.word	.LANCHOR1+31
 963 0158 37000000 		.word	.LANCHOR1+55
 964 015c 0C000000 		.word	.LC2
 965 0160 1C000000 		.word	.LC3
 966 0164 24000000 		.word	.LC4
 967 0168 30000000 		.word	.LC5
 968 016c 3C000000 		.word	.LC6
 969 0170 48000000 		.word	.LC7
 970 0174 54000000 		.word	.LC8
 971 0178 64000000 		.word	.LC9
 972              		.cfi_endproc
 973              	.LFE76:
 974              		.size	vexSpiDebug, .-vexSpiDebug
 975 017c AFF30080 		.section	.rodata.txInitData,"a",%progbits
 976              		.align	2
 977              		.set	.LANCHOR2,. + 0
 978              		.type	txInitData, %object
 979              		.size	txInitData, 32
 980              	txInitData:
 981 0000 17       		.byte	23
 982 0001 C9       		.byte	-55
 983 0002 02       		.byte	2
 984 0003 00       		.byte	0
 985 0004 00       		.byte	0
 986 0005 00       		.byte	0
 987 0006 7F       		.byte	127
 988 0007 7F       		.byte	127
 989 0008 7F       		.byte	127
 990 0009 7F       		.byte	127
 991 000a 7F       		.byte	127
 992 000b 7F       		.byte	127
 993 000c 7F       		.byte	127
 994 000d 7F       		.byte	127
 995 000e 00       		.byte	0
 996 000f 00       		.byte	0
 997 0010 00       		.byte	0
 998 0011 00       		.byte	0
 999 0012 00       		.byte	0
 1000 0013 00       		.byte	0
 1001 0014 00       		.byte	0
 1002 0015 00       		.byte	0
 1003 0016 00       		.byte	0
 1004 0017 00       		.byte	0
 1005 0018 00       		.byte	0
 1006 0019 00       		.byte	0
 1007 001a 00       		.byte	0
 1008 001b 00       		.byte	0
 1009 001c 00       		.byte	0
 1010 001d 00       		.byte	0
 1011 001e 01       		.byte	1
 1012 001f 00       		.byte	0
 1013              		.section	.data.spicfg,"aw",%progbits
 1014              		.align	2
 1015              		.set	.LANCHOR3,. + 0
ARM GAS  /var/folders/pt/gxfsd_x53tx3h6kb8dkzftl80000gr/T//cc2GQLXW.s 			page 19


 1016              		.type	spicfg, %object
 1017              		.size	spicfg, 12
 1018              	spicfg:
 1019 0000 00000000 		.word	0
 1020 0004 00180140 		.word	1073813504
 1021 0008 0000     		.short	0
 1022 000a 2108     		.short	2081
 1023              		.section	.rodata.vexSpiGpt,"a",%progbits
 1024              		.align	2
 1025              		.set	.LANCHOR4,. + 0
 1026              		.type	vexSpiGpt, %object
 1027              		.size	vexSpiGpt, 12
 1028              	vexSpiGpt:
 1029 0000 40420F00 		.word	1000000
 1030 0004 00000000 		.word	_vspi_gpt_cb
 1031 0008 00000000 		.word	0
 1032              		.section	.rodata.str1.4,"aMS",%progbits,1
 1033              		.align	2
 1034              	.LC0:
 1035 0000 25303258 		.ascii	"%02X \000"
 1035      2000
 1036 0006 0000     		.space	2
 1037              	.LC1:
 1038 0008 0D0A00   		.ascii	"\015\012\000"
 1039 000b 00       		.space	1
 1040              	.LC2:
 1041 000c 6572726F 		.ascii	"errors %ld\015\012\000"
 1041      72732025 
 1041      6C640D0A 
 1041      00
 1042 0019 000000   		.space	3
 1043              	.LC3:
 1044 001c 4A533120 		.ascii	"JS1 - \000"
 1044      2D2000
 1045 0023 00       		.space	1
 1046              	.LC4:
 1047 0024 63683120 		.ascii	"ch1 %3d \000"
 1047      25336420 
 1047      00
 1048 002d 000000   		.space	3
 1049              	.LC5:
 1050 0030 63683220 		.ascii	"ch2 %3d \000"
 1050      25336420 
 1050      00
 1051 0039 000000   		.space	3
 1052              	.LC6:
 1053 003c 63683320 		.ascii	"ch3 %3d \000"
 1053      25336420 
 1053      00
 1054 0045 000000   		.space	3
 1055              	.LC7:
 1056 0048 63683420 		.ascii	"ch4 %3d \000"
 1056      25336420 
 1056      00
 1057 0051 000000   		.space	3
 1058              	.LC8:
 1059 0054 62757474 		.ascii	"button %2X%2X\015\012\000"
ARM GAS  /var/folders/pt/gxfsd_x53tx3h6kb8dkzftl80000gr/T//cc2GQLXW.s 			page 20


 1059      6F6E2025 
 1059      32582532 
 1059      580D0A00 
 1060              	.LC9:
 1061 0064 4A533220 		.ascii	"JS2 - \000"
 1061      2D2000
 1062 006b 00       		.section	.bss.vexSpiData,"aw",%nobits
 1063              		.align	2
 1064              		.set	.LANCHOR1,. + 0
 1065              		.type	vexSpiData, %object
 1066              		.size	vexSpiData, 104
 1067              	vexSpiData:
 1068 0000 00000000 		.space	104
 1068      00000000 
 1068      00000000 
 1068      00000000 
 1068      00000000 
 1069              		.section	.data.spiTeamName,"aw",%progbits
 1070              		.align	2
 1071              		.set	.LANCHOR5,. + 0
 1072              		.type	spiTeamName, %object
 1073              		.size	spiTeamName, 16
 1074              	spiTeamName:
 1075 0000 434F4E56 		.ascii	"CONVEX  \000"
 1075      45582020 
 1075      00
 1076 0009 00000000 		.space	7
 1076      000000
 1077              		.section	.bss.spiThread,"aw",%nobits
 1078              		.align	2
 1079              		.set	.LANCHOR0,. + 0
 1080              		.type	spiThread, %object
 1081              		.size	spiThread, 4
 1082              	spiThread:
 1083 0000 00000000 		.space	4
 1084              		.text
 1085              	.Letext0:
 1086              		.file 3 "/Users/programmer/ConVEX/yagarto-4.7.2/bin/../lib/gcc/arm-none-eabi/4.7.2/include/stddef.
 1087              		.file 4 "/Users/programmer/ConVEX/yagarto-4.7.2/bin/../lib/gcc/arm-none-eabi/4.7.2/../../../../arm
 1088              		.file 5 "convex/ChibiOS_2.6.2/os/ports/GCC/ARMCMx/chtypes.h"
 1089              		.file 6 "convex/ChibiOS_2.6.2/os/kernel/include/chlists.h"
 1090              		.file 7 "convex/ChibiOS_2.6.2/os/kernel/include/chthreads.h"
 1091              		.file 8 "convex/ChibiOS_2.6.2/os/ports/GCC/ARMCMx/chcore_v7m.h"
 1092              		.file 9 "convex/ChibiOS_2.6.2/os/kernel/include/chschd.h"
 1093              		.file 10 "convex/ChibiOS_2.6.2/os/kernel/include/chmtx.h"
 1094              		.file 11 "convex/ChibiOS_2.6.2/os/kernel/include/chstreams.h"
 1095              		.file 12 "convex/ChibiOS_2.6.2/os/hal/platforms/STM32F1xx/stm32f10x.h"
 1096              		.file 13 "convex/ChibiOS_2.6.2/os/hal/platforms/STM32F1xx/stm32_dma.h"
 1097              		.file 14 "convex/ChibiOS_2.6.2/os/hal/platforms/STM32/GPIOv1/pal_lld.h"
 1098              		.file 15 "convex/ChibiOS_2.6.2/os/hal/include/gpt.h"
 1099              		.file 16 "convex/ChibiOS_2.6.2/os/hal/platforms/STM32/TIMv1/gpt_lld.h"
 1100              		.file 17 "convex/ChibiOS_2.6.2/os/hal/platforms/STM32/TIMv1/stm32_tim.h"
 1101              		.file 18 "convex/ChibiOS_2.6.2/os/hal/include/spi.h"
 1102              		.file 19 "convex/ChibiOS_2.6.2/os/hal/platforms/STM32/SPIv1/spi_lld.h"
 1103              		.file 20 "/Users/programmer/ConVEX/yagarto-4.7.2/bin/../lib/gcc/arm-none-eabi/4.7.2/include/stdarg
 1104              		.file 21 "<built-in>"
 1105              		.file 22 "convex/convex/cortex/fw/vexcompat.h"
ARM GAS  /var/folders/pt/gxfsd_x53tx3h6kb8dkzftl80000gr/T//cc2GQLXW.s 			page 21


 1106              		.file 23 "convex/convex/cortex/fw/vexdigital.h"
 1107              		.file 24 "convex/convex/cortex/fw/vexime.h"
 1108              		.file 25 "convex/convex/cortex/fw/vexspi.h"
 1109              		.file 26 "convex/ChibiOS_2.6.2/os/ports/common/ARMCMx/CMSIS/include/core_cm3.h"
 1110              		.file 27 "/Users/programmer/ConVEX/yagarto-4.7.2/bin/../lib/gcc/arm-none-eabi/4.7.2/../../../../ar