ARM GAS  /var/folders/pt/gxfsd_x53tx3h6kb8dkzftl80000gr/T//cc3GpJhn.s 			page 1


   1              		.syntax unified
   2              		.cpu cortex-m3
   3              		.fpu softvfp
   4              		.eabi_attribute 20, 1
   5              		.eabi_attribute 21, 1
   6              		.eabi_attribute 23, 3
   7              		.eabi_attribute 24, 1
   8              		.eabi_attribute 25, 1
   9              		.eabi_attribute 26, 1
  10              		.eabi_attribute 30, 2
  11              		.eabi_attribute 34, 1
  12              		.eabi_attribute 18, 4
  13              		.thumb
  14              		.file	"vexsensor.c"
  15              		.text
  16              	.Ltext0:
  17              		.cfi_sections	.debug_frame
  18              		.section	.text.vexSensorIsAnalog,"ax",%progbits
  19              		.align	2
  20              		.p2align 4,,15
  21              		.global	vexSensorIsAnalog
  22              		.thumb
  23              		.thumb_func
  24              		.type	vexSensorIsAnalog, %function
  25              	vexSensorIsAnalog:
  26              	.LFB63:
  27              		.file 1 "convex/convex/cortex/fw/vexsensor.c"
  28              		.loc 1 63 0
  29              		.cfi_startproc
  30              		@ args = 0, pretend = 0, frame = 0
  31              		@ frame_needed = 0, uses_anonymous_args = 0
  32              		@ link register save eliminated.
  33              	.LVL0:
  34              		.loc 1 64 0
  35 0000 C0B2     		uxtb	r0, r0
  36              		.loc 1 68 0
  37 0002 0728     		cmp	r0, #7
  38 0004 8CBF     		ite	hi
  39 0006 0020     		movhi	r0, #0
  40              	.LVL1:
  41 0008 0120     		movls	r0, #1
  42 000a 7047     		bx	lr
  43              		.cfi_endproc
  44              	.LFE63:
  45              		.size	vexSensorIsAnalog, .-vexSensorIsAnalog
  46 000c AFF30080 		.section	.text.vexSensorValueGet,"ax",%progbits
  47              		.align	2
  48              		.p2align 4,,15
  49              		.global	vexSensorValueGet
  50              		.thumb
  51              		.thumb_func
  52              		.type	vexSensorValueGet, %function
  53              	vexSensorValueGet:
  54              	.LFB64:
  55              		.loc 1 79 0
  56              		.cfi_startproc
  57              		@ args = 0, pretend = 0, frame = 0
ARM GAS  /var/folders/pt/gxfsd_x53tx3h6kb8dkzftl80000gr/T//cc3GpJhn.s 			page 2


  58              		@ frame_needed = 0, uses_anonymous_args = 0
  59              	.LVL2:
  60              		.loc 1 80 0
  61 0000 0728     		cmp	r0, #7
  62              		.loc 1 79 0
  63 0002 10B5     		push	{r4, lr}
  64              	.LCFI0:
  65              		.cfi_def_cfa_offset 8
  66              		.cfi_offset 4, -8
  67              		.cfi_offset 14, -4
  68              		.loc 1 79 0
  69 0004 0346     		mov	r3, r0
  70              		.loc 1 80 0
  71 0006 27DD     		ble	.L16
  72              		.loc 1 83 0
  73 0008 1328     		cmp	r0, #19
  74 000a 09DD     		ble	.L17
  75              		.loc 1 119 0
  76 000c 1B28     		cmp	r0, #27
  77 000e 01DD     		ble	.L18
  78              	.LVL3:
  79              	.L14:
  80              		.loc 1 125 0
  81 0010 0020     		movs	r0, #0
  82              		.loc 1 126 0
  83 0012 10BD     		pop	{r4, pc}
  84              	.LVL4:
  85              	.L18:
  86              	.LBB2:
  87              		.loc 1 122 0
  88 0014 A0F11400 		sub	r0, r0, #20
  89              	.LVL5:
  90              	.LBE2:
  91              		.loc 1 126 0
  92 0018 BDE81040 		pop	{r4, lr}
  93              	.LBB3:
  94              		.loc 1 122 0
  95 001c FFF7FEBF 		b	vexImeGetCount
  96              	.LVL6:
  97              	.L17:
  98              	.LBE3:
  99              	.LBB4:
 100              		.loc 1 86 0
 101 0020 083B     		subs	r3, r3, #8
 102              	.LVL7:
 103              		.loc 1 87 0
 104 0022 5CB2     		sxtb	r4, r3
 105 0024 2046     		mov	r0, r4
 106              	.LVL8:
 107 0026 FFF7FEFF 		bl	vexDigitalTypeGet
 108              	.LVL9:
 109              		.loc 1 89 0
 110 002a 0138     		subs	r0, r0, #1
 111              	.LVL10:
 112 002c 0728     		cmp	r0, #7
 113 002e EFD8     		bhi	.L14
 114 0030 01A3     		adr	r3, .L12
ARM GAS  /var/folders/pt/gxfsd_x53tx3h6kb8dkzftl80000gr/T//cc3GpJhn.s 			page 3


 115 0032 53F820F0 		ldr	pc, [r3, r0, lsl #2]
 116 0036 00BF     		.align	2
 117              	.L12:
 118 0038 5F000000 		.word	.L11+1
 119 003c 5F000000 		.word	.L11+1
 120 0040 67000000 		.word	.L8+1
 121 0044 85000000 		.word	.L9+1
 122 0048 77000000 		.word	.L10+1
 123 004c 11000000 		.word	.L14+1
 124 0050 11000000 		.word	.L14+1
 125 0054 5F000000 		.word	.L11+1
 126              	.LVL11:
 127              	.L16:
 128              	.LBE4:
 129              		.loc 1 81 0
 130 0058 FFF7FEFF 		bl	vexAdcGet
 131              	.LVL12:
 132 005c 10BD     		pop	{r4, pc}
 133              	.L11:
 134              	.LBB5:
 135              		.loc 1 100 0
 136 005e 2046     		mov	r0, r4
 137 0060 FFF7FEFF 		bl	vexDigitalPinGet
 138              	.LVL13:
 139 0064 10BD     		pop	{r4, pc}
 140              	.L8:
 141              		.loc 1 103 0
 142 0066 2046     		mov	r0, r4
 143 0068 FFF7FEFF 		bl	vexDigitalChannelGet
 144              	.LVL14:
 145              		.loc 1 104 0
 146 006c 00B2     		sxth	r0, r0
 147              	.LBE5:
 148              		.loc 1 126 0
 149 006e BDE81040 		pop	{r4, lr}
 150              	.LBB6:
 151              		.loc 1 104 0
 152 0072 FFF7FEBF 		b	vexEncoderGet
 153              	.LVL15:
 154              	.L10:
 155              		.loc 1 111 0
 156 0076 2046     		mov	r0, r4
 157 0078 FFF7FEFF 		bl	vexDigitalChannelGet
 158              	.LVL16:
 159              		.loc 1 112 0
 160 007c C0B2     		uxtb	r0, r0
 161              	.LVL17:
 162 007e FFF7FEFF 		bl	vexSonarGetInch
 163              	.LVL18:
 164 0082 10BD     		pop	{r4, pc}
 165              	.L9:
 166              		.loc 1 107 0
 167 0084 2046     		mov	r0, r4
 168 0086 FFF7FEFF 		bl	vexDigitalChannelGet
 169              	.LVL19:
 170              		.loc 1 108 0
 171 008a C0B2     		uxtb	r0, r0
ARM GAS  /var/folders/pt/gxfsd_x53tx3h6kb8dkzftl80000gr/T//cc3GpJhn.s 			page 4


 172              	.LVL20:
 173 008c FFF7FEFF 		bl	vexSonarGetCm
 174              	.LVL21:
 175 0090 10BD     		pop	{r4, pc}
 176              	.LBE6:
 177              		.cfi_endproc
 178              	.LFE64:
 179              		.size	vexSensorValueGet, .-vexSensorValueGet
 180 0092 00BFAFF3 		.section	.text.vexSensorValueSet,"ax",%progbits
 180      0080AFF3 
 180      0080AFF3 
 180      0080
 181              		.align	2
 182              		.p2align 4,,15
 183              		.global	vexSensorValueSet
 184              		.thumb
 185              		.thumb_func
 186              		.type	vexSensorValueSet, %function
 187              	vexSensorValueSet:
 188              	.LFB65:
 189              		.loc 1 138 0
 190              		.cfi_startproc
 191              		@ args = 0, pretend = 0, frame = 0
 192              		@ frame_needed = 0, uses_anonymous_args = 0
 193              	.LVL22:
 194              		.loc 1 139 0
 195 0000 0728     		cmp	r0, #7
 196              		.loc 1 138 0
 197 0002 38B5     		push	{r3, r4, r5, lr}
 198              	.LCFI1:
 199              		.cfi_def_cfa_offset 16
 200              		.cfi_offset 3, -16
 201              		.cfi_offset 4, -12
 202              		.cfi_offset 5, -8
 203              		.cfi_offset 14, -4
 204              		.loc 1 138 0
 205 0004 0C46     		mov	r4, r1
 206              		.loc 1 139 0
 207 0006 03DD     		ble	.L19
 208              		.loc 1 142 0
 209 0008 1328     		cmp	r0, #19
 210 000a 02DD     		ble	.L24
 211              		.loc 1 172 0
 212 000c 1B28     		cmp	r0, #27
 213 000e 12DD     		ble	.L25
 214              	.LVL23:
 215              	.L19:
 216 0010 38BD     		pop	{r3, r4, r5, pc}
 217              	.LVL24:
 218              	.L24:
 219              	.LBB7:
 220              		.loc 1 145 0
 221 0012 0838     		subs	r0, r0, #8
 222              	.LVL25:
 223              		.loc 1 146 0
 224 0014 45B2     		sxtb	r5, r0
 225 0016 2846     		mov	r0, r5
ARM GAS  /var/folders/pt/gxfsd_x53tx3h6kb8dkzftl80000gr/T//cc3GpJhn.s 			page 5


 226              	.LVL26:
 227 0018 FFF7FEFF 		bl	vexDigitalTypeGet
 228              	.LVL27:
 229              		.loc 1 148 0
 230 001c 0228     		cmp	r0, #2
 231 001e 0FD0     		beq	.L22
 232 0020 0328     		cmp	r0, #3
 233 0022 F5D1     		bne	.L19
 234              		.loc 1 160 0
 235 0024 2846     		mov	r0, r5
 236              	.LVL28:
 237 0026 FFF7FEFF 		bl	vexDigitalChannelGet
 238              	.LVL29:
 239              		.loc 1 161 0
 240 002a 2146     		mov	r1, r4
 241 002c 00B2     		sxth	r0, r0
 242              	.LBE7:
 243              		.loc 1 179 0
 244 002e BDE83840 		pop	{r3, r4, r5, lr}
 245              	.LBB8:
 246              		.loc 1 161 0
 247 0032 FFF7FEBF 		b	vexEncoderSet
 248              	.LVL30:
 249              	.L25:
 250              	.LBE8:
 251              	.LBB9:
 252              		.loc 1 175 0
 253 0036 1438     		subs	r0, r0, #20
 254              	.LVL31:
 255              	.LBE9:
 256              		.loc 1 179 0
 257 0038 BDE83840 		pop	{r3, r4, r5, lr}
 258              	.LBB10:
 259              		.loc 1 175 0
 260 003c FFF7FEBF 		b	vexImeSetCount
 261              	.LVL32:
 262              	.L22:
 263              	.LBE10:
 264              	.LBB11:
 265              		.loc 1 157 0
 266 0040 2846     		mov	r0, r5
 267              	.LVL33:
 268 0042 E1B2     		uxtb	r1, r4
 269              	.LBE11:
 270              		.loc 1 179 0
 271 0044 BDE83840 		pop	{r3, r4, r5, lr}
 272              	.LBB12:
 273              		.loc 1 157 0
 274 0048 FFF7FEBF 		b	vexDigitalPinSet
 275              	.LVL34:
 276              	.LBE12:
 277              		.cfi_endproc
 278              	.LFE65:
 279              		.size	vexSensorValueSet, .-vexSensorValueSet
 280 004c AFF30080 		.text
 281              	.Letext0:
 282              		.file 2 "/Users/programmer/ConVEX/yagarto-4.7.2/bin/../lib/gcc/arm-none-eabi/4.7.2/../../../../arm
ARM GAS  /var/folders/pt/gxfsd_x53tx3h6kb8dkzftl80000gr/T//cc3GpJhn.s 			page 6


 283              		.file 3 "convex/ChibiOS_2.6.2/os/ports/GCC/ARMCMx/chtypes.h"
 284              		.file 4 "convex/convex/cortex/fw/vexdigital.h"
 285              		.file 5 "convex/convex/cortex/fw/vexsonar.h"
 286              		.file 6 "convex/convex/cortex/fw/vexconfig.h"
 287              		.file 7 "convex/convex/cortex/fw/vexsensor.h"
 288              		.file 8 "convex/convex/cortex/fw/vexime.h"
 289              		.file 9 "convex/convex/cortex/fw/vexencoder.h"
 290              		.file 10 "convex/convex/cortex/fw/vexanalog.h"
 291              		.file 11 "convex/ChibiOS_2.6.2/os/ports/common/ARMCMx/CMSIS/include/core_cm3.h"