ARM GAS  /var/folders/pt/gxfsd_x53tx3h6kb8dkzftl80000gr/T//ccaF6iOe.s 			page 1


   1              		.syntax unified
   2              		.cpu cortex-m3
   3              		.fpu softvfp
   4              		.eabi_attribute 20, 1
   5              		.eabi_attribute 21, 1
   6              		.eabi_attribute 23, 3
   7              		.eabi_attribute 24, 1
   8              		.eabi_attribute 25, 1
   9              		.eabi_attribute 26, 1
  10              		.eabi_attribute 30, 2
  11              		.eabi_attribute 34, 1
  12              		.eabi_attribute 18, 4
  13              		.thumb
  14              		.file	"vextest.c"
  15              		.text
  16              	.Ltext0:
  17              		.cfi_sections	.debug_frame
  18              		.section	.text.vexTestThread,"ax",%progbits
  19              		.align	2
  20              		.p2align 4,,15
  21              		.thumb
  22              		.thumb_func
  23              		.type	vexTestThread, %function
  24              	vexTestThread:
  25              	.LFB63:
  26              		.file 1 "convex/convex/cortex/fw/vextest.c"
  27              		.loc 1 69 0
  28              		.cfi_startproc
  29              		@ args = 0, pretend = 0, frame = 0
  30              		@ frame_needed = 0, uses_anonymous_args = 0
  31              	.LVL0:
  32 0000 08B5     		push	{r3, lr}
  33              	.LCFI0:
  34              		.cfi_def_cfa_offset 8
  35              		.cfi_offset 3, -8
  36              		.cfi_offset 14, -4
  37              		.loc 1 72 0
  38 0002 044B     		ldr	r3, .L4
  39 0004 044A     		ldr	r2, .L4+4
  40 0006 9B69     		ldr	r3, [r3, #24]
  41 0008 9A61     		str	r2, [r3, #24]
  42              	.LVL1:
  43              	.L2:
  44              		.loc 1 76 0 discriminator 1
  45 000a 1920     		movs	r0, #25
  46 000c FFF7FEFF 		bl	chThdSleep
  47              	.LVL2:
  48 0010 FBE7     		b	.L2
  49              	.L5:
  50 0012 00BF     		.align	2
  51              	.L4:
  52 0014 00000000 		.word	rlist
  53 0018 00000000 		.word	.LC0
  54              		.cfi_endproc
  55              	.LFE63:
  56              		.size	vexTestThread, .-vexTestThread
  57 001c AFF30080 		.section	.text.vexTest,"ax",%progbits
ARM GAS  /var/folders/pt/gxfsd_x53tx3h6kb8dkzftl80000gr/T//ccaF6iOe.s 			page 2


  58              		.align	2
  59              		.p2align 4,,15
  60              		.global	vexTest
  61              		.thumb
  62              		.thumb_func
  63              		.type	vexTest, %function
  64              	vexTest:
  65              	.LFB64:
  66              		.loc 1 88 0
  67              		.cfi_startproc
  68              		@ args = 0, pretend = 0, frame = 0
  69              		@ frame_needed = 0, uses_anonymous_args = 0
  70 0000 00B5     		push	{lr}
  71              	.LCFI1:
  72              		.cfi_def_cfa_offset 4
  73              		.cfi_offset 14, -4
  74              		.loc 1 90 0
  75 0002 0023     		movs	r3, #0
  76              		.loc 1 88 0
  77 0004 83B0     		sub	sp, sp, #12
  78              	.LCFI2:
  79              		.cfi_def_cfa_offset 16
  80              		.loc 1 90 0
  81 0006 0093     		str	r3, [sp, #0]
  82 0008 40F20000 		movw	r0, #:lower16:.LANCHOR0
  83 000c 40F20003 		movw	r3, #:lower16:vexTestThread
  84 0010 4FF4C071 		mov	r1, #384
  85 0014 3F22     		movs	r2, #63
  86 0016 C0F20003 		movt	r3, #:upper16:vexTestThread
  87 001a C0F20000 		movt	r0, #:upper16:.LANCHOR0
  88 001e FFF7FEFF 		bl	chThdCreateStatic
  89              	.LVL3:
  90              		.loc 1 91 0
  91 0022 03B0     		add	sp, sp, #12
  92 0024 00BD     		pop	{pc}
  93              		.cfi_endproc
  94              	.LFE64:
  95              		.size	vexTest, .-vexTest
  96 0026 00BFAFF3 		.section	.text.vexTestDebug,"ax",%progbits
  96      0080AFF3 
  96      0080
  97              		.align	2
  98              		.p2align 4,,15
  99              		.global	vexTestDebug
 100              		.thumb
 101              		.thumb_func
 102              		.type	vexTestDebug, %function
 103              	vexTestDebug:
 104              	.LFB65:
 105              		.loc 1 102 0
 106              		.cfi_startproc
 107              		@ args = 0, pretend = 0, frame = 0
 108              		@ frame_needed = 0, uses_anonymous_args = 0
 109              		@ link register save eliminated.
 110              	.LVL4:
 111 0000 7047     		bx	lr
 112              		.cfi_endproc
ARM GAS  /var/folders/pt/gxfsd_x53tx3h6kb8dkzftl80000gr/T//ccaF6iOe.s 			page 3


 113              	.LFE65:
 114              		.size	vexTestDebug, .-vexTestDebug
 115 0002 00BFAFF3 		.section	.rodata.str1.4,"aMS",%progbits,1
 115      0080AFF3 
 115      0080AFF3 
 115      0080
 116              		.align	2
 117              	.LC0:
 118 0000 74657374 		.ascii	"test\000"
 118      00
 119 0005 000000   		.section	.bss.waVexTestThread,"aw",%nobits
 120              		.align	3
 121              		.set	.LANCHOR0,. + 0
 122              		.type	waVexTestThread, %object
 123              		.size	waVexTestThread, 384
 124              	waVexTestThread:
 125 0000 00000000 		.space	384
 125      00000000 
 125      00000000 
 125      00000000 
 125      00000000 
 126              		.text
 127              	.Letext0:
 128              		.file 2 "/Users/programmer/ConVEX/yagarto-4.7.2/bin/../lib/gcc/arm-none-eabi/4.7.2/include/stddef.
 129              		.file 3 "/Users/programmer/ConVEX/yagarto-4.7.2/bin/../lib/gcc/arm-none-eabi/4.7.2/../../../../arm
 130              		.file 4 "convex/ChibiOS_2.6.2/os/ports/GCC/ARMCMx/chtypes.h"
 131              		.file 5 "convex/ChibiOS_2.6.2/os/kernel/include/chlists.h"
 132              		.file 6 "convex/ChibiOS_2.6.2/os/kernel/include/chthreads.h"
 133              		.file 7 "convex/ChibiOS_2.6.2/os/ports/GCC/ARMCMx/chcore_v7m.h"
 134              		.file 8 "convex/ChibiOS_2.6.2/os/kernel/include/chschd.h"
 135              		.file 9 "convex/ChibiOS_2.6.2/os/kernel/include/chmtx.h"
 136              		.file 10 "convex/ChibiOS_2.6.2/os/kernel/include/chstreams.h"
 137              		.file 11 "convex/convex/cortex/fw/vexcompat.h"
 138              		.file 12 "convex/convex/cortex/fw/vexdigital.h"
 139              		.file 13 "convex/convex/cortex/fw/vexime.h"
 140              		.file 14 "convex/ChibiOS_2.6.2/os/ports/common/ARMCMx/CMSIS/include/core_cm3.h"