ARM GAS  /var/folders/pt/gxfsd_x53tx3h6kb8dkzftl80000gr/T//ccmigkr6.s 			page 1


   1              		.syntax unified
   2              		.cpu cortex-m3
   3              		.fpu softvfp
   4              		.eabi_attribute 20, 1
   5              		.eabi_attribute 21, 1
   6              		.eabi_attribute 23, 3
   7              		.eabi_attribute 24, 1
   8              		.eabi_attribute 25, 1
   9              		.eabi_attribute 26, 1
  10              		.eabi_attribute 30, 2
  11              		.eabi_attribute 34, 1
  12              		.eabi_attribute 18, 4
  13              		.thumb
  14              		.file	"vexuser.c"
  15              		.text
  16              	.Ltext0:
  17              		.cfi_sections	.debug_frame
  18              		.section	.text.vexUserSetup,"ax",%progbits
  19              		.align	2
  20              		.p2align 4,,15
  21              		.weak	vexUserSetup
  22              		.thumb
  23              		.thumb_func
  24              		.type	vexUserSetup, %function
  25              	vexUserSetup:
  26              	.LFB63:
  27              		.file 1 "vexuser.c"
  28              		.loc 1 138 0
  29              		.cfi_startproc
  30              		@ args = 0, pretend = 0, frame = 0
  31              		@ frame_needed = 0, uses_anonymous_args = 0
  32              		.loc 1 139 0
  33 0000 40F20000 		movw	r0, #:lower16:.LANCHOR0
  34 0004 0C21     		movs	r1, #12
  35              		.loc 1 138 0
  36 0006 08B5     		push	{r3, lr}
  37              	.LCFI0:
  38              		.cfi_def_cfa_offset 8
  39              		.cfi_offset 3, -8
  40              		.cfi_offset 14, -4
  41              		.loc 1 139 0
  42 0008 C0F20000 		movt	r0, #:upper16:.LANCHOR0
  43 000c FFF7FEFF 		bl	vexDigitalConfigure
  44              	.LVL0:
  45              		.loc 1 140 0
  46 0010 40F20000 		movw	r0, #:lower16:.LANCHOR1
  47 0014 C0F20000 		movt	r0, #:upper16:.LANCHOR1
  48 0018 0A21     		movs	r1, #10
  49              		.loc 1 141 0
  50 001a BDE80840 		pop	{r3, lr}
  51              		.loc 1 140 0
  52 001e FFF7FEBF 		b	vexMotorConfigure
  53              	.LVL1:
  54              		.cfi_endproc
  55              	.LFE63:
  56              		.size	vexUserSetup, .-vexUserSetup
  57 0022 00BFAFF3 		.section	.text.vexUserInit,"ax",%progbits
ARM GAS  /var/folders/pt/gxfsd_x53tx3h6kb8dkzftl80000gr/T//ccmigkr6.s 			page 2


  57      0080AFF3 
  57      0080AFF3 
  57      0080
  58              		.align	2
  59              		.p2align 4,,15
  60              		.weak	vexUserInit
  61              		.thumb
  62              		.thumb_func
  63              		.type	vexUserInit, %function
  64              	vexUserInit:
  65              	.LFB64:
  66              		.loc 1 151 0
  67              		.cfi_startproc
  68              		@ args = 0, pretend = 0, frame = 0
  69              		@ frame_needed = 0, uses_anonymous_args = 0
  70 0000 10B5     		push	{r4, lr}
  71              	.LCFI1:
  72              		.cfi_def_cfa_offset 8
  73              		.cfi_offset 4, -8
  74              		.cfi_offset 14, -4
  75              		.loc 1 156 0
  76 0002 40F20001 		movw	r1, #:lower16:.LANCHOR3
  77              		.loc 1 155 0
  78 0006 40F20004 		movw	r4, #:lower16:.LANCHOR2
  79              		.loc 1 157 0
  80 000a 40F20003 		movw	r3, #:lower16:.LANCHOR4
  81              		.loc 1 155 0
  82 000e 0022     		movs	r2, #0
  83              		.loc 1 157 0
  84 0010 C0F20003 		movt	r3, #:upper16:.LANCHOR4
  85              		.loc 1 156 0
  86 0014 C0F20001 		movt	r1, #:upper16:.LANCHOR3
  87              		.loc 1 155 0
  88 0018 C0F20004 		movt	r4, #:upper16:.LANCHOR2
  89              		.loc 1 158 0
  90 001c 0620     		movs	r0, #6
  91              		.loc 1 157 0
  92 001e 1A70     		strb	r2, [r3, #0]
  93              		.loc 1 155 0
  94 0020 2270     		strb	r2, [r4, #0]
  95              		.loc 1 156 0
  96 0022 0A70     		strb	r2, [r1, #0]
  97              		.loc 1 158 0
  98 0024 FFF7FEFF 		bl	vexMotorPositionGet
  99              	.LVL2:
 100 0028 40F20002 		movw	r2, #:lower16:.LANCHOR5
 101 002c C0F20002 		movt	r2, #:upper16:.LANCHOR5
 102              		.loc 1 159 0
 103 0030 40F20003 		movw	r3, #:lower16:.LANCHOR6
 104 0034 C0F20003 		movt	r3, #:upper16:.LANCHOR6
 105              		.loc 1 158 0
 106 0038 1060     		str	r0, [r2, #0]
 107              		.loc 1 159 0
 108 003a 0122     		movs	r2, #1
 109 003c 1A70     		strb	r2, [r3, #0]
 110 003e 10BD     		pop	{r4, pc}
 111              		.cfi_endproc
ARM GAS  /var/folders/pt/gxfsd_x53tx3h6kb8dkzftl80000gr/T//ccmigkr6.s 			page 3


 112              	.LFE64:
 113              		.size	vexUserInit, .-vexUserInit
 114              		.section	.text.min,"ax",%progbits
 115              		.align	2
 116              		.p2align 4,,15
 117              		.global	min
 118              		.thumb
 119              		.thumb_func
 120              		.type	min, %function
 121              	min:
 122              	.LFB67:
 123              		.loc 1 235 0
 124              		.cfi_startproc
 125              		@ args = 0, pretend = 0, frame = 0
 126              		@ frame_needed = 0, uses_anonymous_args = 0
 127              		@ link register save eliminated.
 128              	.LVL3:
 129              		.loc 1 236 0
 130 0000 9042     		cmp	r0, r2
 131 0002 D8BF     		it	le
 132 0004 8842     		cmple	r0, r1
 133 0006 03DD     		ble	.L4
 134 0008 8A42     		cmp	r2, r1
 135 000a B4BF     		ite	lt
 136 000c 1046     		movlt	r0, r2
 137 000e 0846     		movge	r0, r1
 138              	.LVL4:
 139              	.L4:
 140              		.loc 1 241 0
 141 0010 7047     		bx	lr
 142              		.cfi_endproc
 143              	.LFE67:
 144              		.size	min, .-min
 145 0012 00BFAFF3 		.section	.text.launch,"ax",%progbits
 145      0080AFF3 
 145      0080AFF3 
 145      0080
 146              		.align	2
 147              		.p2align 4,,15
 148              		.global	launch
 149              		.thumb
 150              		.thumb_func
 151              		.type	launch, %function
 152              	launch:
 153              	.LFB69:
 154              		.loc 1 346 0
 155              		.cfi_startproc
 156              		@ args = 0, pretend = 0, frame = 0
 157              		@ frame_needed = 0, uses_anonymous_args = 0
 158              	.LVL5:
 159 0000 2DE9F041 		push	{r4, r5, r6, r7, r8, lr}
 160              	.LCFI2:
 161              		.cfi_def_cfa_offset 24
 162              		.cfi_offset 4, -24
 163              		.cfi_offset 5, -20
 164              		.cfi_offset 6, -16
 165              		.cfi_offset 7, -12
ARM GAS  /var/folders/pt/gxfsd_x53tx3h6kb8dkzftl80000gr/T//ccmigkr6.s 			page 4


 166              		.cfi_offset 8, -8
 167              		.cfi_offset 14, -4
 168              		.loc 1 347 0
 169 0004 7521     		movs	r1, #117
 170              		.loc 1 346 0
 171 0006 0646     		mov	r6, r0
 172              		.loc 1 347 0
 173 0008 0320     		movs	r0, #3
 174              	.LVL6:
 175 000a FFF7FEFF 		bl	vexMotorSet
 176              	.LVL7:
 177              		.loc 1 348 0
 178 000e 0720     		movs	r0, #7
 179 0010 7521     		movs	r1, #117
 180 0012 FFF7FEFF 		bl	vexMotorSet
 181              	.LVL8:
 182              		.loc 1 352 0
 183 0016 1C4C     		ldr	r4, .L15
 184              		.loc 1 349 0
 185 0018 0220     		movs	r0, #2
 186 001a 7521     		movs	r1, #117
 187 001c FFF7FEFF 		bl	vexMotorSet
 188              	.LVL9:
 189              		.loc 1 352 0
 190 0020 0123     		movs	r3, #1
 191              		.loc 1 355 0
 192 0022 002E     		cmp	r6, #0
 193              		.loc 1 352 0
 194 0024 2370     		strb	r3, [r4, #0]
 195              	.LVL10:
 196              		.loc 1 355 0
 197 0026 20DD     		ble	.L9
 198 0028 184F     		ldr	r7, .L15+4
 199 002a 0025     		movs	r5, #0
 200              		.loc 1 357 0
 201 002c B846     		mov	r8, r7
 202 002e 05E0     		b	.L7
 203              	.LVL11:
 204              	.L8:
 205              		.loc 1 364 0
 206 0030 0520     		movs	r0, #5
 207 0032 FFF7FEFF 		bl	vexSleep
 208              	.LVL12:
 209              		.loc 1 355 0
 210 0036 B542     		cmp	r5, r6
 211 0038 17DA     		bge	.L9
 212              	.L14:
 213 003a 2378     		ldrb	r3, [r4, #0]	@ zero_extendqisi2
 214              	.LVL13:
 215              	.L7:
 216              		.loc 1 358 0
 217 003c 0020     		movs	r0, #0
 218              		.loc 1 357 0
 219 003e 3B70     		strb	r3, [r7, #0]
 220              		.loc 1 358 0
 221 0040 FFF7FEFF 		bl	vexDigitalPinGet
 222              	.LVL14:
ARM GAS  /var/folders/pt/gxfsd_x53tx3h6kb8dkzftl80000gr/T//ccmigkr6.s 			page 5


 223 0044 0030     		adds	r0, r0, #0
 224 0046 18BF     		it	ne
 225 0048 0120     		movne	r0, #1
 226 004a 2070     		strb	r0, [r4, #0]
 227              		.loc 1 359 0
 228 004c 0028     		cmp	r0, #0
 229 004e EFD1     		bne	.L8
 230              		.loc 1 359 0 is_stmt 0 discriminator 1
 231 0050 98F80030 		ldrb	r3, [r8, #0]	@ zero_extendqisi2
 232 0054 002B     		cmp	r3, #0
 233 0056 EBD0     		beq	.L8
 234              		.loc 1 362 0 is_stmt 1
 235 0058 6420     		movs	r0, #100
 236 005a FFF7FEFF 		bl	vexSleep
 237              	.LVL15:
 238              		.loc 1 361 0
 239 005e 0135     		adds	r5, r5, #1
 240              	.LVL16:
 241              		.loc 1 364 0
 242 0060 0520     		movs	r0, #5
 243 0062 FFF7FEFF 		bl	vexSleep
 244              	.LVL17:
 245              		.loc 1 355 0
 246 0066 B542     		cmp	r5, r6
 247 0068 E7DB     		blt	.L14
 248              	.LVL18:
 249              	.L9:
 250              		.loc 1 367 0
 251 006a 0320     		movs	r0, #3
 252 006c 0021     		movs	r1, #0
 253 006e FFF7FEFF 		bl	vexMotorSet
 254              	.LVL19:
 255              		.loc 1 368 0
 256 0072 0720     		movs	r0, #7
 257 0074 0021     		movs	r1, #0
 258 0076 FFF7FEFF 		bl	vexMotorSet
 259              	.LVL20:
 260              		.loc 1 369 0
 261 007a 0220     		movs	r0, #2
 262 007c 0021     		movs	r1, #0
 263              		.loc 1 371 0
 264 007e BDE8F041 		pop	{r4, r5, r6, r7, r8, lr}
 265              		.loc 1 369 0
 266 0082 FFF7FEBF 		b	vexMotorSet
 267              	.LVL21:
 268              	.L16:
 269 0086 00BF     		.align	2
 270              	.L15:
 271 0088 00000000 		.word	.LANCHOR2
 272 008c 00000000 		.word	.LANCHOR3
 273              		.cfi_endproc
 274              	.LFE69:
 275              		.size	launch, .-launch
 276              		.section	.text.updateInput,"ax",%progbits
 277              		.align	2
 278              		.p2align 4,,15
 279              		.global	updateInput
ARM GAS  /var/folders/pt/gxfsd_x53tx3h6kb8dkzftl80000gr/T//ccmigkr6.s 			page 6


 280              		.thumb
 281              		.thumb_func
 282              		.type	updateInput, %function
 283              	updateInput:
 284              	.LFB75:
 285              		.loc 1 542 0
 286              		.cfi_startproc
 287              		@ args = 0, pretend = 0, frame = 0
 288              		@ frame_needed = 0, uses_anonymous_args = 0
 289 0000 38B5     		push	{r3, r4, r5, lr}
 290              	.LCFI3:
 291              		.cfi_def_cfa_offset 16
 292              		.cfi_offset 3, -16
 293              		.cfi_offset 4, -12
 294              		.cfi_offset 5, -8
 295              		.cfi_offset 14, -4
 296              		.loc 1 544 0
 297 0002 2B4C     		ldr	r4, .L42
 298 0004 2B4D     		ldr	r5, .L42+4
 299 0006 2378     		ldrb	r3, [r4, #0]	@ zero_extendqisi2
 300              		.loc 1 545 0
 301 0008 0D20     		movs	r0, #13
 302              		.loc 1 544 0
 303 000a 2B70     		strb	r3, [r5, #0]
 304              		.loc 1 545 0
 305 000c FFF7FEFF 		bl	vexControllerGet
 306              	.LVL22:
 307 0010 0030     		adds	r0, r0, #0
 308 0012 18BF     		it	ne
 309 0014 0120     		movne	r0, #1
 310 0016 2070     		strb	r0, [r4, #0]
 311              		.loc 1 546 0
 312 0018 10B1     		cbz	r0, .L18
 313              		.loc 1 546 0 is_stmt 0 discriminator 1
 314 001a 2B78     		ldrb	r3, [r5, #0]	@ zero_extendqisi2
 315 001c 002B     		cmp	r3, #0
 316 001e 3ED0     		beq	.L38
 317              	.L18:
 318              		.loc 1 549 0 is_stmt 1
 319 0020 254B     		ldr	r3, .L42+8
 320 0022 0022     		movs	r2, #0
 321 0024 1A70     		strb	r2, [r3, #0]
 322              	.L19:
 323              		.loc 1 552 0
 324 0026 254C     		ldr	r4, .L42+12
 325 0028 254D     		ldr	r5, .L42+16
 326 002a 2378     		ldrb	r3, [r4, #0]	@ zero_extendqisi2
 327              		.loc 1 553 0
 328 002c 0A20     		movs	r0, #10
 329              		.loc 1 552 0
 330 002e 2B70     		strb	r3, [r5, #0]
 331              		.loc 1 553 0
 332 0030 FFF7FEFF 		bl	vexControllerGet
 333              	.LVL23:
 334 0034 0030     		adds	r0, r0, #0
 335 0036 18BF     		it	ne
 336 0038 0120     		movne	r0, #1
ARM GAS  /var/folders/pt/gxfsd_x53tx3h6kb8dkzftl80000gr/T//ccmigkr6.s 			page 7


 337 003a 2070     		strb	r0, [r4, #0]
 338              		.loc 1 554 0
 339 003c 08B1     		cbz	r0, .L20
 340              		.loc 1 554 0 is_stmt 0 discriminator 1
 341 003e 2B78     		ldrb	r3, [r5, #0]	@ zero_extendqisi2
 342 0040 4BB3     		cbz	r3, .L39
 343              	.L20:
 344              		.loc 1 557 0 is_stmt 1
 345 0042 204B     		ldr	r3, .L42+20
 346 0044 0022     		movs	r2, #0
 347 0046 1A70     		strb	r2, [r3, #0]
 348              	.L21:
 349              		.loc 1 560 0
 350 0048 1F4C     		ldr	r4, .L42+24
 351 004a 204D     		ldr	r5, .L42+28
 352 004c 2378     		ldrb	r3, [r4, #0]	@ zero_extendqisi2
 353              		.loc 1 561 0
 354 004e 0820     		movs	r0, #8
 355              		.loc 1 560 0
 356 0050 2B70     		strb	r3, [r5, #0]
 357              		.loc 1 561 0
 358 0052 FFF7FEFF 		bl	vexControllerGet
 359              	.LVL24:
 360 0056 0030     		adds	r0, r0, #0
 361 0058 18BF     		it	ne
 362 005a 0120     		movne	r0, #1
 363 005c 2070     		strb	r0, [r4, #0]
 364              		.loc 1 562 0
 365 005e 08B1     		cbz	r0, .L22
 366              		.loc 1 562 0 is_stmt 0 discriminator 1
 367 0060 2B78     		ldrb	r3, [r5, #0]	@ zero_extendqisi2
 368 0062 A3B1     		cbz	r3, .L40
 369              	.L22:
 370              		.loc 1 565 0 is_stmt 1
 371 0064 1A4B     		ldr	r3, .L42+32
 372 0066 0022     		movs	r2, #0
 373 0068 1A70     		strb	r2, [r3, #0]
 374              	.L23:
 375              		.loc 1 568 0
 376 006a 1A4C     		ldr	r4, .L42+36
 377 006c 1A4D     		ldr	r5, .L42+40
 378 006e 2378     		ldrb	r3, [r4, #0]	@ zero_extendqisi2
 379              		.loc 1 569 0
 380 0070 0B20     		movs	r0, #11
 381              		.loc 1 568 0
 382 0072 2B70     		strb	r3, [r5, #0]
 383              		.loc 1 569 0
 384 0074 FFF7FEFF 		bl	vexControllerGet
 385              	.LVL25:
 386 0078 0030     		adds	r0, r0, #0
 387 007a 18BF     		it	ne
 388 007c 0120     		movne	r0, #1
 389 007e 2070     		strb	r0, [r4, #0]
 390              		.loc 1 570 0
 391 0080 08B1     		cbz	r0, .L24
 392              		.loc 1 570 0 is_stmt 0 discriminator 1
 393 0082 2B78     		ldrb	r3, [r5, #0]	@ zero_extendqisi2
ARM GAS  /var/folders/pt/gxfsd_x53tx3h6kb8dkzftl80000gr/T//ccmigkr6.s 			page 8


 394 0084 7BB1     		cbz	r3, .L41
 395              	.L24:
 396              		.loc 1 573 0 is_stmt 1
 397 0086 154B     		ldr	r3, .L42+44
 398 0088 0022     		movs	r2, #0
 399 008a 1A70     		strb	r2, [r3, #0]
 400 008c 38BD     		pop	{r3, r4, r5, pc}
 401              	.L40:
 402              		.loc 1 563 0
 403 008e 104B     		ldr	r3, .L42+32
 404 0090 0122     		movs	r2, #1
 405 0092 1A70     		strb	r2, [r3, #0]
 406 0094 E9E7     		b	.L23
 407              	.L39:
 408              		.loc 1 555 0
 409 0096 0B4B     		ldr	r3, .L42+20
 410 0098 0122     		movs	r2, #1
 411 009a 1A70     		strb	r2, [r3, #0]
 412 009c D4E7     		b	.L21
 413              	.L38:
 414              		.loc 1 547 0
 415 009e 064B     		ldr	r3, .L42+8
 416 00a0 0122     		movs	r2, #1
 417 00a2 1A70     		strb	r2, [r3, #0]
 418 00a4 BFE7     		b	.L19
 419              	.L41:
 420              		.loc 1 571 0
 421 00a6 0D4B     		ldr	r3, .L42+44
 422 00a8 0122     		movs	r2, #1
 423 00aa 1A70     		strb	r2, [r3, #0]
 424 00ac 38BD     		pop	{r3, r4, r5, pc}
 425              	.L43:
 426 00ae 00BF     		.align	2
 427              	.L42:
 428 00b0 00000000 		.word	.LANCHOR8
 429 00b4 00000000 		.word	.LANCHOR7
 430 00b8 00000000 		.word	.LANCHOR9
 431 00bc 00000000 		.word	.LANCHOR11
 432 00c0 00000000 		.word	.LANCHOR10
 433 00c4 00000000 		.word	.LANCHOR12
 434 00c8 00000000 		.word	.LANCHOR14
 435 00cc 00000000 		.word	.LANCHOR13
 436 00d0 00000000 		.word	.LANCHOR15
 437 00d4 00000000 		.word	.LANCHOR17
 438 00d8 00000000 		.word	.LANCHOR16
 439 00dc 00000000 		.word	.LANCHOR18
 440              		.cfi_endproc
 441              	.LFE75:
 442              		.size	updateInput, .-updateInput
 443              		.section	.text.sign,"ax",%progbits
 444              		.align	2
 445              		.p2align 4,,15
 446              		.global	sign
 447              		.thumb
 448              		.thumb_func
 449              		.type	sign, %function
 450              	sign:
ARM GAS  /var/folders/pt/gxfsd_x53tx3h6kb8dkzftl80000gr/T//ccmigkr6.s 			page 9


 451              	.LFB76:
 452              		.loc 1 581 0
 453              		.cfi_startproc
 454              		@ args = 0, pretend = 0, frame = 0
 455              		@ frame_needed = 0, uses_anonymous_args = 0
 456              		@ link register save eliminated.
 457              	.LVL26:
 458              		.loc 1 582 0
 459 0000 0028     		cmp	r0, #0
 460 0002 01DD     		ble	.L48
 461              		.loc 1 583 0
 462 0004 0120     		movs	r0, #1
 463              	.LVL27:
 464              	.L45:
 465              		.loc 1 587 0
 466 0006 7047     		bx	lr
 467              	.LVL28:
 468              	.L48:
 469              		.loc 1 584 0
 470 0008 FDD0     		beq	.L45
 471              		.loc 1 585 0
 472 000a 4FF0FF30 		mov	r0, #-1
 473              	.LVL29:
 474 000e 7047     		bx	lr
 475              		.cfi_endproc
 476              	.LFE76:
 477              		.size	sign, .-sign
 478              		.global	__aeabi_i2d
 479              		.global	__aeabi_dmul
 480              		.global	__aeabi_ddiv
 481              		.global	__aeabi_d2iz
 482              		.section	.text.driveAdjust,"ax",%progbits
 483              		.align	2
 484              		.p2align 4,,15
 485              		.global	driveAdjust
 486              		.thumb
 487              		.thumb_func
 488              		.type	driveAdjust, %function
 489              	driveAdjust:
 490              	.LFB77:
 491              		.loc 1 597 0
 492              		.cfi_startproc
 493              		@ args = 0, pretend = 0, frame = 0
 494              		@ frame_needed = 0, uses_anonymous_args = 0
 495              	.LVL30:
 496 0000 08B5     		push	{r3, lr}
 497              	.LCFI4:
 498              		.cfi_def_cfa_offset 8
 499              		.cfi_offset 3, -8
 500              		.cfi_offset 14, -4
 501              		.loc 1 599 0
 502 0002 80EAE073 		eor	r3, r0, r0, asr #31
 503 0006 A3EBE073 		sub	r3, r3, r0, asr #31
 504 000a 142B     		cmp	r3, #20
 505 000c 14DD     		ble	.L52
 506              	.LVL31:
 507              	.LBB23:
ARM GAS  /var/folders/pt/gxfsd_x53tx3h6kb8dkzftl80000gr/T//ccmigkr6.s 			page 10


 508              	.LBB24:
 509              	.LBB25:
 510              	.LBB26:
 511              		.loc 1 582 0
 512 000e 0028     		cmp	r0, #0
 513 0010 C8BF     		it	gt
 514 0012 6FF01303 		mvngt	r3, #19
 515 0016 11DD     		ble	.L55
 516              	.L51:
 517              	.LBE26:
 518              	.LBE25:
 519              		.loc 1 600 0
 520 0018 C018     		adds	r0, r0, r3
 521              	.LVL32:
 522 001a FFF7FEFF 		bl	__aeabi_i2d
 523              	.LVL33:
 524 001e 0AA3     		adr	r3, .L56
 525 0020 D3E90023 		ldrd	r2, [r3]
 526 0024 FFF7FEFF 		bl	__aeabi_dmul
 527              	.LVL34:
 528 0028 09A3     		adr	r3, .L56+8
 529 002a D3E90023 		ldrd	r2, [r3]
 530 002e FFF7FEFF 		bl	__aeabi_ddiv
 531              	.LVL35:
 532 0032 FFF7FEFF 		bl	__aeabi_d2iz
 533              	.LVL36:
 534 0036 08BD     		pop	{r3, pc}
 535              	.LVL37:
 536              	.L52:
 537              	.LBE24:
 538              	.LBE23:
 539              		.loc 1 601 0
 540 0038 0020     		movs	r0, #0
 541              	.LVL38:
 542              		.loc 1 602 0
 543 003a 08BD     		pop	{r3, pc}
 544              	.LVL39:
 545              	.L55:
 546              	.LBB30:
 547              	.LBB29:
 548              	.LBB28:
 549              	.LBB27:
 550              		.loc 1 584 0
 551 003c 0CBF     		ite	eq
 552 003e 0346     		moveq	r3, r0
 553 0040 1423     		movne	r3, #20
 554 0042 E9E7     		b	.L51
 555              	.L57:
 556 0044 AFF30080 		.align	3
 557              	.L56:
 558 0048 00000000 		.word	0
 559 004c 00C05F40 		.word	1080016896
 560 0050 00000000 		.word	0
 561 0054 00C05A40 		.word	1079689216
 562              	.LBE27:
 563              	.LBE28:
 564              	.LBE29:
ARM GAS  /var/folders/pt/gxfsd_x53tx3h6kb8dkzftl80000gr/T//ccmigkr6.s 			page 11


 565              	.LBE30:
 566              		.cfi_endproc
 567              	.LFE77:
 568              		.size	driveAdjust, .-driveAdjust
 569 0058 AFF30080 		.section	.text.movement,"ax",%progbits
 569      AFF30080 
 570              		.align	2
 571              		.p2align 4,,15
 572              		.global	movement
 573              		.thumb
 574              		.thumb_func
 575              		.type	movement, %function
 576              	movement:
 577              	.LFB78:
 578              		.loc 1 612 0
 579              		.cfi_startproc
 580              		@ args = 0, pretend = 0, frame = 0
 581              		@ frame_needed = 0, uses_anonymous_args = 0
 582 0000 08B5     		push	{r3, lr}
 583              	.LCFI5:
 584              		.cfi_def_cfa_offset 8
 585              		.cfi_offset 3, -8
 586              		.cfi_offset 14, -4
 587              		.loc 1 613 0
 588 0002 0C20     		movs	r0, #12
 589 0004 FFF7FEFF 		bl	vexControllerGet
 590              	.LVL40:
 591 0008 18B1     		cbz	r0, .L59
 592              		.loc 1 613 0 is_stmt 0 discriminator 1
 593 000a 0D20     		movs	r0, #13
 594 000c FFF7FEFF 		bl	vexControllerGet
 595              	.LVL41:
 596 0010 98B9     		cbnz	r0, .L72
 597              	.L59:
 598              		.loc 1 620 0 is_stmt 1
 599 0012 0220     		movs	r0, #2
 600 0014 FFF7FEFF 		bl	vexControllerGet
 601              	.LVL42:
 602 0018 FFF7FEFF 		bl	driveAdjust
 603              	.LVL43:
 604 001c 01B2     		sxth	r1, r0
 605 001e 0120     		movs	r0, #1
 606 0020 FFF7FEFF 		bl	vexMotorSet
 607              	.LVL44:
 608              		.loc 1 621 0
 609 0024 0120     		movs	r0, #1
 610 0026 FFF7FEFF 		bl	vexControllerGet
 611              	.LVL45:
 612 002a FFF7FEFF 		bl	driveAdjust
 613              	.LVL46:
 614 002e 01B2     		sxth	r1, r0
 615 0030 0520     		movs	r0, #5
 616              		.loc 1 623 0
 617 0032 BDE80840 		pop	{r3, lr}
 618              		.loc 1 621 0
 619 0036 FFF7FEBF 		b	vexMotorSet
 620              	.LVL47:
ARM GAS  /var/folders/pt/gxfsd_x53tx3h6kb8dkzftl80000gr/T//ccmigkr6.s 			page 12


 621              	.L72:
 622              		.loc 1 613 0 discriminator 1
 623 003a 0E20     		movs	r0, #14
 624 003c FFF7FEFF 		bl	vexControllerGet
 625              	.LVL48:
 626 0040 0028     		cmp	r0, #0
 627 0042 E6D0     		beq	.L59
 628 0044 0F20     		movs	r0, #15
 629 0046 FFF7FEFF 		bl	vexControllerGet
 630              	.LVL49:
 631 004a 0028     		cmp	r0, #0
 632 004c E1D0     		beq	.L59
 633              		.loc 1 615 0
 634 004e 0220     		movs	r0, #2
 635 0050 FFF7FEFF 		bl	vexControllerGet
 636              	.LVL50:
 637 0054 FFF7FEFF 		bl	driveAdjust
 638              	.LVL51:
 639 0058 FFF7FEFF 		bl	__aeabi_i2d
 640              	.LVL52:
 641 005c 10A3     		adr	r3, .L73
 642 005e D3E90023 		ldrd	r2, [r3]
 643 0062 FFF7FEFF 		bl	__aeabi_dmul
 644              	.LVL53:
 645 0066 FFF7FEFF 		bl	__aeabi_d2iz
 646              	.LVL54:
 647 006a 01B2     		sxth	r1, r0
 648 006c 0120     		movs	r0, #1
 649 006e FFF7FEFF 		bl	vexMotorSet
 650              	.LVL55:
 651              		.loc 1 616 0
 652 0072 0120     		movs	r0, #1
 653 0074 FFF7FEFF 		bl	vexControllerGet
 654              	.LVL56:
 655 0078 FFF7FEFF 		bl	driveAdjust
 656              	.LVL57:
 657 007c FFF7FEFF 		bl	__aeabi_i2d
 658              	.LVL58:
 659 0080 07A3     		adr	r3, .L73
 660 0082 D3E90023 		ldrd	r2, [r3]
 661 0086 FFF7FEFF 		bl	__aeabi_dmul
 662              	.LVL59:
 663 008a FFF7FEFF 		bl	__aeabi_d2iz
 664              	.LVL60:
 665 008e 01B2     		sxth	r1, r0
 666 0090 0520     		movs	r0, #5
 667              		.loc 1 623 0
 668 0092 BDE80840 		pop	{r3, lr}
 669              		.loc 1 616 0
 670 0096 FFF7FEBF 		b	vexMotorSet
 671              	.LVL61:
 672              	.L74:
 673 009a 00BFAFF3 		.align	3
 673      0080
 674              	.L73:
 675 00a0 9A999999 		.word	2576980378
 676 00a4 9999D93F 		.word	1071225241
ARM GAS  /var/folders/pt/gxfsd_x53tx3h6kb8dkzftl80000gr/T//ccmigkr6.s 			page 13


 677              		.cfi_endproc
 678              	.LFE78:
 679              		.size	movement, .-movement
 680 00a8 AFF30080 		.section	.text.intake,"ax",%progbits
 680      AFF30080 
 681              		.align	2
 682              		.p2align 4,,15
 683              		.global	intake
 684              		.thumb
 685              		.thumb_func
 686              		.type	intake, %function
 687              	intake:
 688              	.LFB79:
 689              		.loc 1 632 0
 690              		.cfi_startproc
 691              		@ args = 0, pretend = 0, frame = 0
 692              		@ frame_needed = 0, uses_anonymous_args = 0
 693              		.loc 1 633 0
 694 0000 0120     		movs	r0, #1
 695              		.loc 1 632 0
 696 0002 10B5     		push	{r4, lr}
 697              	.LCFI6:
 698              		.cfi_def_cfa_offset 8
 699              		.cfi_offset 4, -8
 700              		.cfi_offset 14, -4
 701              		.loc 1 633 0
 702 0004 FFF7FEFF 		bl	vexMotorGet
 703              	.LVL62:
 704 0008 0028     		cmp	r0, #0
 705 000a 14DB     		blt	.L77
 706              		.loc 1 633 0 is_stmt 0 discriminator 1
 707 000c 0520     		movs	r0, #5
 708 000e FFF7FEFF 		bl	vexMotorGet
 709              	.LVL63:
 710 0012 0028     		cmp	r0, #0
 711 0014 0FDB     		blt	.L77
 712              		.loc 1 639 0 is_stmt 1
 713 0016 0E20     		movs	r0, #14
 714 0018 FFF7FEFF 		bl	vexControllerGet
 715              	.LVL64:
 716 001c 0446     		mov	r4, r0
 717 001e 0F20     		movs	r0, #15
 718 0020 FFF7FEFF 		bl	vexControllerGet
 719              	.LVL65:
 720 0024 201A     		subs	r0, r4, r0
 721 0026 C0EBC011 		rsb	r1, r0, r0, lsl #7
 722 002a 09B2     		sxth	r1, r1
 723 002c 0920     		movs	r0, #9
 724              		.loc 1 641 0
 725 002e BDE81040 		pop	{r4, lr}
 726              		.loc 1 639 0
 727 0032 FFF7FEBF 		b	vexMotorSet
 728              	.LVL66:
 729              	.L77:
 730              		.loc 1 635 0
 731 0036 0920     		movs	r0, #9
 732 0038 7F21     		movs	r1, #127
ARM GAS  /var/folders/pt/gxfsd_x53tx3h6kb8dkzftl80000gr/T//ccmigkr6.s 			page 14


 733              		.loc 1 641 0
 734 003a BDE81040 		pop	{r4, lr}
 735              		.loc 1 635 0
 736 003e FFF7FEBF 		b	vexMotorSet
 737              	.LVL67:
 738              		.cfi_endproc
 739              	.LFE79:
 740              		.size	intake, .-intake
 741 0042 00BFAFF3 		.section	.text.uptake,"ax",%progbits
 741      0080AFF3 
 741      0080AFF3 
 741      0080
 742              		.align	2
 743              		.p2align 4,,15
 744              		.global	uptake
 745              		.thumb
 746              		.thumb_func
 747              		.type	uptake, %function
 748              	uptake:
 749              	.LFB80:
 750              		.loc 1 650 0
 751              		.cfi_startproc
 752              		@ args = 0, pretend = 0, frame = 0
 753              		@ frame_needed = 0, uses_anonymous_args = 0
 754 0000 10B5     		push	{r4, lr}
 755              	.LCFI7:
 756              		.cfi_def_cfa_offset 8
 757              		.cfi_offset 4, -8
 758              		.cfi_offset 14, -4
 759              		.loc 1 651 0
 760 0002 0C20     		movs	r0, #12
 761 0004 FFF7FEFF 		bl	vexControllerGet
 762              	.LVL68:
 763 0008 0446     		mov	r4, r0
 764 000a 0D20     		movs	r0, #13
 765 000c FFF7FEFF 		bl	vexControllerGet
 766              	.LVL69:
 767 0010 201A     		subs	r0, r4, r0
 768 0012 C0EBC011 		rsb	r1, r0, r0, lsl #7
 769 0016 09B2     		sxth	r1, r1
 770 0018 0620     		movs	r0, #6
 771              		.loc 1 652 0
 772 001a BDE81040 		pop	{r4, lr}
 773              		.loc 1 651 0
 774 001e FFF7FEBF 		b	vexMotorSet
 775              	.LVL70:
 776              		.cfi_endproc
 777              	.LFE80:
 778              		.size	uptake, .-uptake
 779 0022 00BFAFF3 		.section	.text.launcher,"ax",%progbits
 779      0080AFF3 
 779      0080AFF3 
 779      0080
 780              		.align	2
 781              		.p2align 4,,15
 782              		.global	launcher
 783              		.thumb
ARM GAS  /var/folders/pt/gxfsd_x53tx3h6kb8dkzftl80000gr/T//ccmigkr6.s 			page 15


 784              		.thumb_func
 785              		.type	launcher, %function
 786              	launcher:
 787              	.LFB81:
 788              		.loc 1 662 0
 789              		.cfi_startproc
 790              		@ args = 0, pretend = 0, frame = 0
 791              		@ frame_needed = 0, uses_anonymous_args = 0
 792 0000 08B5     		push	{r3, lr}
 793              	.LCFI8:
 794              		.cfi_def_cfa_offset 8
 795              		.cfi_offset 3, -8
 796              		.cfi_offset 14, -4
 797              		.loc 1 663 0
 798 0002 0620     		movs	r0, #6
 799 0004 FFF7FEFF 		bl	vexControllerGet
 800              	.LVL71:
 801 0008 48B9     		cbnz	r0, .L82
 802              		.loc 1 674 0
 803 000a 0420     		movs	r0, #4
 804 000c FFF7FEFF 		bl	vexControllerGet
 805              	.LVL72:
 806 0010 00B9     		cbnz	r0, .L83
 807 0012 08BD     		pop	{r3, pc}
 808              	.L83:
 809              		.loc 1 675 0
 810 0014 0120     		movs	r0, #1
 811              		.loc 1 677 0
 812 0016 BDE80840 		pop	{r3, lr}
 813              		.loc 1 675 0
 814 001a FFF7FEBF 		b	launch
 815              	.LVL73:
 816              	.L82:
 817              		.loc 1 666 0
 818 001e 0420     		movs	r0, #4
 819 0020 FFF7FEFF 		bl	vexControllerGet
 820              	.LVL74:
 821 0024 00EB4003 		add	r3, r0, r0, lsl #1
 822 0028 00EB8300 		add	r0, r0, r3, lsl #2
 823 002c 00EBC001 		add	r1, r0, r0, lsl #3
 824 0030 09B2     		sxth	r1, r1
 825 0032 0320     		movs	r0, #3
 826 0034 FFF7FEFF 		bl	vexMotorSet
 827              	.LVL75:
 828              		.loc 1 667 0
 829 0038 0420     		movs	r0, #4
 830 003a FFF7FEFF 		bl	vexControllerGet
 831              	.LVL76:
 832 003e 00EB4003 		add	r3, r0, r0, lsl #1
 833 0042 00EB8300 		add	r0, r0, r3, lsl #2
 834 0046 00EBC001 		add	r1, r0, r0, lsl #3
 835 004a 09B2     		sxth	r1, r1
 836 004c 0720     		movs	r0, #7
 837 004e FFF7FEFF 		bl	vexMotorSet
 838              	.LVL77:
 839              		.loc 1 668 0
 840 0052 0420     		movs	r0, #4
ARM GAS  /var/folders/pt/gxfsd_x53tx3h6kb8dkzftl80000gr/T//ccmigkr6.s 			page 16


 841 0054 FFF7FEFF 		bl	vexControllerGet
 842              	.LVL78:
 843 0058 00EB4003 		add	r3, r0, r0, lsl #1
 844 005c 00EB8300 		add	r0, r0, r3, lsl #2
 845 0060 00EBC001 		add	r1, r0, r0, lsl #3
 846 0064 09B2     		sxth	r1, r1
 847 0066 0220     		movs	r0, #2
 848              		.loc 1 677 0
 849 0068 BDE80840 		pop	{r3, lr}
 850              		.loc 1 668 0
 851 006c FFF7FEBF 		b	vexMotorSet
 852              	.LVL79:
 853              		.cfi_endproc
 854              	.LFE81:
 855              		.size	launcher, .-launcher
 856              		.section	.text.getMiniSpeed,"ax",%progbits
 857              		.align	2
 858              		.p2align 4,,15
 859              		.global	getMiniSpeed
 860              		.thumb
 861              		.thumb_func
 862              		.type	getMiniSpeed, %function
 863              	getMiniSpeed:
 864              	.LFB84:
 865              		.loc 1 770 0
 866              		.cfi_startproc
 867              		@ args = 0, pretend = 0, frame = 0
 868              		@ frame_needed = 0, uses_anonymous_args = 0
 869              	.LVL80:
 870 0000 094B     		ldr	r3, .L87
 871 0002 10B5     		push	{r4, lr}
 872              	.LCFI9:
 873              		.cfi_def_cfa_offset 8
 874              		.cfi_offset 4, -8
 875              		.cfi_offset 14, -4
 876              		.loc 1 769 0
 877 0004 A3F14C04 		sub	r4, r3, #76
 878 0008 2146     		mov	r1, r4
 879              	.LVL81:
 880              	.L85:
 881              		.loc 1 774 0 discriminator 2
 882 000a 53F8042D 		ldr	r2, [r3, #-4]!
 883              		.loc 1 772 0 discriminator 2
 884 000e 8B42     		cmp	r3, r1
 885              		.loc 1 774 0 discriminator 2
 886 0010 5A60     		str	r2, [r3, #4]
 887              		.loc 1 772 0 discriminator 2
 888 0012 FAD1     		bne	.L85
 889              		.loc 1 776 0
 890 0014 0820     		movs	r0, #8
 891 0016 FFF7FEFF 		bl	vexMotorPositionGet
 892              	.LVL82:
 893              		.loc 1 777 0
 894 001a E36C     		ldr	r3, [r4, #76]
 895              		.loc 1 776 0
 896 001c 2060     		str	r0, [r4, #0]
 897              		.loc 1 777 0
ARM GAS  /var/folders/pt/gxfsd_x53tx3h6kb8dkzftl80000gr/T//ccmigkr6.s 			page 17


 898 001e 181A     		subs	r0, r3, r0
 899              		.loc 1 784 0
 900 0020 0028     		cmp	r0, #0
 901 0022 B8BF     		it	lt
 902 0024 4042     		rsblt	r0, r0, #0
 903 0026 10BD     		pop	{r4, pc}
 904              	.L88:
 905              		.align	2
 906              	.L87:
 907 0028 4C000000 		.word	.LANCHOR19+76
 908              		.cfi_endproc
 909              	.LFE84:
 910              		.size	getMiniSpeed, .-getMiniSpeed
 911 002c AFF30080 		.section	.text.setDisplay,"ax",%progbits
 912              		.align	2
 913              		.p2align 4,,15
 914              		.global	setDisplay
 915              		.thumb
 916              		.thumb_func
 917              		.type	setDisplay, %function
 918              	setDisplay:
 919              	.LFB85:
 920              		.loc 1 799 0
 921              		.cfi_startproc
 922              		@ args = 0, pretend = 0, frame = 0
 923              		@ frame_needed = 0, uses_anonymous_args = 0
 924 0000 10B5     		push	{r4, lr}
 925              	.LCFI10:
 926              		.cfi_def_cfa_offset 8
 927              		.cfi_offset 4, -8
 928              		.cfi_offset 14, -4
 929              		.loc 1 801 0
 930 0002 334C     		ldr	r4, .L109
 931              		.loc 1 799 0
 932 0004 82B0     		sub	sp, sp, #8
 933              	.LCFI11:
 934              		.cfi_def_cfa_offset 16
 935              		.loc 1 801 0
 936 0006 2368     		ldr	r3, [r4, #0]
 937              		.loc 1 802 0
 938 0008 0720     		movs	r0, #7
 939              		.loc 1 801 0
 940 000a 2BB1     		cbz	r3, .L90
 941              		.loc 1 801 0 is_stmt 0 discriminator 1
 942 000c 314B     		ldr	r3, .L109+4
 943 000e 1A68     		ldr	r2, [r3, #0]
 944 0010 40F2DB53 		movw	r3, #1499
 945 0014 9A42     		cmp	r2, r3
 946 0016 53DC     		bgt	.L91
 947              	.L90:
 948              		.loc 1 802 0 is_stmt 1
 949 0018 0021     		movs	r1, #0
 950 001a FFF7FEFF 		bl	vexDigitalPinSet
 951              	.LVL83:
 952              	.L92:
 953              		.loc 1 806 0
 954 001e 2368     		ldr	r3, [r4, #0]
ARM GAS  /var/folders/pt/gxfsd_x53tx3h6kb8dkzftl80000gr/T//ccmigkr6.s 			page 18


 955              		.loc 1 807 0
 956 0020 0620     		movs	r0, #6
 957              		.loc 1 806 0
 958 0022 FA2B     		cmp	r3, #250
 959 0024 48D0     		beq	.L105
 960              		.loc 1 809 0
 961 0026 0121     		movs	r1, #1
 962 0028 FFF7FEFF 		bl	vexDigitalPinSet
 963              	.LVL84:
 964              	.L94:
 965              		.loc 1 811 0
 966 002c 2368     		ldr	r3, [r4, #0]
 967              		.loc 1 812 0
 968 002e 0520     		movs	r0, #5
 969              		.loc 1 811 0
 970 0030 B3F5AF7F 		cmp	r3, #350
 971 0034 3CD0     		beq	.L106
 972              		.loc 1 814 0
 973 0036 0121     		movs	r1, #1
 974 0038 FFF7FEFF 		bl	vexDigitalPinSet
 975              	.LVL85:
 976              	.L96:
 977              		.loc 1 817 0
 978 003c 0120     		movs	r0, #1
 979 003e FFF7FEFF 		bl	vexLcdButtonGet
 980              	.LVL86:
 981 0042 0128     		cmp	r0, #1
 982 0044 20D0     		beq	.L107
 983              		.loc 1 819 0
 984 0046 0120     		movs	r0, #1
 985 0048 FFF7FEFF 		bl	vexLcdButtonGet
 986              	.LVL87:
 987 004c 0428     		cmp	r0, #4
 988 004e 3BD0     		beq	.L108
 989              		.loc 1 822 0
 990 0050 214B     		ldr	r3, .L109+8
 991 0052 1B68     		ldr	r3, [r3, #0]
 992 0054 012B     		cmp	r3, #1
 993 0056 19D0     		beq	.L98
 994              	.L100:
 995              		.loc 1 831 0
 996 0058 204B     		ldr	r3, .L109+12
 997 005a D3E90001 		ldrd	r0, [r3]
 998 005e FFF7FEFF 		bl	__aeabi_d2iz
 999              	.LVL88:
 1000 0062 0021     		movs	r1, #0
 1001 0064 1E4A     		ldr	r2, .L109+16
 1002 0066 1F4B     		ldr	r3, .L109+20
 1003 0068 0090     		str	r0, [sp, #0]
 1004 006a 0120     		movs	r0, #1
 1005 006c FFF7FEFF 		bl	vexLcdPrintf
 1006              	.LVL89:
 1007              		.loc 1 832 0
 1008 0070 0220     		movs	r0, #2
 1009 0072 FFF7FEFF 		bl	vexAdcGet
 1010              	.LVL90:
 1011 0076 0090     		str	r0, [sp, #0]
ARM GAS  /var/folders/pt/gxfsd_x53tx3h6kb8dkzftl80000gr/T//ccmigkr6.s 			page 19


 1012 0078 0120     		movs	r0, #1
 1013 007a 0146     		mov	r1, r0
 1014 007c 184A     		ldr	r2, .L109+16
 1015 007e 1A4B     		ldr	r3, .L109+24
 1016 0080 FFF7FEFF 		bl	vexLcdPrintf
 1017              	.LVL91:
 1018              	.L89:
 1019              		.loc 1 835 0
 1020 0084 02B0     		add	sp, sp, #8
 1021 0086 10BD     		pop	{r4, pc}
 1022              	.L107:
 1023              		.loc 1 818 0
 1024 0088 134B     		ldr	r3, .L109+8
 1025 008a 1860     		str	r0, [r3, #0]
 1026              	.L98:
 1027              		.loc 1 824 0
 1028 008c 174B     		ldr	r3, .L109+28
 1029 008e 0120     		movs	r0, #1
 1030 0090 1B68     		ldr	r3, [r3, #0]
 1031 0092 0021     		movs	r1, #0
 1032 0094 0093     		str	r3, [sp, #0]
 1033 0096 124A     		ldr	r2, .L109+16
 1034 0098 154B     		ldr	r3, .L109+32
 1035 009a FFF7FEFF 		bl	vexLcdPrintf
 1036              	.LVL92:
 1037              		.loc 1 825 0
 1038 009e 2368     		ldr	r3, [r4, #0]
 1039 00a0 0120     		movs	r0, #1
 1040 00a2 0093     		str	r3, [sp, #0]
 1041 00a4 0146     		mov	r1, r0
 1042 00a6 0E4A     		ldr	r2, .L109+16
 1043 00a8 124B     		ldr	r3, .L109+36
 1044 00aa FFF7FEFF 		bl	vexLcdPrintf
 1045              	.LVL93:
 1046 00ae E9E7     		b	.L89
 1047              	.L106:
 1048              		.loc 1 812 0
 1049 00b0 0021     		movs	r1, #0
 1050 00b2 FFF7FEFF 		bl	vexDigitalPinSet
 1051              	.LVL94:
 1052 00b6 C1E7     		b	.L96
 1053              	.L105:
 1054              		.loc 1 807 0
 1055 00b8 0021     		movs	r1, #0
 1056 00ba FFF7FEFF 		bl	vexDigitalPinSet
 1057              	.LVL95:
 1058 00be B5E7     		b	.L94
 1059              	.L91:
 1060              		.loc 1 804 0
 1061 00c0 0121     		movs	r1, #1
 1062 00c2 FFF7FEFF 		bl	vexDigitalPinSet
 1063              	.LVL96:
 1064 00c6 AAE7     		b	.L92
 1065              	.L108:
 1066              		.loc 1 820 0
 1067 00c8 034B     		ldr	r3, .L109+8
 1068 00ca 0222     		movs	r2, #2
ARM GAS  /var/folders/pt/gxfsd_x53tx3h6kb8dkzftl80000gr/T//ccmigkr6.s 			page 20


 1069 00cc 1A60     		str	r2, [r3, #0]
 1070 00ce C3E7     		b	.L100
 1071              	.L110:
 1072              		.align	2
 1073              	.L109:
 1074 00d0 00000000 		.word	.LANCHOR20
 1075 00d4 00000000 		.word	.LANCHOR21
 1076 00d8 00000000 		.word	.LANCHOR22
 1077 00dc 00000000 		.word	.LANCHOR24
 1078 00e0 00000000 		.word	.LC0
 1079 00e4 1C000000 		.word	.LC3
 1080 00e8 24000000 		.word	.LC4
 1081 00ec 00000000 		.word	.LANCHOR23
 1082 00f0 08000000 		.word	.LC1
 1083 00f4 10000000 		.word	.LC2
 1084              		.cfi_endproc
 1085              	.LFE85:
 1086              		.size	setDisplay, .-setDisplay
 1087              		.global	__aeabi_dadd
 1088 00f8 AFF30080 		.section	.text.miniLauncher,"ax",%progbits
 1088      AFF30080 
 1089              		.align	2
 1090              		.p2align 4,,15
 1091              		.global	miniLauncher
 1092              		.thumb
 1093              		.thumb_func
 1094              		.type	miniLauncher, %function
 1095              	miniLauncher:
 1096              	.LFB83:
 1097              		.loc 1 712 0
 1098              		.cfi_startproc
 1099              		@ args = 0, pretend = 0, frame = 0
 1100              		@ frame_needed = 0, uses_anonymous_args = 0
 1101 0000 70B5     		push	{r4, r5, r6, lr}
 1102              	.LCFI12:
 1103              		.cfi_def_cfa_offset 16
 1104              		.cfi_offset 4, -16
 1105              		.cfi_offset 5, -12
 1106              		.cfi_offset 6, -8
 1107              		.cfi_offset 14, -4
 1108              		.loc 1 714 0
 1109 0002 FFF7FEFF 		bl	getMiniSpeed
 1110              	.LVL97:
 1111              		.loc 1 716 0
 1112 0006 314B     		ldr	r3, .L125
 1113 0008 1978     		ldrb	r1, [r3, #0]	@ zero_extendqisi2
 1114              		.loc 1 714 0
 1115 000a 314B     		ldr	r3, .L125+4
 1116 000c 1860     		str	r0, [r3, #0]
 1117              		.loc 1 716 0
 1118 000e 39B3     		cbz	r1, .L112
 1119              		.loc 1 718 0
 1120 0010 304D     		ldr	r5, .L125+8
 1121 0012 0022     		movs	r2, #0
 1122 0014 0023     		movs	r3, #0
 1123 0016 C5E90023 		strd	r2, [r5]
 1124 001a 2F4C     		ldr	r4, .L125+12
ARM GAS  /var/folders/pt/gxfsd_x53tx3h6kb8dkzftl80000gr/T//ccmigkr6.s 			page 21


 1125              		.loc 1 719 0
 1126 001c 2F4B     		ldr	r3, .L125+16
 1127 001e 0022     		movs	r2, #0
 1128 0020 1A60     		str	r2, [r3, #0]
 1129 0022 2268     		ldr	r2, [r4, #0]
 1130              	.L113:
 1131              		.loc 1 734 0
 1132 0024 40F2DC53 		movw	r3, #1500
 1133 0028 9A42     		cmp	r2, r3
 1134 002a 03DD     		ble	.L122
 1135              		.loc 1 734 0 is_stmt 0 discriminator 1
 1136 002c 2B4B     		ldr	r3, .L125+16
 1137 002e 1B68     		ldr	r3, [r3, #0]
 1138 0030 FA2B     		cmp	r3, #250
 1139 0032 34D0     		beq	.L119
 1140              	.L122:
 1141 0034 D5E90001 		ldrd	r0, [r5]
 1142              	.L118:
 1143              		.loc 1 754 0 is_stmt 1
 1144 0038 FFF7FEFF 		bl	__aeabi_d2iz
 1145              	.LVL98:
 1146 003c 01B2     		sxth	r1, r0
 1147 003e 0820     		movs	r0, #8
 1148 0040 FFF7FEFF 		bl	vexMotorSet
 1149              	.LVL99:
 1150              		.loc 1 755 0
 1151 0044 D5E90001 		ldrd	r0, [r5]
 1152 0048 FFF7FEFF 		bl	__aeabi_d2iz
 1153              	.LVL100:
 1154 004c 01B2     		sxth	r1, r0
 1155 004e 0420     		movs	r0, #4
 1156 0050 FFF7FEFF 		bl	vexMotorSet
 1157              	.LVL101:
 1158              		.loc 1 757 0
 1159 0054 FFF7FEFF 		bl	setDisplay
 1160              	.LVL102:
 1161              		.loc 1 759 0
 1162 0058 2368     		ldr	r3, [r4, #0]
 1163 005a 1433     		adds	r3, r3, #20
 1164 005c 2360     		str	r3, [r4, #0]
 1165 005e 70BD     		pop	{r4, r5, r6, pc}
 1166              	.L112:
 1167              		.loc 1 721 0
 1168 0060 1F4B     		ldr	r3, .L125+20
 1169 0062 1E78     		ldrb	r6, [r3, #0]	@ zero_extendqisi2
 1170 0064 5EB1     		cbz	r6, .L114
 1171              		.loc 1 724 0
 1172 0066 1C4C     		ldr	r4, .L125+12
 1173              		.loc 1 725 0
 1174 0068 1A4D     		ldr	r5, .L125+8
 1175 006a 1E4B     		ldr	r3, .L125+24
 1176              		.loc 1 723 0
 1177 006c 1B48     		ldr	r0, .L125+16
 1178 006e FA26     		movs	r6, #250
 1179              		.loc 1 725 0
 1180 0070 D3E90023 		ldrd	r2, [r3]
 1181              		.loc 1 723 0
ARM GAS  /var/folders/pt/gxfsd_x53tx3h6kb8dkzftl80000gr/T//ccmigkr6.s 			page 22


 1182 0074 0660     		str	r6, [r0, #0]
 1183              		.loc 1 724 0
 1184 0076 2160     		str	r1, [r4, #0]
 1185              		.loc 1 725 0
 1186 0078 C5E90023 		strd	r2, [r5]
 1187 007c DAE7     		b	.L122
 1188              	.L114:
 1189              		.loc 1 727 0
 1190 007e 1A4B     		ldr	r3, .L125+28
 1191              		.loc 1 730 0
 1192 0080 154C     		ldr	r4, .L125+12
 1193              		.loc 1 727 0
 1194 0082 1B78     		ldrb	r3, [r3, #0]	@ zero_extendqisi2
 1195              		.loc 1 731 0
 1196 0084 134D     		ldr	r5, .L125+8
 1197              		.loc 1 727 0
 1198 0086 93B1     		cbz	r3, .L123
 1199              		.loc 1 731 0
 1200 0088 184B     		ldr	r3, .L125+32
 1201              		.loc 1 729 0
 1202 008a 1449     		ldr	r1, .L125+16
 1203 008c 4FF4AF70 		mov	r0, #350
 1204              		.loc 1 731 0
 1205 0090 D3E90023 		ldrd	r2, [r3]
 1206              		.loc 1 729 0
 1207 0094 0860     		str	r0, [r1, #0]
 1208              		.loc 1 730 0
 1209 0096 2660     		str	r6, [r4, #0]
 1210              		.loc 1 731 0
 1211 0098 C5E90023 		strd	r2, [r5]
 1212 009c CAE7     		b	.L122
 1213              	.L119:
 1214              		.loc 1 736 0
 1215 009e F928     		cmp	r0, #249
 1216 00a0 07DD     		ble	.L124
 1217              		.loc 1 740 0
 1218 00a2 104B     		ldr	r3, .L125+24
 1219 00a4 D3E90001 		ldrd	r0, [r3]
 1220 00a8 C5E90001 		strd	r0, [r5]
 1221 00ac C4E7     		b	.L118
 1222              	.L123:
 1223 00ae 2268     		ldr	r2, [r4, #0]
 1224 00b0 B8E7     		b	.L113
 1225              	.L124:
 1226              		.loc 1 737 0
 1227 00b2 0C49     		ldr	r1, .L125+24
 1228 00b4 0023     		movs	r3, #0
 1229 00b6 0022     		movs	r2, #0
 1230 00b8 C4F22E03 		movt	r3, 16430
 1231 00bc D1E90001 		ldrd	r0, [r1]
 1232 00c0 FFF7FEFF 		bl	__aeabi_dadd
 1233              	.LVL103:
 1234 00c4 C5E90001 		strd	r0, [r5]
 1235 00c8 B6E7     		b	.L118
 1236              	.L126:
 1237 00ca 00BF     		.align	2
 1238              	.L125:
ARM GAS  /var/folders/pt/gxfsd_x53tx3h6kb8dkzftl80000gr/T//ccmigkr6.s 			page 23


 1239 00cc 00000000 		.word	.LANCHOR12
 1240 00d0 00000000 		.word	.LANCHOR23
 1241 00d4 00000000 		.word	.LANCHOR24
 1242 00d8 00000000 		.word	.LANCHOR21
 1243 00dc 00000000 		.word	.LANCHOR20
 1244 00e0 00000000 		.word	.LANCHOR15
 1245 00e4 00000000 		.word	.LANCHOR25
 1246 00e8 00000000 		.word	.LANCHOR18
 1247 00ec 00000000 		.word	.LANCHOR26
 1248              		.cfi_endproc
 1249              	.LFE83:
 1250              		.size	miniLauncher, .-miniLauncher
 1251              		.section	.text.anythingPressed,"ax",%progbits
 1252              		.align	2
 1253              		.p2align 4,,15
 1254              		.global	anythingPressed
 1255              		.thumb
 1256              		.thumb_func
 1257              		.type	anythingPressed, %function
 1258              	anythingPressed:
 1259              	.LFB86:
 1260              		.loc 1 838 0
 1261              		.cfi_startproc
 1262              		@ args = 0, pretend = 0, frame = 0
 1263              		@ frame_needed = 0, uses_anonymous_args = 0
 1264              		.loc 1 839 0
 1265 0000 0020     		movs	r0, #0
 1266              		.loc 1 838 0
 1267 0002 08B5     		push	{r3, lr}
 1268              	.LCFI13:
 1269              		.cfi_def_cfa_offset 8
 1270              		.cfi_offset 3, -8
 1271              		.cfi_offset 14, -4
 1272              		.loc 1 839 0
 1273 0004 FFF7FEFF 		bl	vexControllerGet
 1274              	.LVL104:
 1275 0008 0028     		cmp	r0, #0
 1276 000a B8BF     		it	lt
 1277 000c 4042     		rsblt	r0, r0, #0
 1278 000e 0A28     		cmp	r0, #10
 1279 0010 01DD     		ble	.L128
 1280              	.L132:
 1281              	.LBB33:
 1282              	.LBB34:
 1283              		.loc 1 842 0
 1284 0012 0120     		movs	r0, #1
 1285              	.LBE34:
 1286              	.LBE33:
 1287              		.loc 1 844 0
 1288 0014 08BD     		pop	{r3, pc}
 1289              	.L128:
 1290              		.loc 1 839 0 discriminator 1
 1291 0016 0120     		movs	r0, #1
 1292 0018 FFF7FEFF 		bl	vexControllerGet
 1293              	.LVL105:
 1294 001c 0028     		cmp	r0, #0
 1295 001e B8BF     		it	lt
ARM GAS  /var/folders/pt/gxfsd_x53tx3h6kb8dkzftl80000gr/T//ccmigkr6.s 			page 24


 1296 0020 4042     		rsblt	r0, r0, #0
 1297 0022 0A28     		cmp	r0, #10
 1298 0024 F5DC     		bgt	.L132
 1299 0026 0220     		movs	r0, #2
 1300 0028 FFF7FEFF 		bl	vexControllerGet
 1301              	.LVL106:
 1302 002c 0028     		cmp	r0, #0
 1303 002e B8BF     		it	lt
 1304 0030 4042     		rsblt	r0, r0, #0
 1305 0032 0A28     		cmp	r0, #10
 1306 0034 EDDC     		bgt	.L132
 1307 0036 0320     		movs	r0, #3
 1308 0038 FFF7FEFF 		bl	vexControllerGet
 1309              	.LVL107:
 1310 003c 0028     		cmp	r0, #0
 1311 003e B8BF     		it	lt
 1312 0040 4042     		rsblt	r0, r0, #0
 1313 0042 0A28     		cmp	r0, #10
 1314 0044 E5DC     		bgt	.L132
 1315              		.loc 1 841 0
 1316 0046 0D20     		movs	r0, #13
 1317 0048 FFF7FEFF 		bl	vexControllerGet
 1318              	.LVL108:
 1319 004c 0028     		cmp	r0, #0
 1320 004e E0D1     		bne	.L132
 1321              		.loc 1 841 0 is_stmt 0 discriminator 1
 1322 0050 0C20     		movs	r0, #12
 1323 0052 FFF7FEFF 		bl	vexControllerGet
 1324              	.LVL109:
 1325 0056 0028     		cmp	r0, #0
 1326 0058 DBD1     		bne	.L132
 1327              	.LBB36:
 1328              	.LBB35:
 1329              		.loc 1 841 0
 1330 005a 0F20     		movs	r0, #15
 1331 005c FFF7FEFF 		bl	vexControllerGet
 1332              	.LVL110:
 1333 0060 0028     		cmp	r0, #0
 1334 0062 D6D1     		bne	.L132
 1335 0064 0E20     		movs	r0, #14
 1336 0066 FFF7FEFF 		bl	vexControllerGet
 1337              	.LVL111:
 1338 006a 0030     		adds	r0, r0, #0
 1339 006c 18BF     		it	ne
 1340 006e 0120     		movne	r0, #1
 1341 0070 08BD     		pop	{r3, pc}
 1342              	.LBE35:
 1343              	.LBE36:
 1344              		.cfi_endproc
 1345              	.LFE86:
 1346              		.size	anythingPressed, .-anythingPressed
 1347 0072 00BFAFF3 		.section	.text.move,"ax",%progbits
 1347      0080AFF3 
 1347      0080AFF3 
 1347      0080
 1348              		.align	2
 1349              		.p2align 4,,15
ARM GAS  /var/folders/pt/gxfsd_x53tx3h6kb8dkzftl80000gr/T//ccmigkr6.s 			page 25


 1350              		.global	move
 1351              		.thumb
 1352              		.thumb_func
 1353              		.type	move, %function
 1354              	move:
 1355              	.LFB68:
 1356              		.loc 1 251 0 is_stmt 1
 1357              		.cfi_startproc
 1358              		@ args = 0, pretend = 0, frame = 8
 1359              		@ frame_needed = 0, uses_anonymous_args = 0
 1360              	.LVL112:
 1361 0000 2DE9F04F 		push	{r4, r5, r6, r7, r8, r9, sl, fp, lr}
 1362              	.LCFI14:
 1363              		.cfi_def_cfa_offset 36
 1364              		.cfi_offset 4, -36
 1365              		.cfi_offset 5, -32
 1366              		.cfi_offset 6, -28
 1367              		.cfi_offset 7, -24
 1368              		.cfi_offset 8, -20
 1369              		.cfi_offset 9, -16
 1370              		.cfi_offset 10, -12
 1371              		.cfi_offset 11, -8
 1372              		.cfi_offset 14, -4
 1373 0004 0F46     		mov	r7, r1
 1374 0006 83B0     		sub	sp, sp, #12
 1375              	.LCFI15:
 1376              		.cfi_def_cfa_offset 48
 1377              		.loc 1 251 0
 1378 0008 0646     		mov	r6, r0
 1379              		.loc 1 252 0
 1380 000a 0021     		movs	r1, #0
 1381              	.LVL113:
 1382 000c 0120     		movs	r0, #1
 1383              	.LVL114:
 1384 000e FFF7FEFF 		bl	vexMotorPositionSet
 1385              	.LVL115:
 1386              		.loc 1 260 0
 1387 0012 4FF00008 		mov	r8, #0
 1388              		.loc 1 253 0
 1389 0016 0520     		movs	r0, #5
 1390 0018 0021     		movs	r1, #0
 1391 001a FFF7FEFF 		bl	vexMotorPositionSet
 1392              	.LVL116:
 1393              		.loc 1 259 0
 1394 001e C146     		mov	r9, r8
 1395              		.loc 1 296 0
 1396 0020 87EAE77A 		eor	sl, r7, r7, asr #31
 1397 0024 AAEBE77A 		sub	sl, sl, r7, asr #31
 1398              		.loc 1 299 0
 1399 0028 BE42     		cmp	r6, r7
 1400 002a 14BF     		ite	ne
 1401 002c 4FF02D0B 		movne	fp, #45
 1402 0030 4FF02F0B 		moveq	fp, #47
 1403 0034 5BE0     		b	.L152
 1404              	.LVL117:
 1405              	.L167:
 1406              		.loc 1 279 0
ARM GAS  /var/folders/pt/gxfsd_x53tx3h6kb8dkzftl80000gr/T//ccmigkr6.s 			page 26


 1407 0036 0120     		movs	r0, #1
 1408 0038 0193     		str	r3, [sp, #4]
 1409 003a FFF7FEFF 		bl	vexMotorPositionGet
 1410              	.LVL118:
 1411 003e 0028     		cmp	r0, #0
 1412 0040 B8BF     		it	lt
 1413 0042 4042     		rsblt	r0, r0, #0
 1414 0044 FFF7FEFF 		bl	__aeabi_i2d
 1415              	.LVL119:
 1416 0048 019B     		ldr	r3, [sp, #4]
 1417 004a 0446     		mov	r4, r0
 1418 004c 1846     		mov	r0, r3
 1419 004e 0D46     		mov	r5, r1
 1420 0050 FFF7FEFF 		bl	__aeabi_i2d
 1421              	.LVL120:
 1422 0054 0246     		mov	r2, r0
 1423 0056 0B46     		mov	r3, r1
 1424 0058 2046     		mov	r0, r4
 1425 005a 2946     		mov	r1, r5
 1426 005c FFF7FEFF 		bl	__aeabi_ddiv
 1427              	.LVL121:
 1428 0060 0446     		mov	r4, r0
 1429 0062 0D46     		mov	r5, r1
 1430              	.LVL122:
 1431              		.loc 1 280 0
 1432 0064 5846     		mov	r0, fp
 1433 0066 FFF7FEFF 		bl	__aeabi_i2d
 1434              	.LVL123:
 1435 006a 2246     		mov	r2, r4
 1436 006c 2B46     		mov	r3, r5
 1437 006e FFF7FEFF 		bl	__aeabi_dmul
 1438              	.LVL124:
 1439 0072 FFF7FEFF 		bl	__aeabi_d2iz
 1440              	.LVL125:
 1441 0076 C0F15500 		rsb	r0, r0, #85
 1442 007a FFF7FEFF 		bl	__aeabi_i2d
 1443              	.LVL126:
 1444 007e FFF7FEFF 		bl	__aeabi_d2iz
 1445              	.LVL127:
 1446              	.LBB37:
 1447              	.LBB38:
 1448              		.loc 1 582 0
 1449 0082 002E     		cmp	r6, #0
 1450 0084 C8BF     		it	gt
 1451 0086 81B2     		uxthgt	r1, r0
 1452 0088 40F3A480 		ble	.L164
 1453              	.L139:
 1454              	.LBE38:
 1455              	.LBE37:
 1456              		.loc 1 281 0
 1457 008c 0120     		movs	r0, #1
 1458              	.LVL128:
 1459 008e 09B2     		sxth	r1, r1
 1460 0090 FFF7FEFF 		bl	vexMotorSet
 1461              	.LVL129:
 1462              		.loc 1 284 0
 1463 0094 002F     		cmp	r7, #0
ARM GAS  /var/folders/pt/gxfsd_x53tx3h6kb8dkzftl80000gr/T//ccmigkr6.s 			page 27


 1464 0096 3ED1     		bne	.L140
 1465              		.loc 1 286 0
 1466 0098 0023     		movs	r3, #0
 1467 009a 0022     		movs	r2, #0
 1468 009c C4F22403 		movt	r3, 16420
 1469 00a0 2046     		mov	r0, r4
 1470 00a2 2946     		mov	r1, r5
 1471 00a4 FFF7FEFF 		bl	__aeabi_dmul
 1472              	.LVL130:
 1473 00a8 FFF7FEFF 		bl	__aeabi_d2iz
 1474              	.LVL131:
 1475              	.LBB40:
 1476              	.LBB41:
 1477              		.loc 1 582 0
 1478 00ac 002E     		cmp	r6, #0
 1479              	.LBE41:
 1480              	.LBE40:
 1481              		.loc 1 286 0
 1482 00ae C0F12600 		rsb	r0, r0, #38
 1483              	.LVL132:
 1484              	.LBB44:
 1485              	.LBB42:
 1486              		.loc 1 582 0
 1487 00b2 40F3A080 		ble	.L141
 1488 00b6 4142     		negs	r1, r0
 1489 00b8 89B2     		uxth	r1, r1
 1490              	.L142:
 1491              	.LBE42:
 1492              	.LBE44:
 1493              		.loc 1 287 0
 1494 00ba 0520     		movs	r0, #5
 1495              	.LVL133:
 1496 00bc 09B2     		sxth	r1, r1
 1497 00be FFF7FEFF 		bl	vexMotorSet
 1498              	.LVL134:
 1499              	.L143:
 1500              		.loc 1 296 0
 1501 00c2 0520     		movs	r0, #5
 1502 00c4 FFF7FEFF 		bl	vexMotorPositionGet
 1503              	.LVL135:
 1504              	.L145:
 1505              		.loc 1 311 0
 1506 00c8 0520     		movs	r0, #5
 1507 00ca 0021     		movs	r1, #0
 1508 00cc FFF7FEFF 		bl	vexMotorSet
 1509              	.LVL136:
 1510              		.loc 1 312 0
 1511 00d0 4FF00108 		mov	r8, #1
 1512              	.LVL137:
 1513              	.L148:
 1514              		.loc 1 319 0
 1515 00d4 FFF7FEFF 		bl	miniLauncher
 1516              	.LVL138:
 1517              		.loc 1 322 0
 1518 00d8 FFF7FEFF 		bl	anythingPressed
 1519              	.LVL139:
 1520 00dc 0028     		cmp	r0, #0
ARM GAS  /var/folders/pt/gxfsd_x53tx3h6kb8dkzftl80000gr/T//ccmigkr6.s 			page 28


 1521 00de 6ED1     		bne	.L133
 1522              	.LVL140:
 1523              	.L170:
 1524              		.loc 1 268 0 discriminator 1
 1525 00e0 88F00102 		eor	r2, r8, #1
 1526 00e4 89F00103 		eor	r3, r9, #1
 1527 00e8 1343     		orrs	r3, r2, r3
 1528 00ea 00F08880 		beq	.L165
 1529              	.LVL141:
 1530              	.L152:
 1531              	.LBB45:
 1532              	.LBB46:
 1533              		.loc 1 582 0
 1534 00ee 002E     		cmp	r6, #0
 1535 00f0 68DD     		ble	.L166
 1536              		.loc 1 583 0
 1537 00f2 0124     		movs	r4, #1
 1538              	.L135:
 1539              	.LBE46:
 1540              	.LBE45:
 1541              		.loc 1 270 0
 1542 00f4 0120     		movs	r0, #1
 1543 00f6 FFF7FEFF 		bl	vexMotorPositionGet
 1544              	.LVL142:
 1545 00fa 04FB00F0 		mul	r0, r4, r0
 1546 00fe 86EAE673 		eor	r3, r6, r6, asr #31
 1547 0102 A3EBE673 		sub	r3, r3, r6, asr #31
 1548 0106 9842     		cmp	r0, r3
 1549 0108 95DB     		blt	.L167
 1550              	.L137:
 1551              		.loc 1 292 0
 1552 010a 0120     		movs	r0, #1
 1553 010c 0021     		movs	r1, #0
 1554 010e FFF7FEFF 		bl	vexMotorSet
 1555              	.LVL143:
 1556              		.loc 1 293 0
 1557 0112 4FF00109 		mov	r9, #1
 1558              	.LVL144:
 1559              	.L140:
 1560              	.LBB48:
 1561              	.LBB49:
 1562              		.loc 1 582 0
 1563 0116 002F     		cmp	r7, #0
 1564 0118 C8BF     		it	gt
 1565 011a 4FF0FF34 		movgt	r4, #-1
 1566 011e 77DD     		ble	.L168
 1567              	.L144:
 1568              	.LBE49:
 1569              	.LBE48:
 1570              		.loc 1 296 0
 1571 0120 0520     		movs	r0, #5
 1572 0122 FFF7FEFF 		bl	vexMotorPositionGet
 1573              	.LVL145:
 1574 0126 04FB00F0 		mul	r0, r4, r0
 1575 012a 5045     		cmp	r0, sl
 1576 012c CCDA     		bge	.L145
 1577              		.loc 1 298 0
ARM GAS  /var/folders/pt/gxfsd_x53tx3h6kb8dkzftl80000gr/T//ccmigkr6.s 			page 29


 1578 012e 0520     		movs	r0, #5
 1579 0130 FFF7FEFF 		bl	vexMotorPositionGet
 1580              	.LVL146:
 1581 0134 0028     		cmp	r0, #0
 1582 0136 B8BF     		it	lt
 1583 0138 4042     		rsblt	r0, r0, #0
 1584 013a FFF7FEFF 		bl	__aeabi_i2d
 1585              	.LVL147:
 1586 013e 0446     		mov	r4, r0
 1587 0140 5046     		mov	r0, sl
 1588 0142 0D46     		mov	r5, r1
 1589 0144 FFF7FEFF 		bl	__aeabi_i2d
 1590              	.LVL148:
 1591 0148 0246     		mov	r2, r0
 1592 014a 0B46     		mov	r3, r1
 1593 014c 2046     		mov	r0, r4
 1594 014e 2946     		mov	r1, r5
 1595 0150 FFF7FEFF 		bl	__aeabi_ddiv
 1596              	.LVL149:
 1597 0154 0446     		mov	r4, r0
 1598 0156 0D46     		mov	r5, r1
 1599              	.LVL150:
 1600              		.loc 1 299 0
 1601 0158 5846     		mov	r0, fp
 1602 015a FFF7FEFF 		bl	__aeabi_i2d
 1603              	.LVL151:
 1604 015e 2246     		mov	r2, r4
 1605 0160 2B46     		mov	r3, r5
 1606 0162 FFF7FEFF 		bl	__aeabi_dmul
 1607              	.LVL152:
 1608 0166 FFF7FEFF 		bl	__aeabi_d2iz
 1609              	.LVL153:
 1610 016a C0F15500 		rsb	r0, r0, #85
 1611 016e FFF7FEFF 		bl	__aeabi_i2d
 1612              	.LVL154:
 1613 0172 FFF7FEFF 		bl	__aeabi_d2iz
 1614              	.LVL155:
 1615              	.LBB51:
 1616              	.LBB52:
 1617              		.loc 1 582 0
 1618 0176 002F     		cmp	r7, #0
 1619 0178 C8BF     		it	gt
 1620 017a 81B2     		uxthgt	r1, r0
 1621 017c 31DD     		ble	.L169
 1622              	.L147:
 1623              	.LBE52:
 1624              	.LBE51:
 1625              		.loc 1 300 0
 1626 017e 0520     		movs	r0, #5
 1627              	.LVL156:
 1628 0180 09B2     		sxth	r1, r1
 1629 0182 FFF7FEFF 		bl	vexMotorSet
 1630              	.LVL157:
 1631              		.loc 1 303 0
 1632 0186 002E     		cmp	r6, #0
 1633 0188 A4D1     		bne	.L148
 1634              		.loc 1 305 0
ARM GAS  /var/folders/pt/gxfsd_x53tx3h6kb8dkzftl80000gr/T//ccmigkr6.s 			page 30


 1635 018a 0023     		movs	r3, #0
 1636 018c 0022     		movs	r2, #0
 1637 018e C4F22403 		movt	r3, 16420
 1638 0192 2046     		mov	r0, r4
 1639 0194 2946     		mov	r1, r5
 1640 0196 FFF7FEFF 		bl	__aeabi_dmul
 1641              	.LVL158:
 1642 019a FFF7FEFF 		bl	__aeabi_d2iz
 1643              	.LVL159:
 1644              	.LBB54:
 1645              	.LBB55:
 1646              		.loc 1 582 0
 1647 019e 002F     		cmp	r7, #0
 1648              	.LBE55:
 1649              	.LBE54:
 1650              		.loc 1 305 0
 1651 01a0 C0F12600 		rsb	r0, r0, #38
 1652              	.LVL160:
 1653              	.LBB58:
 1654              	.LBB56:
 1655              		.loc 1 582 0
 1656 01a4 23DD     		ble	.L149
 1657 01a6 4142     		negs	r1, r0
 1658 01a8 89B2     		uxth	r1, r1
 1659              	.L150:
 1660              	.LBE56:
 1661              	.LBE58:
 1662              		.loc 1 306 0
 1663 01aa 0120     		movs	r0, #1
 1664              	.LVL161:
 1665 01ac 09B2     		sxth	r1, r1
 1666 01ae FFF7FEFF 		bl	vexMotorSet
 1667              	.LVL162:
 1668              		.loc 1 319 0
 1669 01b2 FFF7FEFF 		bl	miniLauncher
 1670              	.LVL163:
 1671              		.loc 1 322 0
 1672 01b6 FFF7FEFF 		bl	anythingPressed
 1673              	.LVL164:
 1674 01ba 0028     		cmp	r0, #0
 1675 01bc 90D0     		beq	.L170
 1676              	.LVL165:
 1677              	.L133:
 1678              		.loc 1 337 0
 1679 01be 03B0     		add	sp, sp, #12
 1680 01c0 BDE8F08F 		pop	{r4, r5, r6, r7, r8, r9, sl, fp, pc}
 1681              	.L166:
 1682              	.LBB59:
 1683              	.LBB47:
 1684              		.loc 1 585 0
 1685 01c4 18BF     		it	ne
 1686 01c6 4FF0FF34 		movne	r4, #-1
 1687              		.loc 1 584 0
 1688 01ca 93D1     		bne	.L135
 1689              	.LBE47:
 1690              	.LBE59:
 1691              		.loc 1 270 0
ARM GAS  /var/folders/pt/gxfsd_x53tx3h6kb8dkzftl80000gr/T//ccmigkr6.s 			page 31


 1692 01cc 0120     		movs	r0, #1
 1693 01ce FFF7FEFF 		bl	vexMotorPositionGet
 1694              	.LVL166:
 1695 01d2 9AE7     		b	.L137
 1696              	.LVL167:
 1697              	.L164:
 1698              	.LBB60:
 1699              	.LBB39:
 1700              		.loc 1 584 0
 1701 01d4 08BF     		it	eq
 1702 01d6 3146     		moveq	r1, r6
 1703 01d8 3FF458AF 		beq	.L139
 1704 01dc 4142     		negs	r1, r0
 1705 01de 89B2     		uxth	r1, r1
 1706 01e0 54E7     		b	.L139
 1707              	.LVL168:
 1708              	.L169:
 1709              	.LBE39:
 1710              	.LBE60:
 1711              	.LBB61:
 1712              	.LBB53:
 1713 01e2 08BF     		it	eq
 1714 01e4 3946     		moveq	r1, r7
 1715 01e6 CAD0     		beq	.L147
 1716 01e8 4142     		negs	r1, r0
 1717 01ea 89B2     		uxth	r1, r1
 1718 01ec C7E7     		b	.L147
 1719              	.LVL169:
 1720              	.L149:
 1721 01ee 14BF     		ite	ne
 1722 01f0 81B2     		uxthne	r1, r0
 1723              	.LBE53:
 1724              	.LBE61:
 1725              	.LBB62:
 1726              	.LBB57:
 1727 01f2 3946     		moveq	r1, r7
 1728 01f4 D9E7     		b	.L150
 1729              	.LVL170:
 1730              	.L141:
 1731 01f6 14BF     		ite	ne
 1732 01f8 81B2     		uxthne	r1, r0
 1733              	.LBE57:
 1734              	.LBE62:
 1735              	.LBB63:
 1736              	.LBB43:
 1737 01fa 3146     		moveq	r1, r6
 1738 01fc 5DE7     		b	.L142
 1739              	.LVL171:
 1740              	.L165:
 1741              	.LBE43:
 1742              	.LBE63:
 1743              		.loc 1 268 0
 1744 01fe 0C24     		movs	r4, #12
 1745              	.L153:
 1746              	.LBB64:
 1747              		.loc 1 333 0 discriminator 2
 1748 0200 1920     		movs	r0, #25
ARM GAS  /var/folders/pt/gxfsd_x53tx3h6kb8dkzftl80000gr/T//ccmigkr6.s 			page 32


 1749 0202 FFF7FEFF 		bl	vexSleep
 1750              	.LVL172:
 1751              		.loc 1 334 0 discriminator 2
 1752 0206 FFF7FEFF 		bl	miniLauncher
 1753              	.LVL173:
 1754              		.loc 1 331 0 discriminator 2
 1755 020a 013C     		subs	r4, r4, #1
 1756 020c F8D1     		bne	.L153
 1757 020e D6E7     		b	.L133
 1758              	.LVL174:
 1759              	.L168:
 1760              	.LBE64:
 1761              	.LBB65:
 1762              	.LBB50:
 1763              		.loc 1 584 0
 1764 0210 3FF457AF 		beq	.L143
 1765 0214 0124     		movs	r4, #1
 1766 0216 83E7     		b	.L144
 1767              	.LBE50:
 1768              	.LBE65:
 1769              		.cfi_endproc
 1770              	.LFE68:
 1771              		.size	move, .-move
 1772 0218 AFF30080 		.section	.text.autonAssesment,"ax",%progbits
 1772      AFF30080 
 1773              		.align	2
 1774              		.p2align 4,,15
 1775              		.global	autonAssesment
 1776              		.thumb
 1777              		.thumb_func
 1778              		.type	autonAssesment, %function
 1779              	autonAssesment:
 1780              	.LFB74:
 1781              		.loc 1 513 0
 1782              		.cfi_startproc
 1783              		@ args = 0, pretend = 0, frame = 0
 1784              		@ frame_needed = 0, uses_anonymous_args = 0
 1785 0000 10B5     		push	{r4, lr}
 1786              	.LCFI16:
 1787              		.cfi_def_cfa_offset 8
 1788              		.cfi_offset 4, -8
 1789              		.cfi_offset 14, -4
 1790              		.loc 1 524 0
 1791 0002 4FF60C64 		movw	r4, #65036
 1792              		.loc 1 523 0
 1793 0006 0020     		movs	r0, #0
 1794              		.loc 1 524 0
 1795 0008 CFF6FF74 		movt	r4, 65535
 1796              		.loc 1 523 0
 1797 000c 4FF4FA71 		mov	r1, #500
 1798 0010 FFF7FEFF 		bl	move
 1799              	.LVL175:
 1800              		.loc 1 524 0
 1801 0014 2046     		mov	r0, r4
 1802 0016 0021     		movs	r1, #0
 1803 0018 FFF7FEFF 		bl	move
 1804              	.LVL176:
ARM GAS  /var/folders/pt/gxfsd_x53tx3h6kb8dkzftl80000gr/T//ccmigkr6.s 			page 33


 1805              		.loc 1 525 0
 1806 001c FA21     		movs	r1, #250
 1807 001e 6FF0F900 		mvn	r0, #249
 1808 0022 FFF7FEFF 		bl	move
 1809              	.LVL177:
 1810              		.loc 1 528 0
 1811 0026 0021     		movs	r1, #0
 1812 0028 4FF4FA70 		mov	r0, #500
 1813 002c FFF7FEFF 		bl	move
 1814              	.LVL178:
 1815              		.loc 1 529 0
 1816 0030 0020     		movs	r0, #0
 1817 0032 2146     		mov	r1, r4
 1818 0034 FFF7FEFF 		bl	move
 1819              	.LVL179:
 1820              		.loc 1 530 0
 1821 0038 FA20     		movs	r0, #250
 1822 003a 6FF0F901 		mvn	r1, #249
 1823              		.loc 1 531 0
 1824 003e BDE81040 		pop	{r4, lr}
 1825              		.loc 1 530 0
 1826 0042 FFF7FEBF 		b	move
 1827              	.LVL180:
 1828              		.cfi_endproc
 1829              	.LFE74:
 1830              		.size	autonAssesment, .-autonAssesment
 1831 0046 00BFAFF3 		.section	.text.leftAuton,"ax",%progbits
 1831      0080AFF3 
 1831      0080
 1832              		.align	2
 1833              		.p2align 4,,15
 1834              		.global	leftAuton
 1835              		.thumb
 1836              		.thumb_func
 1837              		.type	leftAuton, %function
 1838              	leftAuton:
 1839              	.LFB73:
 1840              		.loc 1 491 0
 1841              		.cfi_startproc
 1842              		@ args = 0, pretend = 0, frame = 0
 1843              		@ frame_needed = 0, uses_anonymous_args = 0
 1844              		.loc 1 499 0
 1845 0000 D220     		movs	r0, #210
 1846              		.loc 1 491 0
 1847 0002 08B5     		push	{r3, lr}
 1848              	.LCFI17:
 1849              		.cfi_def_cfa_offset 8
 1850              		.cfi_offset 3, -8
 1851              		.cfi_offset 14, -4
 1852              		.loc 1 499 0
 1853 0004 6FF0D101 		mvn	r1, #209
 1854 0008 FFF7FEFF 		bl	move
 1855              	.LVL181:
 1856              		.loc 1 502 0
 1857 000c 0220     		movs	r0, #2
 1858              		.loc 1 503 0
 1859 000e BDE80840 		pop	{r3, lr}
ARM GAS  /var/folders/pt/gxfsd_x53tx3h6kb8dkzftl80000gr/T//ccmigkr6.s 			page 34


 1860              		.loc 1 502 0
 1861 0012 FFF7FEBF 		b	launch
 1862              	.LVL182:
 1863              		.cfi_endproc
 1864              	.LFE73:
 1865              		.size	leftAuton, .-leftAuton
 1866 0016 00BFAFF3 		.section	.text.rightAuton,"ax",%progbits
 1866      0080AFF3 
 1866      0080
 1867              		.align	2
 1868              		.p2align 4,,15
 1869              		.global	rightAuton
 1870              		.thumb
 1871              		.thumb_func
 1872              		.type	rightAuton, %function
 1873              	rightAuton:
 1874              	.LFB71:
 1875              		.loc 1 411 0
 1876              		.cfi_startproc
 1877              		@ args = 0, pretend = 0, frame = 0
 1878              		@ frame_needed = 0, uses_anonymous_args = 0
 1879              		.loc 1 418 0
 1880 0000 4FF6DE60 		movw	r0, #65246
 1881              		.loc 1 411 0
 1882 0004 08B5     		push	{r3, lr}
 1883              	.LCFI18:
 1884              		.cfi_def_cfa_offset 8
 1885              		.cfi_offset 3, -8
 1886              		.cfi_offset 14, -4
 1887              		.loc 1 418 0
 1888 0006 CFF6FF70 		movt	r0, 65535
 1889 000a 4FF49171 		mov	r1, #290
 1890 000e FFF7FEFF 		bl	move
 1891              	.LVL183:
 1892              		.loc 1 421 0
 1893 0012 0120     		movs	r0, #1
 1894              		.loc 1 437 0
 1895 0014 BDE80840 		pop	{r3, lr}
 1896              		.loc 1 421 0
 1897 0018 FFF7FEBF 		b	launch
 1898              	.LVL184:
 1899              		.cfi_endproc
 1900              	.LFE71:
 1901              		.size	rightAuton, .-rightAuton
 1902 001c AFF30080 		.section	.text.vexAutonomous,"ax",%progbits
 1903              		.align	2
 1904              		.p2align 4,,15
 1905              		.global	vexAutonomous
 1906              		.thumb
 1907              		.thumb_func
 1908              		.type	vexAutonomous, %function
 1909              	vexAutonomous:
 1910              	.LFB65:
 1911              		.loc 1 174 0
 1912              		.cfi_startproc
 1913              		@ args = 0, pretend = 0, frame = 0
 1914              		@ frame_needed = 0, uses_anonymous_args = 0
ARM GAS  /var/folders/pt/gxfsd_x53tx3h6kb8dkzftl80000gr/T//ccmigkr6.s 			page 35


 1915              	.LVL185:
 1916              		.loc 1 178 0
 1917 0000 40F20000 		movw	r0, #:lower16:.LC5
 1918              	.LVL186:
 1919              		.loc 1 174 0
 1920 0004 08B5     		push	{r3, lr}
 1921              	.LCFI19:
 1922              		.cfi_def_cfa_offset 8
 1923              		.cfi_offset 3, -8
 1924              		.cfi_offset 14, -4
 1925              		.loc 1 178 0
 1926 0006 C0F20000 		movt	r0, #:upper16:.LC5
 1927 000a FFF7FEFF 		bl	vexTaskRegister
 1928              	.LVL187:
 1929              		.loc 1 180 0
 1930 000e FFF7FEFF 		bl	rightAuton
 1931              	.LVL188:
 1932              		.loc 1 183 0
 1933 0012 40F20003 		movw	r3, #:lower16:.LANCHOR6
 1934 0016 0020     		movs	r0, #0
 1935 0018 C0F20003 		movt	r3, #:upper16:.LANCHOR6
 1936 001c 1870     		strb	r0, [r3, #0]
 1937              		.loc 1 186 0
 1938 001e 08BD     		pop	{r3, pc}
 1939              		.cfi_endproc
 1940              	.LFE65:
 1941              		.size	vexAutonomous, .-vexAutonomous
 1942              		.section	.text.programingSkills,"ax",%progbits
 1943              		.align	2
 1944              		.p2align 4,,15
 1945              		.global	programingSkills
 1946              		.thumb
 1947              		.thumb_func
 1948              		.type	programingSkills, %function
 1949              	programingSkills:
 1950              	.LFB70:
 1951              		.loc 1 382 0
 1952              		.cfi_startproc
 1953              		@ args = 0, pretend = 0, frame = 0
 1954              		@ frame_needed = 0, uses_anonymous_args = 0
 1955              		.loc 1 390 0
 1956 0000 4FF6FC60 		movw	r0, #65276
 1957              		.loc 1 382 0
 1958 0004 08B5     		push	{r3, lr}
 1959              	.LCFI20:
 1960              		.cfi_def_cfa_offset 8
 1961              		.cfi_offset 3, -8
 1962              		.cfi_offset 14, -4
 1963              		.loc 1 390 0
 1964 0006 4FF48271 		mov	r1, #260
 1965 000a CFF6FF70 		movt	r0, 65535
 1966 000e FFF7FEFF 		bl	move
 1967              	.LVL189:
 1968              		.loc 1 392 0
 1969 0012 2020     		movs	r0, #32
 1970 0014 FFF7FEFF 		bl	launch
 1971              	.LVL190:
ARM GAS  /var/folders/pt/gxfsd_x53tx3h6kb8dkzftl80000gr/T//ccmigkr6.s 			page 36


 1972              		.loc 1 398 0
 1973 0018 DA20     		movs	r0, #218
 1974 001a 6FF0D901 		mvn	r1, #217
 1975 001e FFF7FEFF 		bl	move
 1976              	.LVL191:
 1977              		.loc 1 399 0
 1978 0022 4FF46160 		mov	r0, #3600
 1979 0026 0146     		mov	r1, r0
 1980 0028 FFF7FEFF 		bl	move
 1981              	.LVL192:
 1982              		.loc 1 400 0
 1983 002c 4FF63050 		movw	r0, #64816
 1984 0030 CFF6FF70 		movt	r0, 65535
 1985 0034 4FF43471 		mov	r1, #720
 1986 0038 FFF7FEFF 		bl	move
 1987              	.LVL193:
 1988              		.loc 1 401 0
 1989 003c 2220     		movs	r0, #34
 1990              		.loc 1 402 0
 1991 003e BDE80840 		pop	{r3, lr}
 1992              		.loc 1 401 0
 1993 0042 FFF7FEBF 		b	launch
 1994              	.LVL194:
 1995              		.cfi_endproc
 1996              	.LFE70:
 1997              		.size	programingSkills, .-programingSkills
 1998 0046 00BFAFF3 		.section	.text.autonTest,"ax",%progbits
 1998      0080AFF3 
 1998      0080
 1999              		.align	2
 2000              		.p2align 4,,15
 2001              		.global	autonTest
 2002              		.thumb
 2003              		.thumb_func
 2004              		.type	autonTest, %function
 2005              	autonTest:
 2006              	.LFB82:
 2007              		.loc 1 687 0
 2008              		.cfi_startproc
 2009              		@ args = 0, pretend = 0, frame = 0
 2010              		@ frame_needed = 0, uses_anonymous_args = 0
 2011 0000 08B5     		push	{r3, lr}
 2012              	.LCFI21:
 2013              		.cfi_def_cfa_offset 8
 2014              		.cfi_offset 3, -8
 2015              		.cfi_offset 14, -4
 2016              		.loc 1 688 0
 2017 0002 0D4B     		ldr	r3, .L194
 2018 0004 1B78     		ldrb	r3, [r3, #0]	@ zero_extendqisi2
 2019 0006 03B9     		cbnz	r3, .L191
 2020              	.L176:
 2021 0008 08BD     		pop	{r3, pc}
 2022              	.L191:
 2023              		.loc 1 690 0
 2024 000a 0720     		movs	r0, #7
 2025 000c FFF7FEFF 		bl	vexControllerGet
 2026              	.LVL195:
ARM GAS  /var/folders/pt/gxfsd_x53tx3h6kb8dkzftl80000gr/T//ccmigkr6.s 			page 37


 2027 0010 78B9     		cbnz	r0, .L192
 2028              	.L179:
 2029              		.loc 1 693 0
 2030 0012 0520     		movs	r0, #5
 2031 0014 FFF7FEFF 		bl	vexControllerGet
 2032              	.LVL196:
 2033 0018 40B9     		cbnz	r0, .L193
 2034              	.L180:
 2035              		.loc 1 696 0
 2036 001a 0920     		movs	r0, #9
 2037 001c FFF7FEFF 		bl	vexControllerGet
 2038              	.LVL197:
 2039 0020 0028     		cmp	r0, #0
 2040 0022 F1D0     		beq	.L176
 2041              		.loc 1 702 0
 2042 0024 BDE80840 		pop	{r3, lr}
 2043              		.loc 1 697 0
 2044 0028 FFF7FEBF 		b	programingSkills
 2045              	.LVL198:
 2046              	.L193:
 2047              		.loc 1 694 0
 2048 002c FFF7FEFF 		bl	leftAuton
 2049              	.LVL199:
 2050 0030 F3E7     		b	.L180
 2051              	.L192:
 2052              		.loc 1 691 0
 2053 0032 FFF7FEFF 		bl	rightAuton
 2054              	.LVL200:
 2055 0036 ECE7     		b	.L179
 2056              	.L195:
 2057              		.align	2
 2058              	.L194:
 2059 0038 00000000 		.word	.LANCHOR6
 2060              		.cfi_endproc
 2061              	.LFE82:
 2062              		.size	autonTest, .-autonTest
 2063 003c AFF30080 		.section	.text.vexOperator,"ax",%progbits
 2064              		.align	2
 2065              		.p2align 4,,15
 2066              		.global	vexOperator
 2067              		.thumb
 2068              		.thumb_func
 2069              		.type	vexOperator, %function
 2070              	vexOperator:
 2071              	.LFB66:
 2072              		.loc 1 199 0
 2073              		.cfi_startproc
 2074              		@ args = 0, pretend = 0, frame = 0
 2075              		@ frame_needed = 0, uses_anonymous_args = 0
 2076              	.LVL201:
 2077 0000 10B5     		push	{r4, lr}
 2078              	.LCFI22:
 2079              		.cfi_def_cfa_offset 8
 2080              		.cfi_offset 4, -8
 2081              		.cfi_offset 14, -4
 2082              		.loc 1 203 0
 2083 0002 0F48     		ldr	r0, .L209
ARM GAS  /var/folders/pt/gxfsd_x53tx3h6kb8dkzftl80000gr/T//ccmigkr6.s 			page 38


 2084              	.LVL202:
 2085              		.loc 1 205 0
 2086 0004 0F4C     		ldr	r4, .L209+4
 2087              		.loc 1 203 0
 2088 0006 FFF7FEFF 		bl	vexTaskRegister
 2089              	.LVL203:
 2090 000a 10E0     		b	.L207
 2091              	.L208:
 2092              		.loc 1 208 0
 2093 000c FFF7FEFF 		bl	updateInput
 2094              	.LVL204:
 2095              		.loc 1 211 0
 2096 0010 FFF7FEFF 		bl	movement
 2097              	.LVL205:
 2098              		.loc 1 213 0
 2099 0014 FFF7FEFF 		bl	intake
 2100              	.LVL206:
 2101              		.loc 1 215 0
 2102 0018 FFF7FEFF 		bl	uptake
 2103              	.LVL207:
 2104              		.loc 1 217 0
 2105 001c FFF7FEFF 		bl	miniLauncher
 2106              	.LVL208:
 2107              		.loc 1 219 0
 2108 0020 FFF7FEFF 		bl	launcher
 2109              	.LVL209:
 2110              		.loc 1 222 0
 2111 0024 FFF7FEFF 		bl	autonTest
 2112              	.LVL210:
 2113              		.loc 1 224 0
 2114 0028 1420     		movs	r0, #20
 2115 002a FFF7FEFF 		bl	vexSleep
 2116              	.LVL211:
 2117              	.L207:
 2118              		.loc 1 205 0
 2119 002e A369     		ldr	r3, [r4, #24]
 2120 0030 5B7F     		ldrb	r3, [r3, #29]	@ zero_extendqisi2
 2121 0032 03F00403 		and	r3, r3, #4
 2122 0036 DBB2     		uxtb	r3, r3
 2123 0038 002B     		cmp	r3, #0
 2124 003a E7D0     		beq	.L208
 2125              		.loc 1 228 0
 2126 003c 0020     		movs	r0, #0
 2127 003e 10BD     		pop	{r4, pc}
 2128              	.L210:
 2129              		.align	2
 2130              	.L209:
 2131 0040 3C000000 		.word	.LC6
 2132 0044 00000000 		.word	rlist
 2133              		.cfi_endproc
 2134              	.LFE66:
 2135              		.size	vexOperator, .-vexOperator
 2136 0048 AFF30080 		.section	.text.miniLaunch,"ax",%progbits
 2136      AFF30080 
 2137              		.align	2
 2138              		.p2align 4,,15
 2139              		.global	miniLaunch
ARM GAS  /var/folders/pt/gxfsd_x53tx3h6kb8dkzftl80000gr/T//ccmigkr6.s 			page 39


 2140              		.thumb
 2141              		.thumb_func
 2142              		.type	miniLaunch, %function
 2143              	miniLaunch:
 2144              	.LFB72:
 2145              		.loc 1 440 0
 2146              		.cfi_startproc
 2147              		@ args = 0, pretend = 0, frame = 0
 2148              		@ frame_needed = 0, uses_anonymous_args = 0
 2149              	.LVL212:
 2150 0000 F0B5     		push	{r4, r5, r6, r7, lr}
 2151              	.LCFI23:
 2152              		.cfi_def_cfa_offset 20
 2153              		.cfi_offset 4, -20
 2154              		.cfi_offset 5, -16
 2155              		.cfi_offset 6, -12
 2156              		.cfi_offset 7, -8
 2157              		.cfi_offset 14, -4
 2158              		.loc 1 442 0
 2159 0002 6FF07E01 		mvn	r1, #126
 2160              		.loc 1 440 0
 2161 0006 0746     		mov	r7, r0
 2162 0008 83B0     		sub	sp, sp, #12
 2163              	.LCFI24:
 2164              		.cfi_def_cfa_offset 32
 2165              		.loc 1 442 0
 2166 000a 0620     		movs	r0, #6
 2167              	.LVL213:
 2168 000c FFF7FEFF 		bl	vexMotorSet
 2169              	.LVL214:
 2170              		.loc 1 443 0
 2171 0010 01E0     		b	.L212
 2172              	.L213:
 2173              		.loc 1 445 0
 2174 0012 FFF7FEFF 		bl	vexSleep
 2175              	.LVL215:
 2176              	.L212:
 2177              		.loc 1 443 0 discriminator 1
 2178 0016 0220     		movs	r0, #2
 2179 0018 FFF7FEFF 		bl	vexAdcGet
 2180              	.LVL216:
 2181 001c B0F5817F 		cmp	r0, #258
 2182              		.loc 1 445 0 discriminator 1
 2183 0020 4FF03200 		mov	r0, #50
 2184              		.loc 1 443 0 discriminator 1
 2185 0024 F5DC     		bgt	.L213
 2186              	.LVL217:
 2187              		.loc 1 449 0 discriminator 1
 2188 0026 002F     		cmp	r7, #0
 2189 0028 2FDD     		ble	.L211
 2190              		.loc 1 449 0 is_stmt 0
 2191 002a 0026     		movs	r6, #0
 2192              	.LVL218:
 2193              	.L214:
 2194              	.LBB66:
 2195              		.loc 1 451 0 is_stmt 1
 2196 002c 0620     		movs	r0, #6
ARM GAS  /var/folders/pt/gxfsd_x53tx3h6kb8dkzftl80000gr/T//ccmigkr6.s 			page 40


 2197 002e 6FF07E01 		mvn	r1, #126
 2198 0032 FFF7FEFF 		bl	vexMotorSet
 2199              	.LVL219:
 2200              		.loc 1 452 0
 2201 0036 0920     		movs	r0, #9
 2202 0038 7F21     		movs	r1, #127
 2203 003a FFF7FEFF 		bl	vexMotorSet
 2204              	.LVL220:
 2205              		.loc 1 453 0
 2206 003e 4FF49670 		mov	r0, #300
 2207 0042 FFF7FEFF 		bl	vexSleep
 2208              	.LVL221:
 2209              		.loc 1 454 0
 2210 0046 0024     		movs	r4, #0
 2211              		.loc 1 459 0
 2212 0048 40F2EE25 		movw	r5, #750
 2213              		.loc 1 455 0
 2214 004c 02E0     		b	.L215
 2215              	.LVL222:
 2216              	.L216:
 2217              		.loc 1 465 0
 2218 004e FFF7FEFF 		bl	anythingPressed
 2219              	.LVL223:
 2220 0052 D0B9     		cbnz	r0, .L211
 2221              	.LVL224:
 2222              	.L215:
 2223              		.loc 1 455 0 discriminator 1
 2224 0054 0220     		movs	r0, #2
 2225 0056 FFF7FEFF 		bl	vexAdcGet
 2226              	.LVL225:
 2227              		.loc 1 458 0 discriminator 1
 2228 005a 3234     		adds	r4, r4, #50
 2229              	.LVL226:
 2230              		.loc 1 455 0 discriminator 1
 2231 005c B0F5817F 		cmp	r0, #258
 2232              		.loc 1 457 0 discriminator 1
 2233 0060 4FF03200 		mov	r0, #50
 2234              		.loc 1 455 0 discriminator 1
 2235 0064 13DD     		ble	.L222
 2236              		.loc 1 457 0
 2237 0066 FFF7FEFF 		bl	vexSleep
 2238              	.LVL227:
 2239              		.loc 1 459 0
 2240 006a AC42     		cmp	r4, r5
 2241 006c EFDD     		ble	.L216
 2242              		.loc 1 461 0
 2243 006e 6FF0C700 		mvn	r0, #199
 2244 0072 0146     		mov	r1, r0
 2245 0074 FFF7FEFF 		bl	move
 2246              	.LVL228:
 2247              		.loc 1 462 0
 2248 0078 C820     		movs	r0, #200
 2249 007a 0146     		mov	r1, r0
 2250 007c FFF7FEFF 		bl	move
 2251              	.LVL229:
 2252              		.loc 1 463 0
 2253 0080 0024     		movs	r4, #0
ARM GAS  /var/folders/pt/gxfsd_x53tx3h6kb8dkzftl80000gr/T//ccmigkr6.s 			page 41


 2254              	.LVL230:
 2255              		.loc 1 465 0
 2256 0082 FFF7FEFF 		bl	anythingPressed
 2257              	.LVL231:
 2258 0086 0028     		cmp	r0, #0
 2259 0088 E4D0     		beq	.L215
 2260              	.LVL232:
 2261              	.L211:
 2262              	.LBE66:
 2263              		.loc 1 482 0
 2264 008a 03B0     		add	sp, sp, #12
 2265 008c F0BD     		pop	{r4, r5, r6, r7, pc}
 2266              	.LVL233:
 2267              	.L222:
 2268              	.LBB67:
 2269              		.loc 1 473 0
 2270 008e 7B1E     		subs	r3, r7, #1
 2271 0090 B342     		cmp	r3, r6
 2272 0092 0BD0     		beq	.L219
 2273              		.loc 1 475 0
 2274 0094 0620     		movs	r0, #6
 2275 0096 0021     		movs	r1, #0
 2276 0098 FFF7FEFF 		bl	vexMotorSet
 2277              	.LVL234:
 2278              		.loc 1 476 0
 2279 009c 0920     		movs	r0, #9
 2280 009e 0021     		movs	r1, #0
 2281 00a0 FFF7FEFF 		bl	vexMotorSet
 2282              	.LVL235:
 2283              		.loc 1 477 0
 2284 00a4 4FF49660 		mov	r0, #1200
 2285 00a8 FFF7FEFF 		bl	vexSleep
 2286              	.LVL236:
 2287              	.L219:
 2288              		.loc 1 479 0
 2289 00ac 0120     		movs	r0, #1
 2290 00ae 0021     		movs	r1, #0
 2291 00b0 0096     		str	r6, [sp, #0]
 2292 00b2 064A     		ldr	r2, .L223
 2293 00b4 064B     		ldr	r3, .L223+4
 2294 00b6 FFF7FEFF 		bl	vexLcdPrintf
 2295              	.LVL237:
 2296              		.loc 1 480 0
 2297 00ba 0120     		movs	r0, #1
 2298              	.LBE67:
 2299              		.loc 1 449 0
 2300 00bc 3618     		adds	r6, r6, r0
 2301              	.LBB68:
 2302              		.loc 1 480 0
 2303 00be 0146     		mov	r1, r0
 2304 00c0 044A     		ldr	r2, .L223+8
 2305 00c2 FFF7FEFF 		bl	vexLcdPrintf
 2306              	.LVL238:
 2307              	.LBE68:
 2308              		.loc 1 449 0
 2309 00c6 BE42     		cmp	r6, r7
 2310 00c8 B0D1     		bne	.L214
ARM GAS  /var/folders/pt/gxfsd_x53tx3h6kb8dkzftl80000gr/T//ccmigkr6.s 			page 42


 2311 00ca DEE7     		b	.L211
 2312              	.L224:
 2313              		.align	2
 2314              	.L223:
 2315 00cc 00000000 		.word	.LC0
 2316 00d0 48000000 		.word	.LC7
 2317 00d4 4C000000 		.word	.LC8
 2318              		.cfi_endproc
 2319              	.LFE72:
 2320              		.size	miniLaunch, .-miniLaunch
 2321              		.global	LINE_FOLLOWER_THRESHOLD
 2322              		.global	autonCorrection
 2323              		.global	waitTime
 2324              		.global	LAUNCH_POWER
 2325              		.global	MIN_AUTON_SWING_SPEED
 2326              		.global	MAX_AUTON_SWING_SPEED
 2327              		.global	MAX_AUTON_SPEED
 2328              		.global	MIN_AUTON_SPEED_STRAIGHT
 2329              		.global	MIN_AUTON_SPEED_TURN
 2330              		.global	MINI_TARGET_SPEED
 2331              		.global	BALL_PLACE
 2332              		.global	DEAD_ZONE
 2333              		.global	MINI_FAST_SPEED
 2334              		.global	MINI_SLOW_SPEED
 2335              		.global	powerUpTime
 2336              		.global	miniFastPower
 2337              		.global	miniSlowPower
 2338              		.global	display
 2339              		.global	timeElapsed
 2340              		.global	miniSpeed
 2341              		.global	miniSpeeds
 2342              		.global	miniPositions
 2343              		.global	miniTargetSpeed
 2344              		.global	miniPower
 2345              		.global	testAuton
 2346              		.global	miniFastClicked
 2347              		.global	miniFastButtonPrevious
 2348              		.global	miniFastButton
 2349              		.global	miniZeroClicked
 2350              		.global	miniZeroButtonPrevious
 2351              		.global	miniZeroButton
 2352              		.global	miniSlowClicked
 2353              		.global	miniSlowButtonPrevious
 2354              		.global	miniSlowButton
 2355              		.global	uptakeClicked
 2356              		.global	uptakePrevious
 2357              		.global	uptakeButton
 2358              		.global	targetUptake
 2359              		.global	launchGo
 2360              		.global	launchSwitchPrevious
 2361              		.global	launchSwitch
 2362 00d8 AFF30080 		.section	.rodata.MAX_AUTON_SPEED,"a",%progbits
 2362      AFF30080 
 2363              		.align	2
 2364              		.type	MAX_AUTON_SPEED, %object
 2365              		.size	MAX_AUTON_SPEED, 4
 2366              	MAX_AUTON_SPEED:
ARM GAS  /var/folders/pt/gxfsd_x53tx3h6kb8dkzftl80000gr/T//ccmigkr6.s 			page 43


 2367 0000 55000000 		.word	85
 2368              		.section	.rodata.MINI_TARGET_SPEED,"a",%progbits
 2369              		.align	2
 2370              		.type	MINI_TARGET_SPEED, %object
 2371              		.size	MINI_TARGET_SPEED, 4
 2372              	MINI_TARGET_SPEED:
 2373 0000 01000000 		.word	1
 2374              		.section	.data.miniSlowPower,"aw",%progbits
 2375              		.align	3
 2376              		.set	.LANCHOR25,. + 0
 2377              		.type	miniSlowPower, %object
 2378              		.size	miniSlowPower, 8
 2379              	miniSlowPower:
 2380 0000 00000000 		.word	0
 2381 0004 00004C40 		.word	1078722560
 2382              		.section	.rodata.BALL_PLACE,"a",%progbits
 2383              		.align	2
 2384              		.type	BALL_PLACE, %object
 2385              		.size	BALL_PLACE, 4
 2386              	BALL_PLACE:
 2387 0000 8A020000 		.word	650
 2388              		.section	.bss.miniFastButton,"aw",%nobits
 2389              		.set	.LANCHOR17,. + 0
 2390              		.type	miniFastButton, %object
 2391              		.size	miniFastButton, 1
 2392              	miniFastButton:
 2393 0000 00       		.space	1
 2394              		.section	.data.miniFastPower,"aw",%progbits
 2395              		.align	3
 2396              		.set	.LANCHOR26,. + 0
 2397              		.type	miniFastPower, %object
 2398              		.size	miniFastPower, 8
 2399              	miniFastPower:
 2400 0000 00000000 		.word	0
 2401 0004 00C05F40 		.word	1080016896
 2402              		.section	.bss.uptakeClicked,"aw",%nobits
 2403              		.set	.LANCHOR9,. + 0
 2404              		.type	uptakeClicked, %object
 2405              		.size	uptakeClicked, 1
 2406              	uptakeClicked:
 2407 0000 00       		.space	1
 2408              		.section	.bss.miniSlowClicked,"aw",%nobits
 2409              		.set	.LANCHOR15,. + 0
 2410              		.type	miniSlowClicked, %object
 2411              		.size	miniSlowClicked, 1
 2412              	miniSlowClicked:
 2413 0000 00       		.space	1
 2414              		.section	.rodata.MAX_AUTON_SWING_SPEED,"a",%progbits
 2415              		.align	2
 2416              		.type	MAX_AUTON_SWING_SPEED, %object
 2417              		.size	MAX_AUTON_SWING_SPEED, 4
 2418              	MAX_AUTON_SWING_SPEED:
 2419 0000 26000000 		.word	38
 2420              		.section	.bss.miniSlowButton,"aw",%nobits
 2421              		.set	.LANCHOR14,. + 0
 2422              		.type	miniSlowButton, %object
 2423              		.size	miniSlowButton, 1
ARM GAS  /var/folders/pt/gxfsd_x53tx3h6kb8dkzftl80000gr/T//ccmigkr6.s 			page 44


 2424              	miniSlowButton:
 2425 0000 00       		.space	1
 2426              		.section	.bss.miniZeroClicked,"aw",%nobits
 2427              		.set	.LANCHOR12,. + 0
 2428              		.type	miniZeroClicked, %object
 2429              		.size	miniZeroClicked, 1
 2430              	miniZeroClicked:
 2431 0000 00       		.space	1
 2432              		.section	.bss.miniPower,"aw",%nobits
 2433              		.align	3
 2434              		.set	.LANCHOR24,. + 0
 2435              		.type	miniPower, %object
 2436              		.size	miniPower, 8
 2437              	miniPower:
 2438 0000 00000000 		.space	8
 2438      00000000 
 2439              		.section	.bss.uptakePrevious,"aw",%nobits
 2440              		.set	.LANCHOR7,. + 0
 2441              		.type	uptakePrevious, %object
 2442              		.size	uptakePrevious, 1
 2443              	uptakePrevious:
 2444 0000 00       		.space	1
 2445              		.section	.bss.launchSwitch,"aw",%nobits
 2446              		.set	.LANCHOR2,. + 0
 2447              		.type	launchSwitch, %object
 2448              		.size	launchSwitch, 1
 2449              	launchSwitch:
 2450 0000 00       		.space	1
 2451              		.section	.data.mConfig,"aw",%progbits
 2452              		.align	2
 2453              		.set	.LANCHOR1,. + 0
 2454              		.type	mConfig, %object
 2455              		.size	mConfig, 60
 2456              	mConfig:
 2457 0000 00       		.byte	0
 2458 0001 02       		.byte	2
 2459 0002 00       		.byte	0
 2460 0003 00       		.byte	0
 2461 0004 0000     		.short	0
 2462 0006 01       		.byte	1
 2463 0007 03       		.byte	3
 2464 0008 00       		.byte	0
 2465 0009 03       		.byte	3
 2466 000a 0000     		.short	0
 2467 000c 02       		.byte	2
 2468 000d 02       		.byte	2
 2469 000e 00       		.byte	0
 2470 000f 00       		.byte	0
 2471 0010 0000     		.short	0
 2472 0012 03       		.byte	3
 2473 0013 02       		.byte	2
 2474 0014 01       		.byte	1
 2475 0015 00       		.byte	0
 2476 0016 0000     		.short	0
 2477 0018 04       		.byte	4
 2478 0019 02       		.byte	2
 2479 001a 00       		.byte	0
ARM GAS  /var/folders/pt/gxfsd_x53tx3h6kb8dkzftl80000gr/T//ccmigkr6.s 			page 45


 2480 001b 00       		.byte	0
 2481 001c 0000     		.short	0
 2482 001e 05       		.byte	5
 2483 001f 03       		.byte	3
 2484 0020 01       		.byte	1
 2485 0021 03       		.byte	3
 2486 0022 0100     		.short	1
 2487 0024 06       		.byte	6
 2488 0025 02       		.byte	2
 2489 0026 00       		.byte	0
 2490 0027 00       		.byte	0
 2491 0028 0000     		.short	0
 2492 002a 07       		.byte	7
 2493 002b 02       		.byte	2
 2494 002c 01       		.byte	1
 2495 002d 00       		.byte	0
 2496 002e 0000     		.short	0
 2497 0030 08       		.byte	8
 2498 0031 02       		.byte	2
 2499 0032 00       		.byte	0
 2500 0033 06       		.byte	6
 2501 0034 0000     		.short	0
 2502 0036 09       		.byte	9
 2503 0037 02       		.byte	2
 2504 0038 00       		.byte	0
 2505 0039 00       		.byte	0
 2506 003a 0000     		.short	0
 2507              		.section	.data.dConfig,"aw",%progbits
 2508              		.align	2
 2509              		.set	.LANCHOR0,. + 0
 2510              		.type	dConfig, %object
 2511              		.size	dConfig, 72
 2512              	dConfig:
 2513 0000 00       		.byte	0
 2514 0001 01       		.byte	1
 2515 0002 00       		.byte	0
 2516 0003 00       		.space	1
 2517 0004 0000     		.short	0
 2518 0006 01       		.byte	1
 2519 0007 01       		.byte	1
 2520 0008 00       		.byte	0
 2521 0009 00       		.space	1
 2522 000a 0000     		.short	0
 2523 000c 02       		.byte	2
 2524 000d 01       		.byte	1
 2525 000e 00       		.byte	0
 2526 000f 00       		.space	1
 2527 0010 0000     		.short	0
 2528 0012 03       		.byte	3
 2529 0013 01       		.byte	1
 2530 0014 00       		.byte	0
 2531 0015 00       		.space	1
 2532 0016 0000     		.short	0
 2533 0018 04       		.byte	4
 2534 0019 01       		.byte	1
 2535 001a 00       		.byte	0
 2536 001b 00       		.space	1
ARM GAS  /var/folders/pt/gxfsd_x53tx3h6kb8dkzftl80000gr/T//ccmigkr6.s 			page 46


 2537 001c 0000     		.short	0
 2538 001e 05       		.byte	5
 2539 001f 02       		.byte	2
 2540 0020 01       		.byte	1
 2541 0021 00       		.space	1
 2542 0022 0000     		.short	0
 2543 0024 06       		.byte	6
 2544 0025 02       		.byte	2
 2545 0026 01       		.byte	1
 2546 0027 00       		.space	1
 2547 0028 0000     		.short	0
 2548 002a 07       		.byte	7
 2549 002b 02       		.byte	2
 2550 002c 01       		.byte	1
 2551 002d 00       		.space	1
 2552 002e 0000     		.short	0
 2553 0030 08       		.byte	8
 2554 0031 03       		.byte	3
 2555 0032 0A       		.byte	10
 2556 0033 00       		.space	1
 2557 0034 0000     		.short	0
 2558 0036 09       		.byte	9
 2559 0037 03       		.byte	3
 2560 0038 0B       		.byte	11
 2561 0039 00       		.space	1
 2562 003a 0000     		.short	0
 2563 003c 0A       		.byte	10
 2564 003d 03       		.byte	3
 2565 003e 0A       		.byte	10
 2566 003f 00       		.space	1
 2567 0040 0100     		.short	1
 2568 0042 0B       		.byte	11
 2569 0043 03       		.byte	3
 2570 0044 0B       		.byte	11
 2571 0045 00       		.space	1
 2572 0046 0100     		.short	1
 2573              		.section	.bss.miniSlowButtonPrevious,"aw",%nobits
 2574              		.set	.LANCHOR13,. + 0
 2575              		.type	miniSlowButtonPrevious, %object
 2576              		.size	miniSlowButtonPrevious, 1
 2577              	miniSlowButtonPrevious:
 2578 0000 00       		.space	1
 2579              		.section	.bss.miniPositions,"aw",%nobits
 2580              		.align	2
 2581              		.set	.LANCHOR19,. + 0
 2582              		.type	miniPositions, %object
 2583              		.size	miniPositions, 80
 2584              	miniPositions:
 2585 0000 00000000 		.space	80
 2585      00000000 
 2585      00000000 
 2585      00000000 
 2585      00000000 
 2586              		.section	.rodata.LAUNCH_POWER,"a",%progbits
 2587              		.align	2
 2588              		.type	LAUNCH_POWER, %object
 2589              		.size	LAUNCH_POWER, 4
ARM GAS  /var/folders/pt/gxfsd_x53tx3h6kb8dkzftl80000gr/T//ccmigkr6.s 			page 47


 2590              	LAUNCH_POWER:
 2591 0000 75000000 		.word	117
 2592              		.section	.bss.timeElapsed,"aw",%nobits
 2593              		.align	2
 2594              		.set	.LANCHOR21,. + 0
 2595              		.type	timeElapsed, %object
 2596              		.size	timeElapsed, 4
 2597              	timeElapsed:
 2598 0000 00000000 		.space	4
 2599              		.section	.rodata.MINI_SLOW_SPEED,"a",%progbits
 2600              		.align	2
 2601              		.type	MINI_SLOW_SPEED, %object
 2602              		.size	MINI_SLOW_SPEED, 4
 2603              	MINI_SLOW_SPEED:
 2604 0000 FA000000 		.word	250
 2605              		.section	.bss.miniZeroButtonPrevious,"aw",%nobits
 2606              		.set	.LANCHOR10,. + 0
 2607              		.type	miniZeroButtonPrevious, %object
 2608              		.size	miniZeroButtonPrevious, 1
 2609              	miniZeroButtonPrevious:
 2610 0000 00       		.space	1
 2611              		.section	.bss.uptakeButton,"aw",%nobits
 2612              		.set	.LANCHOR8,. + 0
 2613              		.type	uptakeButton, %object
 2614              		.size	uptakeButton, 1
 2615              	uptakeButton:
 2616 0000 00       		.space	1
 2617              		.section	.rodata.MIN_AUTON_SPEED_TURN,"a",%progbits
 2618              		.align	2
 2619              		.type	MIN_AUTON_SPEED_TURN, %object
 2620              		.size	MIN_AUTON_SPEED_TURN, 4
 2621              	MIN_AUTON_SPEED_TURN:
 2622 0000 28000000 		.word	40
 2623              		.section	.rodata.str1.4,"aMS",%progbits,1
 2624              		.align	2
 2625              	.LC0:
 2626 0000 25732564 		.ascii	"%s%d\000"
 2626      00
 2627 0005 000000   		.space	3
 2628              	.LC1:
 2629 0008 53706565 		.ascii	"Speed: \000"
 2629      643A2000 
 2630              	.LC2:
 2631 0010 54617267 		.ascii	"Target: \000"
 2631      65743A20 
 2631      00
 2632 0019 000000   		.space	3
 2633              	.LC3:
 2634 001c 506F7765 		.ascii	"Power: \000"
 2634      723A2000 
 2635              	.LC4:
 2636 0024 42616C6C 		.ascii	"Ball sensor: \000"
 2636      2073656E 
 2636      736F723A 
 2636      2000
 2637 0032 0000     		.space	2
 2638              	.LC5:
ARM GAS  /var/folders/pt/gxfsd_x53tx3h6kb8dkzftl80000gr/T//ccmigkr6.s 			page 48


 2639 0034 6175746F 		.ascii	"auton\000"
 2639      6E00
 2640 003a 0000     		.space	2
 2641              	.LC6:
 2642 003c 6F706572 		.ascii	"operator\000"
 2642      61746F72 
 2642      00
 2643 0045 000000   		.space	3
 2644              	.LC7:
 2645 0048 693A2000 		.ascii	"i: \000"
 2646              	.LC8:
 2647 004c 2000     		.ascii	" \000"
 2648 004e 0000     		.section	.bss.testAuton,"aw",%nobits
 2649              		.set	.LANCHOR6,. + 0
 2650              		.type	testAuton, %object
 2651              		.size	testAuton, 1
 2652              	testAuton:
 2653 0000 00       		.space	1
 2654              		.section	.rodata.DEAD_ZONE,"a",%progbits
 2655              		.align	2
 2656              		.type	DEAD_ZONE, %object
 2657              		.size	DEAD_ZONE, 4
 2658              	DEAD_ZONE:
 2659 0000 14000000 		.word	20
 2660              		.section	.bss.miniFastButtonPrevious,"aw",%nobits
 2661              		.set	.LANCHOR16,. + 0
 2662              		.type	miniFastButtonPrevious, %object
 2663              		.size	miniFastButtonPrevious, 1
 2664              	miniFastButtonPrevious:
 2665 0000 00       		.space	1
 2666              		.section	.data.display,"aw",%progbits
 2667              		.align	2
 2668              		.set	.LANCHOR22,. + 0
 2669              		.type	display, %object
 2670              		.size	display, 4
 2671              	display:
 2672 0000 01000000 		.word	1
 2673              		.section	.rodata.MIN_AUTON_SPEED_STRAIGHT,"a",%progbits
 2674              		.align	2
 2675              		.type	MIN_AUTON_SPEED_STRAIGHT, %object
 2676              		.size	MIN_AUTON_SPEED_STRAIGHT, 4
 2677              	MIN_AUTON_SPEED_STRAIGHT:
 2678 0000 26000000 		.word	38
 2679              		.section	.rodata.LINE_FOLLOWER_THRESHOLD,"a",%progbits
 2680              		.align	2
 2681              		.type	LINE_FOLLOWER_THRESHOLD, %object
 2682              		.size	LINE_FOLLOWER_THRESHOLD, 4
 2683              	LINE_FOLLOWER_THRESHOLD:
 2684 0000 02010000 		.word	258
 2685              		.section	.bss.miniTargetSpeed,"aw",%nobits
 2686              		.align	2
 2687              		.set	.LANCHOR20,. + 0
 2688              		.type	miniTargetSpeed, %object
 2689              		.size	miniTargetSpeed, 4
 2690              	miniTargetSpeed:
 2691 0000 00000000 		.space	4
 2692              		.section	.rodata.MINI_FAST_SPEED,"a",%progbits
ARM GAS  /var/folders/pt/gxfsd_x53tx3h6kb8dkzftl80000gr/T//ccmigkr6.s 			page 49


 2693              		.align	2
 2694              		.type	MINI_FAST_SPEED, %object
 2695              		.size	MINI_FAST_SPEED, 4
 2696              	MINI_FAST_SPEED:
 2697 0000 5E010000 		.word	350
 2698              		.section	.rodata.MIN_AUTON_SWING_SPEED,"a",%progbits
 2699              		.align	2
 2700              		.type	MIN_AUTON_SWING_SPEED, %object
 2701              		.size	MIN_AUTON_SWING_SPEED, 4
 2702              	MIN_AUTON_SWING_SPEED:
 2703 0000 1C000000 		.word	28
 2704              		.section	.rodata.powerUpTime,"a",%progbits
 2705              		.align	2
 2706              		.type	powerUpTime, %object
 2707              		.size	powerUpTime, 4
 2708              	powerUpTime:
 2709 0000 DC050000 		.word	1500
 2710              		.section	.rodata.waitTime,"a",%progbits
 2711              		.align	2
 2712              		.type	waitTime, %object
 2713              		.size	waitTime, 4
 2714              	waitTime:
 2715 0000 2C010000 		.word	300
 2716              		.section	.bss.targetUptake,"aw",%nobits
 2717              		.align	2
 2718              		.set	.LANCHOR5,. + 0
 2719              		.type	targetUptake, %object
 2720              		.size	targetUptake, 4
 2721              	targetUptake:
 2722 0000 00000000 		.space	4
 2723              		.section	.bss.miniSpeed,"aw",%nobits
 2724              		.align	2
 2725              		.set	.LANCHOR23,. + 0
 2726              		.type	miniSpeed, %object
 2727              		.size	miniSpeed, 4
 2728              	miniSpeed:
 2729 0000 00000000 		.space	4
 2730              		.section	.bss.miniZeroButton,"aw",%nobits
 2731              		.set	.LANCHOR11,. + 0
 2732              		.type	miniZeroButton, %object
 2733              		.size	miniZeroButton, 1
 2734              	miniZeroButton:
 2735 0000 00       		.space	1
 2736              		.section	.bss.launchGo,"aw",%nobits
 2737              		.set	.LANCHOR4,. + 0
 2738              		.type	launchGo, %object
 2739              		.size	launchGo, 1
 2740              	launchGo:
 2741 0000 00       		.space	1
 2742              		.section	.bss.launchSwitchPrevious,"aw",%nobits
 2743              		.set	.LANCHOR3,. + 0
 2744              		.type	launchSwitchPrevious, %object
 2745              		.size	launchSwitchPrevious, 1
 2746              	launchSwitchPrevious:
 2747 0000 00       		.space	1
 2748              		.section	.bss.miniSpeeds,"aw",%nobits
 2749              		.align	2
ARM GAS  /var/folders/pt/gxfsd_x53tx3h6kb8dkzftl80000gr/T//ccmigkr6.s 			page 50


 2750              		.type	miniSpeeds, %object
 2751              		.size	miniSpeeds, 80
 2752              	miniSpeeds:
 2753 0000 00000000 		.space	80
 2753      00000000 
 2753      00000000 
 2753      00000000 
 2753      00000000 
 2754              		.section	.rodata.autonCorrection,"a",%progbits
 2755              		.align	3
 2756              		.type	autonCorrection, %object
 2757              		.size	autonCorrection, 8
 2758              	autonCorrection:
 2759 0000 9A999999 		.word	2576980378
 2760 0004 9999A93F 		.word	1068079513
 2761              		.section	.bss.miniFastClicked,"aw",%nobits
 2762              		.set	.LANCHOR18,. + 0
 2763              		.type	miniFastClicked, %object
 2764              		.size	miniFastClicked, 1
 2765              	miniFastClicked:
 2766 0000 00       		.space	1
 2767              		.text
 2768              	.Letext0:
 2769              		.file 2 "/Users/programmer/ConVEX/yagarto-4.7.2/bin/../lib/gcc/arm-none-eabi/4.7.2/../../../../arm
 2770              		.file 3 "convex/ChibiOS_2.6.2/os/ports/GCC/ARMCMx/chtypes.h"
 2771              		.file 4 "convex/ChibiOS_2.6.2/os/kernel/include/chlists.h"
 2772              		.file 5 "convex/ChibiOS_2.6.2/os/kernel/include/chthreads.h"
 2773              		.file 6 "convex/ChibiOS_2.6.2/os/ports/GCC/ARMCMx/chcore_v7m.h"
 2774              		.file 7 "convex/ChibiOS_2.6.2/os/kernel/include/chschd.h"
 2775              		.file 8 "convex/ChibiOS_2.6.2/os/kernel/include/chmtx.h"
 2776              		.file 9 "convex/convex/cortex/fw/vexdigital.h"
 2777              		.file 10 "convex/convex/cortex/fw/vexencoder.h"
 2778              		.file 11 "convex/convex/cortex/fw/vexmotor.h"
 2779              		.file 12 "convex/convex/cortex/fw/vexime.h"
 2780              		.file 13 "convex/convex/cortex/fw/vexconfig.h"
 2781              		.file 14 "convex/convex/cortex/fw/vexlcd.h"
 2782              		.file 15 "convex/convex/cortex/fw/vexctl.h"
 2783              		.file 16 "convex/ChibiOS_2.6.2/os/ports/common/ARMCMx/CMSIS/include/core_cm3.h"
 2784              		.file 17 "convex/convex/cortex/fw/vex.h"
 2785              		.file 18 "convex/convex/cortex/fw/vexanalog.h"